
proyecto.elf:     file format elf32-littlearm

Sections:
Idx Name          Size      VMA       LMA       File off  Algn
  0 .text         0000c0c0  0c100000  0c100000  00008000  2**2
                  CONTENTS, ALLOC, LOAD, READONLY, CODE
  1 .rodata       00001f34  0c10c0c0  0c10c0c0  000140c0  2**2
                  CONTENTS, ALLOC, LOAD, READONLY, DATA
  2 .ARM.exidx    00000008  0c10dff4  0c10dff4  00015ff4  2**2
                  CONTENTS, ALLOC, LOAD, READONLY, DATA
  3 .data         00000018  0c10dffc  0c10dffc  00015ffc  2**2
                  CONTENTS, ALLOC, LOAD, DATA
  4 .lcdbuffer    00009600  0c10e014  0c10e014  00016014  2**2
                  CONTENTS, ALLOC, LOAD, DATA
  5 .bss          0000046a  0c117614  0c117614  0001f614  2**2
                  ALLOC
  6 .debug_abbrev 000011a7  00000000  00000000  0001f614  2**0
                  CONTENTS, READONLY, DEBUGGING
  7 .debug_info   00003b1d  00000000  00000000  000207bb  2**0
                  CONTENTS, READONLY, DEBUGGING
  8 .debug_line   00001cbf  00000000  00000000  000242d8  2**0
                  CONTENTS, READONLY, DEBUGGING
  9 .debug_macinfo 00059c91  00000000  00000000  00025f97  2**0
                  CONTENTS, READONLY, DEBUGGING
 10 .debug_loc    00002260  00000000  00000000  0007fc28  2**0
                  CONTENTS, READONLY, DEBUGGING
 11 .debug_pubnames 00000daf  00000000  00000000  00081e88  2**0
                  CONTENTS, READONLY, DEBUGGING
 12 .debug_pubtypes 00000425  00000000  00000000  00082c37  2**0
                  CONTENTS, READONLY, DEBUGGING
 13 .debug_aranges 00000260  00000000  00000000  0008305c  2**0
                  CONTENTS, READONLY, DEBUGGING
 14 .debug_str    000010e6  00000000  00000000  000832bc  2**0
                  CONTENTS, READONLY, DEBUGGING
 15 .comment      0000002a  00000000  00000000  000843a2  2**0
                  CONTENTS, READONLY
 16 .ARM.attributes 00000032  00000000  00000000  000843cc  2**0
                  CONTENTS, READONLY
 17 .debug_frame  00001d90  00000000  00000000  00084400  2**2
                  CONTENTS, READONLY, DEBUGGING

Disassembly of section .text:

0c100000 <main>:
//volatile ufix32 distanciaAndada;
//volatile ufix32 distanciaPaso = TOFIX(ufix32, 1.0, Q);
/*******************************************************************/

void main( void )
{
 c100000:	e1a0c00d 	mov	ip, sp
 c100004:	e92dd800 	push	{fp, ip, lr, pc}
 c100008:	e24cb004 	sub	fp, ip, #4
 c10000c:	e24dd020 	sub	sp, sp, #32
	sys_init();
 c100010:	eb001e0d 	bl	c10784c <sys_init>
	leds_init();
 c100014:	eb0019ae 	bl	c1066d4 <leds_init>
	rtc_init();
 c100018:	eb001b83 	bl	c106e2c <rtc_init>
	lcd_init();
 c10001c:	eb0014b3 	bl	c1052f0 <lcd_init>
	ts_init();
 c100020:	eb00291a 	bl	c10a490 <ts_init>
	uda1341ts_init();
 c100024:	eb002aeb 	bl	c10abd8 <uda1341ts_init>
	lcd_on();
 c100028:	eb00151c 	bl	c1054a0 <lcd_on>
	lcd_clear();
 c10002c:	eb001543 	bl	c105540 <lcd_clear>
	ts_on();
 c100030:	eb0026c0 	bl	c109b38 <ts_on>
	pbs_init();
 c100034:	eb001a00 	bl	c10683c <pbs_init>
	iis_init( IIS_DMA );
 c100038:	e3a00001 	mov	r0, #1
 c10003c:	eb00117b 	bl	c104630 <iis_init>
	keypad_init();
 c100040:	eb00146b 	bl	c1051f4 <keypad_init>

	flagUpdateSB = TRUE;
 c100044:	e59f33e4 	ldr	r3, [pc, #996]	; c100430 <main+0x430>
 c100048:	e3a02001 	mov	r2, #1
 c10004c:	e5c32000 	strb	r2, [r3]
	flagRTC = FALSE;
 c100050:	e59f33dc 	ldr	r3, [pc, #988]	; c100434 <main+0x434>
 c100054:	e3a02000 	mov	r2, #0
 c100058:	e5c32000 	strb	r2, [r3]
	flagAlarma = FALSE; //activar cuando se ponga una alarma
 c10005c:	e59f33d4 	ldr	r3, [pc, #980]	; c100438 <main+0x438>
 c100060:	e3a02000 	mov	r2, #0
 c100064:	e5c32000 	strb	r2, [r3]
	flagFinDeAlarma = FALSE;
 c100068:	e59f33cc 	ldr	r3, [pc, #972]	; c10043c <main+0x43c>
 c10006c:	e3a02000 	mov	r2, #0
 c100070:	e5c32000 	strb	r2, [r3]
	flagPBS = FALSE;
 c100074:	e59f33c4 	ldr	r3, [pc, #964]	; c100440 <main+0x440>
 c100078:	e3a02000 	mov	r2, #0
 c10007c:	e5c32000 	strb	r2, [r3]
	flagTS = FALSE;
 c100080:	e59f33bc 	ldr	r3, [pc, #956]	; c100444 <main+0x444>
 c100084:	e3a02000 	mov	r2, #0
 c100088:	e5c32000 	strb	r2, [r3]
	flagCheckPulsaciones = FALSE;
 c10008c:	e59f33b4 	ldr	r3, [pc, #948]	; c100448 <main+0x448>
 c100090:	e3a02000 	mov	r2, #0
 c100094:	e5c32000 	strb	r2, [r3]

	const uint8 *cadenaTiempo = (uint8*)__TIME__;
 c100098:	e59f33ac 	ldr	r3, [pc, #940]	; c10044c <main+0x44c>
 c10009c:	e50b3014 	str	r3, [fp, #-20]	; 0xffffffec

	rtc_time_t rtc_time, alarma;
	rtc_time.hour = (cadenaTiempo[0] - '0') * 10 + (cadenaTiempo[1] - '0');
 c1000a0:	e51b3014 	ldr	r3, [fp, #-20]	; 0xffffffec
 c1000a4:	e5d33000 	ldrb	r3, [r3]
 c1000a8:	e1a02003 	mov	r2, r3
 c1000ac:	e1a02102 	lsl	r2, r2, #2
 c1000b0:	e0823003 	add	r3, r2, r3
 c1000b4:	e1a03083 	lsl	r3, r3, #1
 c1000b8:	e20320ff 	and	r2, r3, #255	; 0xff
 c1000bc:	e51b3014 	ldr	r3, [fp, #-20]	; 0xffffffec
 c1000c0:	e2833001 	add	r3, r3, #1
 c1000c4:	e5d33000 	ldrb	r3, [r3]
 c1000c8:	e0823003 	add	r3, r2, r3
 c1000cc:	e20330ff 	and	r3, r3, #255	; 0xff
 c1000d0:	e2433010 	sub	r3, r3, #16
 c1000d4:	e20330ff 	and	r3, r3, #255	; 0xff
 c1000d8:	e54b301a 	strb	r3, [fp, #-26]	; 0xffffffe6
	rtc_time.min = (cadenaTiempo[3] - '0') * 10 + (cadenaTiempo[4] - '0');
 c1000dc:	e51b3014 	ldr	r3, [fp, #-20]	; 0xffffffec
 c1000e0:	e2833003 	add	r3, r3, #3
 c1000e4:	e5d33000 	ldrb	r3, [r3]
 c1000e8:	e1a02003 	mov	r2, r3
 c1000ec:	e1a02102 	lsl	r2, r2, #2
 c1000f0:	e0823003 	add	r3, r2, r3
 c1000f4:	e1a03083 	lsl	r3, r3, #1
 c1000f8:	e20320ff 	and	r2, r3, #255	; 0xff
 c1000fc:	e51b3014 	ldr	r3, [fp, #-20]	; 0xffffffec
 c100100:	e2833004 	add	r3, r3, #4
 c100104:	e5d33000 	ldrb	r3, [r3]
 c100108:	e0823003 	add	r3, r2, r3
 c10010c:	e20330ff 	and	r3, r3, #255	; 0xff
 c100110:	e2433010 	sub	r3, r3, #16
 c100114:	e20330ff 	and	r3, r3, #255	; 0xff
 c100118:	e54b301b 	strb	r3, [fp, #-27]	; 0xffffffe5
	rtc_time.sec = (cadenaTiempo[6] - '0') * 10 + (cadenaTiempo[7] - '0');
 c10011c:	e51b3014 	ldr	r3, [fp, #-20]	; 0xffffffec
 c100120:	e2833006 	add	r3, r3, #6
 c100124:	e5d33000 	ldrb	r3, [r3]
 c100128:	e1a02003 	mov	r2, r3
 c10012c:	e1a02102 	lsl	r2, r2, #2
 c100130:	e0823003 	add	r3, r2, r3
 c100134:	e1a03083 	lsl	r3, r3, #1
 c100138:	e20320ff 	and	r2, r3, #255	; 0xff
 c10013c:	e51b3014 	ldr	r3, [fp, #-20]	; 0xffffffec
 c100140:	e2833007 	add	r3, r3, #7
 c100144:	e5d33000 	ldrb	r3, [r3]
 c100148:	e0823003 	add	r3, r2, r3
 c10014c:	e20330ff 	and	r3, r3, #255	; 0xff
 c100150:	e2433010 	sub	r3, r3, #16
 c100154:	e20330ff 	and	r3, r3, #255	; 0xff
 c100158:	e54b301c 	strb	r3, [fp, #-28]	; 0xffffffe4

	rtc_puttime(&rtc_time);
 c10015c:	e24b301c 	sub	r3, fp, #28
 c100160:	e1a00003 	mov	r0, r3
 c100164:	eb001b81 	bl	c106f70 <rtc_puttime>

	ufix32 distanciaPaso = TOFIX(ufix32, 1.0, Q);
 c100168:	e3a03c01 	mov	r3, #256	; 0x100
 c10016c:	e50b3028 	str	r3, [fp, #-40]	; 0xffffffd8
    uint16 beatsPerMinute = 60;
 c100170:	e3a0303c 	mov	r3, #60	; 0x3c
 c100174:	e14b32ba 	strh	r3, [fp, #-42]	; 0xffffffd6
    uint16 stepsPerMinute = 60;
 c100178:	e3a0303c 	mov	r3, #60	; 0x3c
 c10017c:	e14b32bc 	strh	r3, [fp, #-44]	; 0xffffffd4
    ufix32 distanciaAndada = 0;
 c100180:	e3a03000 	mov	r3, #0
 c100184:	e50b3010 	str	r3, [fp, #-16]
	readBeats(&beatsPerMinute);
 c100188:	e24b302a 	sub	r3, fp, #42	; 0x2a
 c10018c:	e1a00003 	mov	r0, r3
 c100190:	eb0005ec 	bl	c101948 <readBeats>
	readSteps(&stepsPerMinute);
 c100194:	e24b302c 	sub	r3, fp, #44	; 0x2c
 c100198:	e1a00003 	mov	r0, r3
 c10019c:	eb000682 	bl	c101bac <readSteps>
	nBeatsIn10Secs = 0;
 c1001a0:	e59f32a8 	ldr	r3, [pc, #680]	; c100450 <main+0x450>
 c1001a4:	e3a02000 	mov	r2, #0
 c1001a8:	e5c32000 	strb	r2, [r3]
	nStepsIn10Secs = 0;
 c1001ac:	e59f32a0 	ldr	r3, [pc, #672]	; c100454 <main+0x454>
 c1001b0:	e3a02000 	mov	r2, #0
 c1001b4:	e5c32000 	strb	r2, [r3]

	timer0_open_tick( isr_tick, TICKS_PER_SEC );
 c1001b8:	e59f0298 	ldr	r0, [pc, #664]	; c100458 <main+0x458>
 c1001bc:	e3a01064 	mov	r1, #100	; 0x64
 c1001c0:	eb002558 	bl	c109728 <timer0_open_tick>
	ts_open(isr_ts);
 c1001c4:	e59f0290 	ldr	r0, [pc, #656]	; c10045c <main+0x45c>
 c1001c8:	eb002889 	bl	c10a3f4 <ts_open>
	pbs_open(isr_pbs);
 c1001cc:	e59f028c 	ldr	r0, [pc, #652]	; c100460 <main+0x460>
 c1001d0:	eb001a65 	bl	c106b6c <pbs_open>

	startSensorsEmulator( beatHandler, stepHandler, beatsPerMinute, stepsPerMinute );     // Arranca el emulador de sensores, instalando beatHandler y stepHandler como RTI de los respectivos sensores
 c1001d4:	e15b32ba 	ldrh	r3, [fp, #-42]	; 0xffffffd6
 c1001d8:	e20320ff 	and	r2, r3, #255	; 0xff
 c1001dc:	e15b32bc 	ldrh	r3, [fp, #-44]	; 0xffffffd4
 c1001e0:	e20330ff 	and	r3, r3, #255	; 0xff
 c1001e4:	e59f0278 	ldr	r0, [pc, #632]	; c100464 <main+0x464>
 c1001e8:	e59f1278 	ldr	r1, [pc, #632]	; c100468 <main+0x468>
 c1001ec:	eb000868 	bl	c102394 <startSensorsEmulator>

	while( 1 )
    {
    	if( newBeat )
 c1001f0:	e59f3274 	ldr	r3, [pc, #628]	; c10046c <main+0x46c>
 c1001f4:	e5d33000 	ldrb	r3, [r3]
 c1001f8:	e20330ff 	and	r3, r3, #255	; 0xff
 c1001fc:	e3530000 	cmp	r3, #0
 c100200:	0a000004 	beq	c100218 <main+0x218>
    	{
    		newBeat = FALSE;
 c100204:	e59f3260 	ldr	r3, [pc, #608]	; c10046c <main+0x46c>
 c100208:	e3a02000 	mov	r2, #0
 c10020c:	e5c32000 	strb	r2, [r3]
    		led_toggle( LEFT_LED );
 c100210:	e3a00001 	mov	r0, #1
 c100214:	eb001963 	bl	c1067a8 <led_toggle>
    	}
    	if( newStep )
 c100218:	e59f3250 	ldr	r3, [pc, #592]	; c100470 <main+0x470>
 c10021c:	e5d33000 	ldrb	r3, [r3]
 c100220:	e20330ff 	and	r3, r3, #255	; 0xff
 c100224:	e3530000 	cmp	r3, #0
 c100228:	0a00000a 	beq	c100258 <main+0x258>
    	{
    		distanciaAndada = FADD(distanciaAndada,distanciaPaso);
 c10022c:	e51b3028 	ldr	r3, [fp, #-40]	; 0xffffffd8
 c100230:	e51b2010 	ldr	r2, [fp, #-16]
 c100234:	e0823003 	add	r3, r2, r3
 c100238:	e50b3010 	str	r3, [fp, #-16]
    		pintaDistancia(distanciaAndada);
 c10023c:	e51b0010 	ldr	r0, [fp, #-16]
 c100240:	eb0007fa 	bl	c102230 <pintaDistancia>
    		newStep = FALSE;
 c100244:	e59f3224 	ldr	r3, [pc, #548]	; c100470 <main+0x470>
 c100248:	e3a02000 	mov	r2, #0
 c10024c:	e5c32000 	strb	r2, [r3]
    		led_toggle( RIGHT_LED );
 c100250:	e3a00002 	mov	r0, #2
 c100254:	eb001953 	bl	c1067a8 <led_toggle>
    	}
    	if( flagRTC )
 c100258:	e59f31d4 	ldr	r3, [pc, #468]	; c100434 <main+0x434>
 c10025c:	e5d33000 	ldrb	r3, [r3]
 c100260:	e20330ff 	and	r3, r3, #255	; 0xff
 c100264:	e3530000 	cmp	r3, #0
 c100268:	0a00001b 	beq	c1002dc <main+0x2dc>
    	{
    		flagRTC = FALSE;
 c10026c:	e59f31c0 	ldr	r3, [pc, #448]	; c100434 <main+0x434>
 c100270:	e3a02000 	mov	r2, #0
 c100274:	e5c32000 	strb	r2, [r3]
    		rtc_gettime( &rtc_time );
 c100278:	e24b301c 	sub	r3, fp, #28
 c10027c:	e1a00003 	mov	r0, r3
 c100280:	eb001be8 	bl	c107228 <rtc_gettime>
    		put_time_x2(rtc_time);
 c100284:	e24b301c 	sub	r3, fp, #28
 c100288:	e8930003 	ldm	r3, {r0, r1}
 c10028c:	eb000126 	bl	c10072c <put_time_x2>
    		if( flagAlarma )
 c100290:	e59f31a0 	ldr	r3, [pc, #416]	; c100438 <main+0x438>
 c100294:	e5d33000 	ldrb	r3, [r3]
 c100298:	e20330ff 	and	r3, r3, #255	; 0xff
 c10029c:	e3530000 	cmp	r3, #0
 c1002a0:	0a00000d 	beq	c1002dc <main+0x2dc>
    		{
    			if(checkAlarm(rtc_time, alarma)){
 c1002a4:	e24b301c 	sub	r3, fp, #28
 c1002a8:	e8930003 	ldm	r3, {r0, r1}
 c1002ac:	e24b3024 	sub	r3, fp, #36	; 0x24
 c1002b0:	e893000c 	ldm	r3, {r2, r3}
 c1002b4:	eb0007c2 	bl	c1021c4 <checkAlarm>
 c1002b8:	e1a03000 	mov	r3, r0
 c1002bc:	e3530000 	cmp	r3, #0
 c1002c0:	0a000005 	beq	c1002dc <main+0x2dc>
    				flagFinDeAlarma = TRUE;
 c1002c4:	e59f3170 	ldr	r3, [pc, #368]	; c10043c <main+0x43c>
 c1002c8:	e3a02001 	mov	r2, #1
 c1002cc:	e5c32000 	strb	r2, [r3]
    				flagAlarma = FALSE;
 c1002d0:	e59f3160 	ldr	r3, [pc, #352]	; c100438 <main+0x438>
 c1002d4:	e3a02000 	mov	r2, #0
 c1002d8:	e5c32000 	strb	r2, [r3]
    			}
    		}
    	}
    	if( flagUpdateSB )
 c1002dc:	e59f314c 	ldr	r3, [pc, #332]	; c100430 <main+0x430>
 c1002e0:	e5d33000 	ldrb	r3, [r3]
 c1002e4:	e20330ff 	and	r3, r3, #255	; 0xff
 c1002e8:	e3530000 	cmp	r3, #0
 c1002ec:	0a000030 	beq	c1003b4 <main+0x3b4>
    	{
    		stepsPerMinute = nStepsIn10Secs * 6;
 c1002f0:	e59f315c 	ldr	r3, [pc, #348]	; c100454 <main+0x454>
 c1002f4:	e5d33000 	ldrb	r3, [r3]
 c1002f8:	e20330ff 	and	r3, r3, #255	; 0xff
 c1002fc:	e1a02003 	mov	r2, r3
 c100300:	e1a02082 	lsl	r2, r2, #1
 c100304:	e0823003 	add	r3, r2, r3
 c100308:	e1a03083 	lsl	r3, r3, #1
 c10030c:	e1a03803 	lsl	r3, r3, #16
 c100310:	e1a03823 	lsr	r3, r3, #16
 c100314:	e14b32bc 	strh	r3, [fp, #-44]	; 0xffffffd4
    		beatsPerMinute = nBeatsIn10Secs * 6;
 c100318:	e59f3130 	ldr	r3, [pc, #304]	; c100450 <main+0x450>
 c10031c:	e5d33000 	ldrb	r3, [r3]
 c100320:	e20330ff 	and	r3, r3, #255	; 0xff
 c100324:	e1a02003 	mov	r2, r3
 c100328:	e1a02082 	lsl	r2, r2, #1
 c10032c:	e0823003 	add	r3, r2, r3
 c100330:	e1a03083 	lsl	r3, r3, #1
 c100334:	e1a03803 	lsl	r3, r3, #16
 c100338:	e1a03823 	lsr	r3, r3, #16
 c10033c:	e14b32ba 	strh	r3, [fp, #-42]	; 0xffffffd6
    		nBeatsIn10Secs = 0;
 c100340:	e59f3108 	ldr	r3, [pc, #264]	; c100450 <main+0x450>
 c100344:	e3a02000 	mov	r2, #0
 c100348:	e5c32000 	strb	r2, [r3]
    		nStepsIn10Secs = 0;
 c10034c:	e59f3100 	ldr	r3, [pc, #256]	; c100454 <main+0x454>
 c100350:	e3a02000 	mov	r2, #0
 c100354:	e5c32000 	strb	r2, [r3]
    		flagUpdateSB = FALSE;
 c100358:	e59f30d0 	ldr	r3, [pc, #208]	; c100430 <main+0x430>
 c10035c:	e3a02000 	mov	r2, #0
 c100360:	e5c32000 	strb	r2, [r3]
    		lcd_puts(0, 10, BLACK, "BPM: ");
 c100364:	e3a00000 	mov	r0, #0
 c100368:	e3a0100a 	mov	r1, #10
 c10036c:	e3a0200f 	mov	r2, #15
 c100370:	e59f30fc 	ldr	r3, [pc, #252]	; c100474 <main+0x474>
 c100374:	eb001674 	bl	c105d4c <lcd_puts>
    		lcd_putint(35, 10, BLACK, beatsPerMinute);
 c100378:	e15b32ba 	ldrh	r3, [fp, #-42]	; 0xffffffd6
 c10037c:	e3a00023 	mov	r0, #35	; 0x23
 c100380:	e3a0100a 	mov	r1, #10
 c100384:	e3a0200f 	mov	r2, #15
 c100388:	eb00168c 	bl	c105dc0 <lcd_putint>
    		lcd_puts(65, 10, BLACK, "SPM: ");
 c10038c:	e3a00041 	mov	r0, #65	; 0x41
 c100390:	e3a0100a 	mov	r1, #10
 c100394:	e3a0200f 	mov	r2, #15
 c100398:	e59f30d8 	ldr	r3, [pc, #216]	; c100478 <main+0x478>
 c10039c:	eb00166a 	bl	c105d4c <lcd_puts>
    		lcd_putint(100, 10, BLACK, stepsPerMinute);
 c1003a0:	e15b32bc 	ldrh	r3, [fp, #-44]	; 0xffffffd4
 c1003a4:	e3a00064 	mov	r0, #100	; 0x64
 c1003a8:	e3a0100a 	mov	r1, #10
 c1003ac:	e3a0200f 	mov	r2, #15
 c1003b0:	eb001682 	bl	c105dc0 <lcd_putint>

    	}
    	if( flagFinDeAlarma )
 c1003b4:	e59f3080 	ldr	r3, [pc, #128]	; c10043c <main+0x43c>
 c1003b8:	e5d33000 	ldrb	r3, [r3]
 c1003bc:	e20330ff 	and	r3, r3, #255	; 0xff
 c1003c0:	e3530000 	cmp	r3, #0
 c1003c4:	0a000005 	beq	c1003e0 <main+0x3e0>
    	{
    		flagFinDeAlarma = FALSE;
 c1003c8:	e59f306c 	ldr	r3, [pc, #108]	; c10043c <main+0x43c>
 c1003cc:	e3a02000 	mov	r2, #0
 c1003d0:	e5c32000 	strb	r2, [r3]
    		activaAlertaAlarma(alarma);
 c1003d4:	e24b3024 	sub	r3, fp, #36	; 0x24
 c1003d8:	e8930003 	ldm	r3, {r0, r1}
 c1003dc:	eb000731 	bl	c1020a8 <activaAlertaAlarma>
    	}
    	if( flagCheckPulsaciones )
 c1003e0:	e59f3060 	ldr	r3, [pc, #96]	; c100448 <main+0x448>
 c1003e4:	e5d33000 	ldrb	r3, [r3]
 c1003e8:	e20330ff 	and	r3, r3, #255	; 0xff
 c1003ec:	e3530000 	cmp	r3, #0
 c1003f0:	0a000008 	beq	c100418 <main+0x418>
    	{
    		if(beatsPerMinute > MAX_PULSACIONES)
 c1003f4:	e15b32ba 	ldrh	r3, [fp, #-42]	; 0xffffffd6
 c1003f8:	e35300c8 	cmp	r3, #200	; 0xc8
 c1003fc:	9a000002 	bls	c10040c <main+0x40c>
    		{
    			alertaPulsaciones(beatsPerMinute);
 c100400:	e15b32ba 	ldrh	r3, [fp, #-42]	; 0xffffffd6
 c100404:	e1a00003 	mov	r0, r3
 c100408:	eb000680 	bl	c101e10 <alertaPulsaciones>
    		}
    		flagCheckPulsaciones = FALSE;
 c10040c:	e59f3034 	ldr	r3, [pc, #52]	; c100448 <main+0x448>
 c100410:	e3a02000 	mov	r2, #0
 c100414:	e5c32000 	strb	r2, [r3]
    	}
    	pintaMenu(rtc_time, &alarma, &distanciaPaso);
 c100418:	e24b2024 	sub	r2, fp, #36	; 0x24
 c10041c:	e24b3028 	sub	r3, fp, #40	; 0x28
 c100420:	e24b101c 	sub	r1, fp, #28
 c100424:	e8910003 	ldm	r1, {r0, r1}
 c100428:	eb00010b 	bl	c10085c <pintaMenu>

    };
 c10042c:	eaffff6f 	b	c1001f0 <main+0x1f0>
 c100430:	0c117a7d 	.word	0x0c117a7d
 c100434:	0c117a77 	.word	0x0c117a77
 c100438:	0c117a75 	.word	0x0c117a75
 c10043c:	0c117a76 	.word	0x0c117a76
 c100440:	0c117a79 	.word	0x0c117a79
 c100444:	0c117a7c 	.word	0x0c117a7c
 c100448:	0c117a7b 	.word	0x0c117a7b
 c10044c:	0c10c0c0 	.word	0x0c10c0c0
 c100450:	0c117a7a 	.word	0x0c117a7a
 c100454:	0c117a78 	.word	0x0c117a78
 c100458:	0c101f94 	.word	0x0c101f94
 c10045c:	0c1022f8 	.word	0x0c1022f8
 c100460:	0c102338 	.word	0x0c102338
 c100464:	0c101ea4 	.word	0x0c101ea4
 c100468:	0c101f1c 	.word	0x0c101f1c
 c10046c:	0c117614 	.word	0x0c117614
 c100470:	0c117615 	.word	0x0c117615
 c100474:	0c10c0cc 	.word	0x0c10c0cc
 c100478:	0c10c0d4 	.word	0x0c10c0d4

0c10047c <minijuego>:
}
void minijuego ( rtc_time_t rtc_time )
{
 c10047c:	e1a0c00d 	mov	ip, sp
 c100480:	e92dd800 	push	{fp, ip, lr, pc}
 c100484:	e24cb004 	sub	fp, ip, #4
 c100488:	e24dd010 	sub	sp, sp, #16
 c10048c:	e24b301c 	sub	r3, fp, #28
 c100490:	e8830003 	stm	r3, {r0, r1}
    lcd_clear();
 c100494:	eb001429 	bl	c105540 <lcd_clear>
    uint8 random1 = rtc_time.hour % 16;
 c100498:	e55b301a 	ldrb	r3, [fp, #-26]	; 0xffffffe6
 c10049c:	e203300f 	and	r3, r3, #15
 c1004a0:	e54b300f 	strb	r3, [fp, #-15]
    uint8 random2 = rtc_time.min % 16;
 c1004a4:	e55b301b 	ldrb	r3, [fp, #-27]	; 0xffffffe5
 c1004a8:	e203300f 	and	r3, r3, #15
 c1004ac:	e54b3010 	strb	r3, [fp, #-16]
    uint8 random3 = rtc_time.sec % 16;
 c1004b0:	e55b301c 	ldrb	r3, [fp, #-28]	; 0xffffffe4
 c1004b4:	e203300f 	and	r3, r3, #15
 c1004b8:	e54b3011 	strb	r3, [fp, #-17]	; 0xffffffef
    boolean fin_partida = FALSE;
 c1004bc:	e3a03000 	mov	r3, #0
 c1004c0:	e54b300d 	strb	r3, [fp, #-13]
    segs_init();
 c1004c4:	eb001ca3 	bl	c107758 <segs_init>
    segs_putchar(random1);
 c1004c8:	e55b300f 	ldrb	r3, [fp, #-15]
 c1004cc:	e1a00003 	mov	r0, r3
 c1004d0:	eb001cbd 	bl	c1077cc <segs_putchar>
    lcd_puts(61, 110, BLACK, "Pulse la tecla indicada ");
 c1004d4:	e3a0003d 	mov	r0, #61	; 0x3d
 c1004d8:	e3a0106e 	mov	r1, #110	; 0x6e
 c1004dc:	e3a0200f 	mov	r2, #15
 c1004e0:	e59f3234 	ldr	r3, [pc, #564]	; c10071c <minijuego+0x2a0>
 c1004e4:	eb001618 	bl	c105d4c <lcd_puts>
    lcd_puts(85, 126, BLACK, "en el 7 segmentos ");    uint8 respuesta = KEYPAD_FAILURE;
 c1004e8:	e3a00055 	mov	r0, #85	; 0x55
 c1004ec:	e3a0107e 	mov	r1, #126	; 0x7e
 c1004f0:	e3a0200f 	mov	r2, #15
 c1004f4:	e59f3224 	ldr	r3, [pc, #548]	; c100720 <minijuego+0x2a4>
 c1004f8:	eb001613 	bl	c105d4c <lcd_puts>
 c1004fc:	e3e03000 	mvn	r3, #0
 c100500:	e54b300e 	strb	r3, [fp, #-14]
    while(respuesta == KEYPAD_FAILURE){
 c100504:	ea000002 	b	c100514 <minijuego+0x98>
        respuesta = keypad_getchar();
 c100508:	eb00135b 	bl	c10527c <keypad_getchar>
 c10050c:	e1a03000 	mov	r3, r0
 c100510:	e54b300e 	strb	r3, [fp, #-14]
    boolean fin_partida = FALSE;
    segs_init();
    segs_putchar(random1);
    lcd_puts(61, 110, BLACK, "Pulse la tecla indicada ");
    lcd_puts(85, 126, BLACK, "en el 7 segmentos ");    uint8 respuesta = KEYPAD_FAILURE;
    while(respuesta == KEYPAD_FAILURE){
 c100514:	e55b300e 	ldrb	r3, [fp, #-14]
 c100518:	e35300ff 	cmp	r3, #255	; 0xff
 c10051c:	0afffff9 	beq	c100508 <minijuego+0x8c>
        respuesta = keypad_getchar();
    }
    if(respuesta != random1){
 c100520:	e55b200e 	ldrb	r2, [fp, #-14]
 c100524:	e55b300f 	ldrb	r3, [fp, #-15]
 c100528:	e1520003 	cmp	r2, r3
 c10052c:	0a000011 	beq	c100578 <minijuego+0xfc>
        fin_partida = TRUE;
 c100530:	e3a03001 	mov	r3, #1
 c100534:	e54b300d 	strb	r3, [fp, #-13]
        segs_off();
 c100538:	eb001c95 	bl	c107794 <segs_off>
        lcd_puts(61, 110, WHITE, "Pulse la tecla indicada ");
 c10053c:	e3a0003d 	mov	r0, #61	; 0x3d
 c100540:	e3a0106e 	mov	r1, #110	; 0x6e
 c100544:	e3a02000 	mov	r2, #0
 c100548:	e59f31cc 	ldr	r3, [pc, #460]	; c10071c <minijuego+0x2a0>
 c10054c:	eb0015fe 	bl	c105d4c <lcd_puts>
        lcd_puts(85, 126, WHITE, "en el 7 segmentos ");
 c100550:	e3a00055 	mov	r0, #85	; 0x55
 c100554:	e3a0107e 	mov	r1, #126	; 0x7e
 c100558:	e3a02000 	mov	r2, #0
 c10055c:	e59f31bc 	ldr	r3, [pc, #444]	; c100720 <minijuego+0x2a4>
 c100560:	eb0015f9 	bl	c105d4c <lcd_puts>
        lcd_puts_x2(61, 110, BLACK, "Has perdido!");
 c100564:	e3a0003d 	mov	r0, #61	; 0x3d
 c100568:	e3a0106e 	mov	r1, #110	; 0x6e
 c10056c:	e3a0200f 	mov	r2, #15
 c100570:	e59f31ac 	ldr	r3, [pc, #428]	; c100724 <minijuego+0x2a8>
 c100574:	eb00174b 	bl	c1062a8 <lcd_puts_x2>
    }
    segs_putchar(random2);
 c100578:	e55b3010 	ldrb	r3, [fp, #-16]
 c10057c:	e1a00003 	mov	r0, r3
 c100580:	eb001c91 	bl	c1077cc <segs_putchar>
    respuesta = KEYPAD_FAILURE;
 c100584:	e3e03000 	mvn	r3, #0
 c100588:	e54b300e 	strb	r3, [fp, #-14]
    while(respuesta == KEYPAD_FAILURE && !fin_partida){
 c10058c:	ea000002 	b	c10059c <minijuego+0x120>
        respuesta = keypad_getchar();
 c100590:	eb001339 	bl	c10527c <keypad_getchar>
 c100594:	e1a03000 	mov	r3, r0
 c100598:	e54b300e 	strb	r3, [fp, #-14]
        lcd_puts(85, 126, WHITE, "en el 7 segmentos ");
        lcd_puts_x2(61, 110, BLACK, "Has perdido!");
    }
    segs_putchar(random2);
    respuesta = KEYPAD_FAILURE;
    while(respuesta == KEYPAD_FAILURE && !fin_partida){
 c10059c:	e55b300e 	ldrb	r3, [fp, #-14]
 c1005a0:	e35300ff 	cmp	r3, #255	; 0xff
 c1005a4:	1a000002 	bne	c1005b4 <minijuego+0x138>
 c1005a8:	e55b300d 	ldrb	r3, [fp, #-13]
 c1005ac:	e3530000 	cmp	r3, #0
 c1005b0:	0afffff6 	beq	c100590 <minijuego+0x114>
        respuesta = keypad_getchar();
    }
    if(respuesta != random2 || fin_partida){
 c1005b4:	e55b200e 	ldrb	r2, [fp, #-14]
 c1005b8:	e55b3010 	ldrb	r3, [fp, #-16]
 c1005bc:	e1520003 	cmp	r2, r3
 c1005c0:	1a000002 	bne	c1005d0 <minijuego+0x154>
 c1005c4:	e55b300d 	ldrb	r3, [fp, #-13]
 c1005c8:	e3530000 	cmp	r3, #0
 c1005cc:	0a000011 	beq	c100618 <minijuego+0x19c>
        fin_partida = TRUE;
 c1005d0:	e3a03001 	mov	r3, #1
 c1005d4:	e54b300d 	strb	r3, [fp, #-13]
        segs_off();
 c1005d8:	eb001c6d 	bl	c107794 <segs_off>
        lcd_puts(61, 110, WHITE, "Pulse la tecla indicada ");
 c1005dc:	e3a0003d 	mov	r0, #61	; 0x3d
 c1005e0:	e3a0106e 	mov	r1, #110	; 0x6e
 c1005e4:	e3a02000 	mov	r2, #0
 c1005e8:	e59f312c 	ldr	r3, [pc, #300]	; c10071c <minijuego+0x2a0>
 c1005ec:	eb0015d6 	bl	c105d4c <lcd_puts>
        lcd_puts(85, 126, WHITE, "en el 7 segmentos ");
 c1005f0:	e3a00055 	mov	r0, #85	; 0x55
 c1005f4:	e3a0107e 	mov	r1, #126	; 0x7e
 c1005f8:	e3a02000 	mov	r2, #0
 c1005fc:	e59f311c 	ldr	r3, [pc, #284]	; c100720 <minijuego+0x2a4>
 c100600:	eb0015d1 	bl	c105d4c <lcd_puts>
        lcd_puts_x2(61, 110, BLACK, "Has perdido!");
 c100604:	e3a0003d 	mov	r0, #61	; 0x3d
 c100608:	e3a0106e 	mov	r1, #110	; 0x6e
 c10060c:	e3a0200f 	mov	r2, #15
 c100610:	e59f310c 	ldr	r3, [pc, #268]	; c100724 <minijuego+0x2a8>
 c100614:	eb001723 	bl	c1062a8 <lcd_puts_x2>
    }
    segs_putchar(random3);
 c100618:	e55b3011 	ldrb	r3, [fp, #-17]	; 0xffffffef
 c10061c:	e1a00003 	mov	r0, r3
 c100620:	eb001c69 	bl	c1077cc <segs_putchar>
    respuesta = KEYPAD_FAILURE;
 c100624:	e3e03000 	mvn	r3, #0
 c100628:	e54b300e 	strb	r3, [fp, #-14]
    while(respuesta == KEYPAD_FAILURE && !fin_partida){
 c10062c:	ea000002 	b	c10063c <minijuego+0x1c0>
        respuesta = keypad_getchar();
 c100630:	eb001311 	bl	c10527c <keypad_getchar>
 c100634:	e1a03000 	mov	r3, r0
 c100638:	e54b300e 	strb	r3, [fp, #-14]
        lcd_puts(85, 126, WHITE, "en el 7 segmentos ");
        lcd_puts_x2(61, 110, BLACK, "Has perdido!");
    }
    segs_putchar(random3);
    respuesta = KEYPAD_FAILURE;
    while(respuesta == KEYPAD_FAILURE && !fin_partida){
 c10063c:	e55b300e 	ldrb	r3, [fp, #-14]
 c100640:	e35300ff 	cmp	r3, #255	; 0xff
 c100644:	1a000002 	bne	c100654 <minijuego+0x1d8>
 c100648:	e55b300d 	ldrb	r3, [fp, #-13]
 c10064c:	e3530000 	cmp	r3, #0
 c100650:	0afffff6 	beq	c100630 <minijuego+0x1b4>
        respuesta = keypad_getchar();
    }
    if(respuesta != random3 || fin_partida){
 c100654:	e55b200e 	ldrb	r2, [fp, #-14]
 c100658:	e55b3011 	ldrb	r3, [fp, #-17]	; 0xffffffef
 c10065c:	e1520003 	cmp	r2, r3
 c100660:	1a000002 	bne	c100670 <minijuego+0x1f4>
 c100664:	e55b300d 	ldrb	r3, [fp, #-13]
 c100668:	e3530000 	cmp	r3, #0
 c10066c:	0a000011 	beq	c1006b8 <minijuego+0x23c>
        fin_partida = TRUE;
 c100670:	e3a03001 	mov	r3, #1
 c100674:	e54b300d 	strb	r3, [fp, #-13]
        segs_off();
 c100678:	eb001c45 	bl	c107794 <segs_off>
        lcd_puts(61, 110, WHITE, "Pulse la tecla indicada ");
 c10067c:	e3a0003d 	mov	r0, #61	; 0x3d
 c100680:	e3a0106e 	mov	r1, #110	; 0x6e
 c100684:	e3a02000 	mov	r2, #0
 c100688:	e59f308c 	ldr	r3, [pc, #140]	; c10071c <minijuego+0x2a0>
 c10068c:	eb0015ae 	bl	c105d4c <lcd_puts>
        lcd_puts(85, 126, WHITE, "en el 7 segmentos ");
 c100690:	e3a00055 	mov	r0, #85	; 0x55
 c100694:	e3a0107e 	mov	r1, #126	; 0x7e
 c100698:	e3a02000 	mov	r2, #0
 c10069c:	e59f307c 	ldr	r3, [pc, #124]	; c100720 <minijuego+0x2a4>
 c1006a0:	eb0015a9 	bl	c105d4c <lcd_puts>
        lcd_puts_x2(61, 110, BLACK, "Has perdido!");
 c1006a4:	e3a0003d 	mov	r0, #61	; 0x3d
 c1006a8:	e3a0106e 	mov	r1, #110	; 0x6e
 c1006ac:	e3a0200f 	mov	r2, #15
 c1006b0:	e59f306c 	ldr	r3, [pc, #108]	; c100724 <minijuego+0x2a8>
 c1006b4:	eb0016fb 	bl	c1062a8 <lcd_puts_x2>
    }
    if(!fin_partida){
 c1006b8:	e55b300d 	ldrb	r3, [fp, #-13]
 c1006bc:	e3530000 	cmp	r3, #0
 c1006c0:	1a00000e 	bne	c100700 <minijuego+0x284>
    	lcd_puts(61, 110, WHITE, "Pulse la tecla indicada ");
 c1006c4:	e3a0003d 	mov	r0, #61	; 0x3d
 c1006c8:	e3a0106e 	mov	r1, #110	; 0x6e
 c1006cc:	e3a02000 	mov	r2, #0
 c1006d0:	e59f3044 	ldr	r3, [pc, #68]	; c10071c <minijuego+0x2a0>
 c1006d4:	eb00159c 	bl	c105d4c <lcd_puts>
    	lcd_puts(85, 126, WHITE, "en el 7 segmentos ");
 c1006d8:	e3a00055 	mov	r0, #85	; 0x55
 c1006dc:	e3a0107e 	mov	r1, #126	; 0x7e
 c1006e0:	e3a02000 	mov	r2, #0
 c1006e4:	e59f3034 	ldr	r3, [pc, #52]	; c100720 <minijuego+0x2a4>
 c1006e8:	eb001597 	bl	c105d4c <lcd_puts>
    	lcd_puts_x2(61, 110, BLACK, "Has ganado!");
 c1006ec:	e3a0003d 	mov	r0, #61	; 0x3d
 c1006f0:	e3a0106e 	mov	r1, #110	; 0x6e
 c1006f4:	e3a0200f 	mov	r2, #15
 c1006f8:	e59f3028 	ldr	r3, [pc, #40]	; c100728 <minijuego+0x2ac>
 c1006fc:	eb0016e9 	bl	c1062a8 <lcd_puts_x2>
    }
    sw_delay_s(3);
 c100700:	e3a00003 	mov	r0, #3
 c100704:	eb00235d 	bl	c109480 <sw_delay_s>

    lcd_clear();
 c100708:	eb00138c 	bl	c105540 <lcd_clear>
    segs_off();
 c10070c:	eb001c20 	bl	c107794 <segs_off>
}
 c100710:	e24bd00c 	sub	sp, fp, #12
 c100714:	e89d6800 	ldm	sp, {fp, sp, lr}
 c100718:	e12fff1e 	bx	lr
 c10071c:	0c10c0dc 	.word	0x0c10c0dc
 c100720:	0c10c0f8 	.word	0x0c10c0f8
 c100724:	0c10c10c 	.word	0x0c10c10c
 c100728:	0c10c11c 	.word	0x0c10c11c

0c10072c <put_time_x2>:

void put_time_x2 ( rtc_time_t rtc_time)
{
 c10072c:	e1a0c00d 	mov	ip, sp
 c100730:	e92dd800 	push	{fp, ip, lr, pc}
 c100734:	e24cb004 	sub	fp, ip, #4
 c100738:	e24dd008 	sub	sp, sp, #8
 c10073c:	e24b3014 	sub	r3, fp, #20
 c100740:	e8830003 	stm	r3, {r0, r1}
	if(rtc_time.hour < 10){
 c100744:	e55b3012 	ldrb	r3, [fp, #-18]	; 0xffffffee
 c100748:	e3530009 	cmp	r3, #9
 c10074c:	8a00000a 	bhi	c10077c <put_time_x2+0x50>
		lcd_putint_x2(100, 110, BLACK, 0);
 c100750:	e3a00064 	mov	r0, #100	; 0x64
 c100754:	e3a0106e 	mov	r1, #110	; 0x6e
 c100758:	e3a0200f 	mov	r2, #15
 c10075c:	e3a03000 	mov	r3, #0
 c100760:	eb0016ed 	bl	c10631c <lcd_putint_x2>
		lcd_putint_x2(116, 110, BLACK, rtc_time.hour);
 c100764:	e55b3012 	ldrb	r3, [fp, #-18]	; 0xffffffee
 c100768:	e3a00074 	mov	r0, #116	; 0x74
 c10076c:	e3a0106e 	mov	r1, #110	; 0x6e
 c100770:	e3a0200f 	mov	r2, #15
 c100774:	eb0016e8 	bl	c10631c <lcd_putint_x2>
 c100778:	ea000004 	b	c100790 <put_time_x2+0x64>
	}
	else{
		lcd_putint_x2(100, 110, BLACK, rtc_time.hour);
 c10077c:	e55b3012 	ldrb	r3, [fp, #-18]	; 0xffffffee
 c100780:	e3a00064 	mov	r0, #100	; 0x64
 c100784:	e3a0106e 	mov	r1, #110	; 0x6e
 c100788:	e3a0200f 	mov	r2, #15
 c10078c:	eb0016e2 	bl	c10631c <lcd_putint_x2>
	}

	lcd_putchar_x2(129, 110, BLACK, ':');
 c100790:	e3a00081 	mov	r0, #129	; 0x81
 c100794:	e3a0106e 	mov	r1, #110	; 0x6e
 c100798:	e3a0200f 	mov	r2, #15
 c10079c:	e3a0303a 	mov	r3, #58	; 0x3a
 c1007a0:	eb00161d 	bl	c10601c <lcd_putchar_x2>
	if(rtc_time.min < 10){
 c1007a4:	e55b3013 	ldrb	r3, [fp, #-19]	; 0xffffffed
 c1007a8:	e3530009 	cmp	r3, #9
 c1007ac:	8a00000a 	bhi	c1007dc <put_time_x2+0xb0>
		lcd_putint_x2(145, 110, BLACK, 0);
 c1007b0:	e3a00091 	mov	r0, #145	; 0x91
 c1007b4:	e3a0106e 	mov	r1, #110	; 0x6e
 c1007b8:	e3a0200f 	mov	r2, #15
 c1007bc:	e3a03000 	mov	r3, #0
 c1007c0:	eb0016d5 	bl	c10631c <lcd_putint_x2>
		lcd_putint_x2(161, 110, BLACK, rtc_time.min);
 c1007c4:	e55b3013 	ldrb	r3, [fp, #-19]	; 0xffffffed
 c1007c8:	e3a000a1 	mov	r0, #161	; 0xa1
 c1007cc:	e3a0106e 	mov	r1, #110	; 0x6e
 c1007d0:	e3a0200f 	mov	r2, #15
 c1007d4:	eb0016d0 	bl	c10631c <lcd_putint_x2>
 c1007d8:	ea000004 	b	c1007f0 <put_time_x2+0xc4>
	}
	else{
		lcd_putint_x2(145, 110, BLACK, rtc_time.min);
 c1007dc:	e55b3013 	ldrb	r3, [fp, #-19]	; 0xffffffed
 c1007e0:	e3a00091 	mov	r0, #145	; 0x91
 c1007e4:	e3a0106e 	mov	r1, #110	; 0x6e
 c1007e8:	e3a0200f 	mov	r2, #15
 c1007ec:	eb0016ca 	bl	c10631c <lcd_putint_x2>
	}
	lcd_putchar_x2(174, 110, BLACK, ':');
 c1007f0:	e3a000ae 	mov	r0, #174	; 0xae
 c1007f4:	e3a0106e 	mov	r1, #110	; 0x6e
 c1007f8:	e3a0200f 	mov	r2, #15
 c1007fc:	e3a0303a 	mov	r3, #58	; 0x3a
 c100800:	eb001605 	bl	c10601c <lcd_putchar_x2>
	if(rtc_time.sec < 10){
 c100804:	e55b3014 	ldrb	r3, [fp, #-20]	; 0xffffffec
 c100808:	e3530009 	cmp	r3, #9
 c10080c:	8a00000a 	bhi	c10083c <put_time_x2+0x110>
		lcd_putint_x2(190, 110, BLACK, 0);
 c100810:	e3a000be 	mov	r0, #190	; 0xbe
 c100814:	e3a0106e 	mov	r1, #110	; 0x6e
 c100818:	e3a0200f 	mov	r2, #15
 c10081c:	e3a03000 	mov	r3, #0
 c100820:	eb0016bd 	bl	c10631c <lcd_putint_x2>
		lcd_putint_x2(206, 110, BLACK, rtc_time.sec);
 c100824:	e55b3014 	ldrb	r3, [fp, #-20]	; 0xffffffec
 c100828:	e3a000ce 	mov	r0, #206	; 0xce
 c10082c:	e3a0106e 	mov	r1, #110	; 0x6e
 c100830:	e3a0200f 	mov	r2, #15
 c100834:	eb0016b8 	bl	c10631c <lcd_putint_x2>
 c100838:	ea000004 	b	c100850 <put_time_x2+0x124>
	}
	else{
		lcd_putint_x2(190, 110, BLACK, rtc_time.sec);
 c10083c:	e55b3014 	ldrb	r3, [fp, #-20]	; 0xffffffec
 c100840:	e3a000be 	mov	r0, #190	; 0xbe
 c100844:	e3a0106e 	mov	r1, #110	; 0x6e
 c100848:	e3a0200f 	mov	r2, #15
 c10084c:	eb0016b2 	bl	c10631c <lcd_putint_x2>
	}
}
 c100850:	e24bd00c 	sub	sp, fp, #12
 c100854:	e89d6800 	ldm	sp, {fp, sp, lr}
 c100858:	e12fff1e 	bx	lr

0c10085c <pintaMenu>:

void pintaMenu ( rtc_time_t rtc_time, rtc_time_t *alarma, ufix32 *distanciaPasos )
{
 c10085c:	e1a0c00d 	mov	ip, sp
 c100860:	e92dd800 	push	{fp, ip, lr, pc}
 c100864:	e24cb004 	sub	fp, ip, #4
 c100868:	e24dd028 	sub	sp, sp, #40	; 0x28
 c10086c:	e24bc024 	sub	ip, fp, #36	; 0x24
 c100870:	e88c0003 	stm	ip, {r0, r1}
 c100874:	e50b2028 	str	r2, [fp, #-40]	; 0xffffffd8
 c100878:	e50b302c 	str	r3, [fp, #-44]	; 0xffffffd4
	lcd_draw_box(20 ,40, 135, 100, BLACK, 3); //alarma
 c10087c:	e3a0300f 	mov	r3, #15
 c100880:	e58d3000 	str	r3, [sp]
 c100884:	e3a03003 	mov	r3, #3
 c100888:	e58d3004 	str	r3, [sp, #4]
 c10088c:	e3a00014 	mov	r0, #20
 c100890:	e3a01028 	mov	r1, #40	; 0x28
 c100894:	e3a02087 	mov	r2, #135	; 0x87
 c100898:	e3a03064 	mov	r3, #100	; 0x64
 c10089c:	eb00144d 	bl	c1059d8 <lcd_draw_box>
	lcd_puts_x2(30, 56, BLACK, "ALARMA");
 c1008a0:	e3a0001e 	mov	r0, #30
 c1008a4:	e3a01038 	mov	r1, #56	; 0x38
 c1008a8:	e3a0200f 	mov	r2, #15
 c1008ac:	e59f3328 	ldr	r3, [pc, #808]	; c100bdc <pintaMenu+0x380>
 c1008b0:	eb00167c 	bl	c1062a8 <lcd_puts_x2>
	lcd_draw_box(20 ,150, 135, 210, BLACK, 3); //distancia pasos
 c1008b4:	e3a0300f 	mov	r3, #15
 c1008b8:	e58d3000 	str	r3, [sp]
 c1008bc:	e3a03003 	mov	r3, #3
 c1008c0:	e58d3004 	str	r3, [sp, #4]
 c1008c4:	e3a00014 	mov	r0, #20
 c1008c8:	e3a01096 	mov	r1, #150	; 0x96
 c1008cc:	e3a02087 	mov	r2, #135	; 0x87
 c1008d0:	e3a030d2 	mov	r3, #210	; 0xd2
 c1008d4:	eb00143f 	bl	c1059d8 <lcd_draw_box>
	lcd_puts(44, 166, BLACK, "DISTANCIA");
 c1008d8:	e3a0002c 	mov	r0, #44	; 0x2c
 c1008dc:	e3a010a6 	mov	r1, #166	; 0xa6
 c1008e0:	e3a0200f 	mov	r2, #15
 c1008e4:	e59f32f4 	ldr	r3, [pc, #756]	; c100be0 <pintaMenu+0x384>
 c1008e8:	eb001517 	bl	c105d4c <lcd_puts>
	lcd_puts(59, 183, BLACK, "PASOS");
 c1008ec:	e3a0003b 	mov	r0, #59	; 0x3b
 c1008f0:	e3a010b7 	mov	r1, #183	; 0xb7
 c1008f4:	e3a0200f 	mov	r2, #15
 c1008f8:	e59f32e4 	ldr	r3, [pc, #740]	; c100be4 <pintaMenu+0x388>
 c1008fc:	eb001512 	bl	c105d4c <lcd_puts>
	lcd_draw_box(184 ,150, 299, 210, BLACK, 3); //valor alarma
 c100900:	e3a0300f 	mov	r3, #15
 c100904:	e58d3000 	str	r3, [sp]
 c100908:	e3a03003 	mov	r3, #3
 c10090c:	e58d3004 	str	r3, [sp, #4]
 c100910:	e3a000b8 	mov	r0, #184	; 0xb8
 c100914:	e3a01096 	mov	r1, #150	; 0x96
 c100918:	e59f22c8 	ldr	r2, [pc, #712]	; c100be8 <pintaMenu+0x38c>
 c10091c:	e3a030d2 	mov	r3, #210	; 0xd2
 c100920:	eb00142c 	bl	c1059d8 <lcd_draw_box>
	lcd_puts(205, 156, BLACK, "ALARMA");
 c100924:	e3a000cd 	mov	r0, #205	; 0xcd
 c100928:	e3a0109c 	mov	r1, #156	; 0x9c
 c10092c:	e3a0200f 	mov	r2, #15
 c100930:	e59f32a4 	ldr	r3, [pc, #676]	; c100bdc <pintaMenu+0x380>
 c100934:	eb001504 	bl	c105d4c <lcd_puts>
	pinta_alarma(*alarma);
 c100938:	e51b3028 	ldr	r3, [fp, #-40]	; 0xffffffd8
 c10093c:	e5d32000 	ldrb	r2, [r3]
 c100940:	e5d31001 	ldrb	r1, [r3, #1]
 c100944:	e1a01401 	lsl	r1, r1, #8
 c100948:	e1812002 	orr	r2, r1, r2
 c10094c:	e5d31002 	ldrb	r1, [r3, #2]
 c100950:	e1a01801 	lsl	r1, r1, #16
 c100954:	e1812002 	orr	r2, r1, r2
 c100958:	e5d31003 	ldrb	r1, [r3, #3]
 c10095c:	e1a01c01 	lsl	r1, r1, #24
 c100960:	e1811002 	orr	r1, r1, r2
 c100964:	e3a02000 	mov	r2, #0
 c100968:	e1a02001 	mov	r2, r1
 c10096c:	e5d31004 	ldrb	r1, [r3, #4]
 c100970:	e5d30005 	ldrb	r0, [r3, #5]
 c100974:	e1a00400 	lsl	r0, r0, #8
 c100978:	e1801001 	orr	r1, r0, r1
 c10097c:	e5d33006 	ldrb	r3, [r3, #6]
 c100980:	e1a03803 	lsl	r3, r3, #16
 c100984:	e1831001 	orr	r1, r3, r1
 c100988:	e3a03000 	mov	r3, #0
 c10098c:	e3c114ff 	bic	r1, r1, #-16777216	; 0xff000000
 c100990:	e20334ff 	and	r3, r3, #-16777216	; 0xff000000
 c100994:	e1813003 	orr	r3, r1, r3
 c100998:	e1a00002 	mov	r0, r2
 c10099c:	e1a01003 	mov	r1, r3
 c1009a0:	eb000388 	bl	c1017c8 <pinta_alarma>
	lcd_draw_box(184 ,40, 299, 100, BLACK, 3); //minijuego
 c1009a4:	e3a0300f 	mov	r3, #15
 c1009a8:	e58d3000 	str	r3, [sp]
 c1009ac:	e3a03003 	mov	r3, #3
 c1009b0:	e58d3004 	str	r3, [sp, #4]
 c1009b4:	e3a000b8 	mov	r0, #184	; 0xb8
 c1009b8:	e3a01028 	mov	r1, #40	; 0x28
 c1009bc:	e59f2224 	ldr	r2, [pc, #548]	; c100be8 <pintaMenu+0x38c>
 c1009c0:	e3a03064 	mov	r3, #100	; 0x64
 c1009c4:	eb001403 	bl	c1059d8 <lcd_draw_box>
	lcd_puts(210, 62, BLACK, "MINIGAME");
 c1009c8:	e3a000d2 	mov	r0, #210	; 0xd2
 c1009cc:	e3a0103e 	mov	r1, #62	; 0x3e
 c1009d0:	e3a0200f 	mov	r2, #15
 c1009d4:	e59f3210 	ldr	r3, [pc, #528]	; c100bec <pintaMenu+0x390>
 c1009d8:	eb0014db 	bl	c105d4c <lcd_puts>


	uint16 x, y;
	if(flagTS){
 c1009dc:	e59f320c 	ldr	r3, [pc, #524]	; c100bf0 <pintaMenu+0x394>
 c1009e0:	e5d33000 	ldrb	r3, [r3]
 c1009e4:	e20330ff 	and	r3, r3, #255	; 0xff
 c1009e8:	e3530000 	cmp	r3, #0
 c1009ec:	0a000077 	beq	c100bd0 <pintaMenu+0x374>
		ts_getpos(&x, &y);
 c1009f0:	e24b200e 	sub	r2, fp, #14
 c1009f4:	e24b3010 	sub	r3, fp, #16
 c1009f8:	e1a00002 	mov	r0, r2
 c1009fc:	e1a01003 	mov	r1, r3
 c100a00:	eb0026d4 	bl	c10a558 <ts_getpos>
		if(x >= 20 && x <= 135 && y >= 40 && y <= 100){ //alarma
 c100a04:	e15b30be 	ldrh	r3, [fp, #-14]
 c100a08:	e3530013 	cmp	r3, #19
 c100a0c:	9a000014 	bls	c100a64 <pintaMenu+0x208>
 c100a10:	e15b30be 	ldrh	r3, [fp, #-14]
 c100a14:	e3530087 	cmp	r3, #135	; 0x87
 c100a18:	8a000011 	bhi	c100a64 <pintaMenu+0x208>
 c100a1c:	e15b31b0 	ldrh	r3, [fp, #-16]
 c100a20:	e3530027 	cmp	r3, #39	; 0x27
 c100a24:	9a00000e 	bls	c100a64 <pintaMenu+0x208>
 c100a28:	e15b31b0 	ldrh	r3, [fp, #-16]
 c100a2c:	e3530064 	cmp	r3, #100	; 0x64
 c100a30:	8a00000b 	bhi	c100a64 <pintaMenu+0x208>
			rtc_time_t a = menuAlarma();
 c100a34:	e24b3018 	sub	r3, fp, #24
 c100a38:	e1a00003 	mov	r0, r3
 c100a3c:	eb000141 	bl	c100f48 <menuAlarma>
			*alarma = a;
 c100a40:	e51b3028 	ldr	r3, [fp, #-40]	; 0xffffffd8
 c100a44:	e1a01003 	mov	r1, r3
 c100a48:	e24b2018 	sub	r2, fp, #24
 c100a4c:	e3a03007 	mov	r3, #7
 c100a50:	e1a00001 	mov	r0, r1
 c100a54:	e1a01002 	mov	r1, r2
 c100a58:	e1a02003 	mov	r2, r3
 c100a5c:	eb000a59 	bl	c1033c8 <memcpy>


	uint16 x, y;
	if(flagTS){
		ts_getpos(&x, &y);
		if(x >= 20 && x <= 135 && y >= 40 && y <= 100){ //alarma
 c100a60:	ea000057 	b	c100bc4 <pintaMenu+0x368>
			rtc_time_t a = menuAlarma();
			*alarma = a;
		}
		else if(x >= 20 && x <= 135 && y >= 150 && y <= 210){ //distancia pasos
 c100a64:	e15b30be 	ldrh	r3, [fp, #-14]
 c100a68:	e3530013 	cmp	r3, #19
 c100a6c:	9a00000b 	bls	c100aa0 <pintaMenu+0x244>
 c100a70:	e15b30be 	ldrh	r3, [fp, #-14]
 c100a74:	e3530087 	cmp	r3, #135	; 0x87
 c100a78:	8a000008 	bhi	c100aa0 <pintaMenu+0x244>
 c100a7c:	e15b31b0 	ldrh	r3, [fp, #-16]
 c100a80:	e3530095 	cmp	r3, #149	; 0x95
 c100a84:	9a000005 	bls	c100aa0 <pintaMenu+0x244>
 c100a88:	e15b31b0 	ldrh	r3, [fp, #-16]
 c100a8c:	e35300d2 	cmp	r3, #210	; 0xd2
 c100a90:	8a000002 	bhi	c100aa0 <pintaMenu+0x244>
			menuDistanciaPasos(distanciaPasos);
 c100a94:	e51b002c 	ldr	r0, [fp, #-44]	; 0xffffffd4
 c100a98:	eb000057 	bl	c100bfc <menuDistanciaPasos>
 c100a9c:	ea000048 	b	c100bc4 <pintaMenu+0x368>
		}
		else if(x >= 184 && x <= 299 && y >= 150 && y <= 210){ //mostrar alarma
 c100aa0:	e15b30be 	ldrh	r3, [fp, #-14]
 c100aa4:	e35300b7 	cmp	r3, #183	; 0xb7
 c100aa8:	9a000035 	bls	c100b84 <pintaMenu+0x328>
 c100aac:	e15b20be 	ldrh	r2, [fp, #-14]
 c100ab0:	e59f3130 	ldr	r3, [pc, #304]	; c100be8 <pintaMenu+0x38c>
 c100ab4:	e1520003 	cmp	r2, r3
 c100ab8:	8a000031 	bhi	c100b84 <pintaMenu+0x328>
 c100abc:	e15b31b0 	ldrh	r3, [fp, #-16]
 c100ac0:	e3530095 	cmp	r3, #149	; 0x95
 c100ac4:	9a00002e 	bls	c100b84 <pintaMenu+0x328>
 c100ac8:	e15b31b0 	ldrh	r3, [fp, #-16]
 c100acc:	e35300d2 	cmp	r3, #210	; 0xd2
 c100ad0:	8a00002b 	bhi	c100b84 <pintaMenu+0x328>
			flagAlarma = FALSE;
 c100ad4:	e59f3118 	ldr	r3, [pc, #280]	; c100bf4 <pintaMenu+0x398>
 c100ad8:	e3a02000 	mov	r2, #0
 c100adc:	e5c32000 	strb	r2, [r3]
			lcd_putint_x2(210, 174, WHITE, 8);
 c100ae0:	e3a000d2 	mov	r0, #210	; 0xd2
 c100ae4:	e3a010ae 	mov	r1, #174	; 0xae
 c100ae8:	e3a02000 	mov	r2, #0
 c100aec:	e3a03008 	mov	r3, #8
 c100af0:	eb001609 	bl	c10631c <lcd_putint_x2>
			lcd_putint_x2(218, 174, WHITE, 8);
 c100af4:	e3a000da 	mov	r0, #218	; 0xda
 c100af8:	e3a010ae 	mov	r1, #174	; 0xae
 c100afc:	e3a02000 	mov	r2, #0
 c100b00:	e3a03008 	mov	r3, #8
 c100b04:	eb001604 	bl	c10631c <lcd_putint_x2>
			lcd_putchar_x2(225, 174, WHITE, ':');
 c100b08:	e3a000e1 	mov	r0, #225	; 0xe1
 c100b0c:	e3a010ae 	mov	r1, #174	; 0xae
 c100b10:	e3a02000 	mov	r2, #0
 c100b14:	e3a0303a 	mov	r3, #58	; 0x3a
 c100b18:	eb00153f 	bl	c10601c <lcd_putchar_x2>
			lcd_putint_x2(232, 174, WHITE, 8);
 c100b1c:	e3a000e8 	mov	r0, #232	; 0xe8
 c100b20:	e3a010ae 	mov	r1, #174	; 0xae
 c100b24:	e3a02000 	mov	r2, #0
 c100b28:	e3a03008 	mov	r3, #8
 c100b2c:	eb0015fa 	bl	c10631c <lcd_putint_x2>
			lcd_putint_x2(240, 174, WHITE, 8);
 c100b30:	e3a000f0 	mov	r0, #240	; 0xf0
 c100b34:	e3a010ae 	mov	r1, #174	; 0xae
 c100b38:	e3a02000 	mov	r2, #0
 c100b3c:	e3a03008 	mov	r3, #8
 c100b40:	eb0015f5 	bl	c10631c <lcd_putint_x2>
			lcd_putchar_x2(247, 174, WHITE, ':');
 c100b44:	e3a000f7 	mov	r0, #247	; 0xf7
 c100b48:	e3a010ae 	mov	r1, #174	; 0xae
 c100b4c:	e3a02000 	mov	r2, #0
 c100b50:	e3a0303a 	mov	r3, #58	; 0x3a
 c100b54:	eb001530 	bl	c10601c <lcd_putchar_x2>
			lcd_putint_x2(254, 174, WHITE, 8);
 c100b58:	e3a000fe 	mov	r0, #254	; 0xfe
 c100b5c:	e3a010ae 	mov	r1, #174	; 0xae
 c100b60:	e3a02000 	mov	r2, #0
 c100b64:	e3a03008 	mov	r3, #8
 c100b68:	eb0015eb 	bl	c10631c <lcd_putint_x2>
			lcd_putint_x2(263, 174, WHITE, 8);
 c100b6c:	e59f0084 	ldr	r0, [pc, #132]	; c100bf8 <pintaMenu+0x39c>
 c100b70:	e3a010ae 	mov	r1, #174	; 0xae
 c100b74:	e3a02000 	mov	r2, #0
 c100b78:	e3a03008 	mov	r3, #8
 c100b7c:	eb0015e6 	bl	c10631c <lcd_putint_x2>
 c100b80:	ea00000f 	b	c100bc4 <pintaMenu+0x368>
		}
		else if(x >= 184 && x <= 299 && y >= 40 && y <= 100){ //minijuego
 c100b84:	e15b30be 	ldrh	r3, [fp, #-14]
 c100b88:	e35300b7 	cmp	r3, #183	; 0xb7
 c100b8c:	9a00000c 	bls	c100bc4 <pintaMenu+0x368>
 c100b90:	e15b20be 	ldrh	r2, [fp, #-14]
 c100b94:	e59f304c 	ldr	r3, [pc, #76]	; c100be8 <pintaMenu+0x38c>
 c100b98:	e1520003 	cmp	r2, r3
 c100b9c:	8a000008 	bhi	c100bc4 <pintaMenu+0x368>
 c100ba0:	e15b31b0 	ldrh	r3, [fp, #-16]
 c100ba4:	e3530027 	cmp	r3, #39	; 0x27
 c100ba8:	9a000005 	bls	c100bc4 <pintaMenu+0x368>
 c100bac:	e15b31b0 	ldrh	r3, [fp, #-16]
 c100bb0:	e3530064 	cmp	r3, #100	; 0x64
 c100bb4:	8a000002 	bhi	c100bc4 <pintaMenu+0x368>
			minijuego(rtc_time);
 c100bb8:	e24b3024 	sub	r3, fp, #36	; 0x24
 c100bbc:	e8930003 	ldm	r3, {r0, r1}
 c100bc0:	ebfffe2d 	bl	c10047c <minijuego>
		}
		flagTS = FALSE;
 c100bc4:	e59f3024 	ldr	r3, [pc, #36]	; c100bf0 <pintaMenu+0x394>
 c100bc8:	e3a02000 	mov	r2, #0
 c100bcc:	e5c32000 	strb	r2, [r3]
	}

}
 c100bd0:	e24bd00c 	sub	sp, fp, #12
 c100bd4:	e89d6800 	ldm	sp, {fp, sp, lr}
 c100bd8:	e12fff1e 	bx	lr
 c100bdc:	0c10c128 	.word	0x0c10c128
 c100be0:	0c10c130 	.word	0x0c10c130
 c100be4:	0c10c13c 	.word	0x0c10c13c
 c100be8:	0000012b 	.word	0x0000012b
 c100bec:	0c10c144 	.word	0x0c10c144
 c100bf0:	0c117a7c 	.word	0x0c117a7c
 c100bf4:	0c117a75 	.word	0x0c117a75
 c100bf8:	00000107 	.word	0x00000107

0c100bfc <menuDistanciaPasos>:

void menuDistanciaPasos ( ufix32 *distanciaPaso )
{
 c100bfc:	e1a0c00d 	mov	ip, sp
 c100c00:	e92dd800 	push	{fp, ip, lr, pc}
 c100c04:	e24cb004 	sub	fp, ip, #4
 c100c08:	e24dd020 	sub	sp, sp, #32
 c100c0c:	e50b0020 	str	r0, [fp, #-32]	; 0xffffffe0
	lcd_clear();
 c100c10:	eb00124a 	bl	c105540 <lcd_clear>

	ufix32 distanciaPasos = TOFIX(ufix32, 1.0, Q);
 c100c14:	e3a03c01 	mov	r3, #256	; 0x100
 c100c18:	e50b3010 	str	r3, [fp, #-16]
 c100c1c:	ea000006 	b	c100c3c <menuDistanciaPasos+0x40>
		}
		else if(x1 >= 130 && x1 <= 190 && y1 >= 30 && y1 <= 60){ // salir
			lcd_clear();
			break;
		}
	}
 c100c20:	e1a00000 	nop			; (mov r0, r0)
 c100c24:	ea000004 	b	c100c3c <menuDistanciaPasos+0x40>
 c100c28:	e1a00000 	nop			; (mov r0, r0)
 c100c2c:	ea000002 	b	c100c3c <menuDistanciaPasos+0x40>
 c100c30:	e1a00000 	nop			; (mov r0, r0)
 c100c34:	ea000000 	b	c100c3c <menuDistanciaPasos+0x40>
 c100c38:	e1a00000 	nop			; (mov r0, r0)
	lcd_clear();

	ufix32 distanciaPasos = TOFIX(ufix32, 1.0, Q);
	uint32 metros, decimales;
	while(1){
		separateParts(distanciaPasos, &metros, &decimales);
 c100c3c:	e24b2014 	sub	r2, fp, #20
 c100c40:	e24b3018 	sub	r3, fp, #24
 c100c44:	e51b0010 	ldr	r0, [fp, #-16]
 c100c48:	e1a01002 	mov	r1, r2
 c100c4c:	e1a02003 	mov	r2, r3
 c100c50:	eb000542 	bl	c102160 <separateParts>
		lcd_putpixel(156, 126, BLACK);
 c100c54:	e3a0009c 	mov	r0, #156	; 0x9c
 c100c58:	e3a0107e 	mov	r1, #126	; 0x7e
 c100c5c:	e3a0200f 	mov	r2, #15
 c100c60:	eb00124e 	bl	c1055a0 <lcd_putpixel>
		lcd_putpixel(157, 126, BLACK);
 c100c64:	e3a0009d 	mov	r0, #157	; 0x9d
 c100c68:	e3a0107e 	mov	r1, #126	; 0x7e
 c100c6c:	e3a0200f 	mov	r2, #15
 c100c70:	eb00124a 	bl	c1055a0 <lcd_putpixel>
		lcd_putpixel(156, 127, BLACK);
 c100c74:	e3a0009c 	mov	r0, #156	; 0x9c
 c100c78:	e3a0107f 	mov	r1, #127	; 0x7f
 c100c7c:	e3a0200f 	mov	r2, #15
 c100c80:	eb001246 	bl	c1055a0 <lcd_putpixel>
		lcd_putpixel(157, 127, BLACK);
 c100c84:	e3a0009d 	mov	r0, #157	; 0x9d
 c100c88:	e3a0107f 	mov	r1, #127	; 0x7f
 c100c8c:	e3a0200f 	mov	r2, #15
 c100c90:	eb001242 	bl	c1055a0 <lcd_putpixel>
		lcd_putint_x2(138,102, BLACK, metros);
 c100c94:	e51b3014 	ldr	r3, [fp, #-20]	; 0xffffffec
 c100c98:	e3a0008a 	mov	r0, #138	; 0x8a
 c100c9c:	e3a01066 	mov	r1, #102	; 0x66
 c100ca0:	e3a0200f 	mov	r2, #15
 c100ca4:	eb00159c 	bl	c10631c <lcd_putint_x2>
		if(decimales < 10){
 c100ca8:	e51b3018 	ldr	r3, [fp, #-24]	; 0xffffffe8
 c100cac:	e3530009 	cmp	r3, #9
 c100cb0:	8a00000a 	bhi	c100ce0 <menuDistanciaPasos+0xe4>
			lcd_putint_x2(158,102, BLACK, 0);
 c100cb4:	e3a0009e 	mov	r0, #158	; 0x9e
 c100cb8:	e3a01066 	mov	r1, #102	; 0x66
 c100cbc:	e3a0200f 	mov	r2, #15
 c100cc0:	e3a03000 	mov	r3, #0
 c100cc4:	eb001594 	bl	c10631c <lcd_putint_x2>
			lcd_putint_x2(174,102, BLACK, decimales);
 c100cc8:	e51b3018 	ldr	r3, [fp, #-24]	; 0xffffffe8
 c100ccc:	e3a000ae 	mov	r0, #174	; 0xae
 c100cd0:	e3a01066 	mov	r1, #102	; 0x66
 c100cd4:	e3a0200f 	mov	r2, #15
 c100cd8:	eb00158f 	bl	c10631c <lcd_putint_x2>
 c100cdc:	ea000004 	b	c100cf4 <menuDistanciaPasos+0xf8>
		}
		else{
			lcd_putint_x2(158,102, BLACK, decimales);
 c100ce0:	e51b3018 	ldr	r3, [fp, #-24]	; 0xffffffe8
 c100ce4:	e3a0009e 	mov	r0, #158	; 0x9e
 c100ce8:	e3a01066 	mov	r1, #102	; 0x66
 c100cec:	e3a0200f 	mov	r2, #15
 c100cf0:	eb001589 	bl	c10631c <lcd_putint_x2>
		}

		lcd_puts(250,115, BLACK, "EN M");
 c100cf4:	e3a000fa 	mov	r0, #250	; 0xfa
 c100cf8:	e3a01073 	mov	r1, #115	; 0x73
 c100cfc:	e3a0200f 	mov	r2, #15
 c100d00:	e59f3234 	ldr	r3, [pc, #564]	; c100f3c <menuDistanciaPasos+0x340>
 c100d04:	eb001410 	bl	c105d4c <lcd_puts>
		lcd_draw_box(202,100, 232, 130, BLACK, 3); //+
 c100d08:	e3a0300f 	mov	r3, #15
 c100d0c:	e58d3000 	str	r3, [sp]
 c100d10:	e3a03003 	mov	r3, #3
 c100d14:	e58d3004 	str	r3, [sp, #4]
 c100d18:	e3a000ca 	mov	r0, #202	; 0xca
 c100d1c:	e3a01064 	mov	r1, #100	; 0x64
 c100d20:	e3a020e8 	mov	r2, #232	; 0xe8
 c100d24:	e3a03082 	mov	r3, #130	; 0x82
 c100d28:	eb00132a 	bl	c1059d8 <lcd_draw_box>
		lcd_putchar(214, 110, BLACK, '>');
 c100d2c:	e3a000d6 	mov	r0, #214	; 0xd6
 c100d30:	e3a0106e 	mov	r1, #110	; 0x6e
 c100d34:	e3a0200f 	mov	r2, #15
 c100d38:	e3a0303e 	mov	r3, #62	; 0x3e
 c100d3c:	eb001363 	bl	c105ad0 <lcd_putchar>
		lcd_draw_box(96,100, 126, 130, BLACK, 3); //-
 c100d40:	e3a0300f 	mov	r3, #15
 c100d44:	e58d3000 	str	r3, [sp]
 c100d48:	e3a03003 	mov	r3, #3
 c100d4c:	e58d3004 	str	r3, [sp, #4]
 c100d50:	e3a00060 	mov	r0, #96	; 0x60
 c100d54:	e3a01064 	mov	r1, #100	; 0x64
 c100d58:	e3a0207e 	mov	r2, #126	; 0x7e
 c100d5c:	e3a03082 	mov	r3, #130	; 0x82
 c100d60:	eb00131c 	bl	c1059d8 <lcd_draw_box>
		lcd_putchar(108, 110, BLACK, '<');
 c100d64:	e3a0006c 	mov	r0, #108	; 0x6c
 c100d68:	e3a0106e 	mov	r1, #110	; 0x6e
 c100d6c:	e3a0200f 	mov	r2, #15
 c100d70:	e3a0303c 	mov	r3, #60	; 0x3c
 c100d74:	eb001355 	bl	c105ad0 <lcd_putchar>
		lcd_draw_box(130, 180, 190, 210, BLACK, 3); //ok
 c100d78:	e3a0300f 	mov	r3, #15
 c100d7c:	e58d3000 	str	r3, [sp]
 c100d80:	e3a03003 	mov	r3, #3
 c100d84:	e58d3004 	str	r3, [sp, #4]
 c100d88:	e3a00082 	mov	r0, #130	; 0x82
 c100d8c:	e3a010b4 	mov	r1, #180	; 0xb4
 c100d90:	e3a020be 	mov	r2, #190	; 0xbe
 c100d94:	e3a030d2 	mov	r3, #210	; 0xd2
 c100d98:	eb00130e 	bl	c1059d8 <lcd_draw_box>
		lcd_puts(152, 188, BLACK, "OK");
 c100d9c:	e3a00098 	mov	r0, #152	; 0x98
 c100da0:	e3a010bc 	mov	r1, #188	; 0xbc
 c100da4:	e3a0200f 	mov	r2, #15
 c100da8:	e59f3190 	ldr	r3, [pc, #400]	; c100f40 <menuDistanciaPasos+0x344>
 c100dac:	eb0013e6 	bl	c105d4c <lcd_puts>
		lcd_draw_box(130, 30, 190, 60, BLACK, 3); //salir
 c100db0:	e3a0300f 	mov	r3, #15
 c100db4:	e58d3000 	str	r3, [sp]
 c100db8:	e3a03003 	mov	r3, #3
 c100dbc:	e58d3004 	str	r3, [sp, #4]
 c100dc0:	e3a00082 	mov	r0, #130	; 0x82
 c100dc4:	e3a0101e 	mov	r1, #30
 c100dc8:	e3a020be 	mov	r2, #190	; 0xbe
 c100dcc:	e3a0303c 	mov	r3, #60	; 0x3c
 c100dd0:	eb001300 	bl	c1059d8 <lcd_draw_box>
		lcd_puts(142, 40, BLACK, "SALIR");
 c100dd4:	e3a0008e 	mov	r0, #142	; 0x8e
 c100dd8:	e3a01028 	mov	r1, #40	; 0x28
 c100ddc:	e3a0200f 	mov	r2, #15
 c100de0:	e59f315c 	ldr	r3, [pc, #348]	; c100f44 <menuDistanciaPasos+0x348>
 c100de4:	eb0013d8 	bl	c105d4c <lcd_puts>

		uint16 x1, y1;
		ts_getpos(&x1, &y1);
 c100de8:	e24b201a 	sub	r2, fp, #26
 c100dec:	e24b301c 	sub	r3, fp, #28
 c100df0:	e1a00002 	mov	r0, r2
 c100df4:	e1a01003 	mov	r1, r3
 c100df8:	eb0025d6 	bl	c10a558 <ts_getpos>
		if(x1 >= 202 && x1 <= 232 && y1 >= 100 && y1 <= 130){ //+
 c100dfc:	e15b31ba 	ldrh	r3, [fp, #-26]	; 0xffffffe6
 c100e00:	e35300c9 	cmp	r3, #201	; 0xc9
 c100e04:	9a000012 	bls	c100e54 <menuDistanciaPasos+0x258>
 c100e08:	e15b31ba 	ldrh	r3, [fp, #-26]	; 0xffffffe6
 c100e0c:	e35300e8 	cmp	r3, #232	; 0xe8
 c100e10:	8a00000f 	bhi	c100e54 <menuDistanciaPasos+0x258>
 c100e14:	e15b31bc 	ldrh	r3, [fp, #-28]	; 0xffffffe4
 c100e18:	e3530063 	cmp	r3, #99	; 0x63
 c100e1c:	9a00000c 	bls	c100e54 <menuDistanciaPasos+0x258>
 c100e20:	e15b31bc 	ldrh	r3, [fp, #-28]	; 0xffffffe4
 c100e24:	e3530082 	cmp	r3, #130	; 0x82
 c100e28:	8a000009 	bhi	c100e54 <menuDistanciaPasos+0x258>
			if(decimales < 51 || metros < 2){
 c100e2c:	e51b3018 	ldr	r3, [fp, #-24]	; 0xffffffe8
 c100e30:	e3530032 	cmp	r3, #50	; 0x32
 c100e34:	9a000002 	bls	c100e44 <menuDistanciaPasos+0x248>
 c100e38:	e51b3014 	ldr	r3, [fp, #-20]	; 0xffffffec
 c100e3c:	e3530001 	cmp	r3, #1
 c100e40:	8a000002 	bhi	c100e50 <menuDistanciaPasos+0x254>
				distanciaPasos = FADD(distanciaPasos, TOFIX(ufix32, 0.01, Q));
 c100e44:	e51b3010 	ldr	r3, [fp, #-16]
 c100e48:	e2833002 	add	r3, r3, #2
 c100e4c:	e50b3010 	str	r3, [fp, #-16]
		lcd_puts(142, 40, BLACK, "SALIR");

		uint16 x1, y1;
		ts_getpos(&x1, &y1);
		if(x1 >= 202 && x1 <= 232 && y1 >= 100 && y1 <= 130){ //+
			if(decimales < 51 || metros < 2){
 c100e50:	ea000035 	b	c100f2c <menuDistanciaPasos+0x330>
				distanciaPasos = FADD(distanciaPasos, TOFIX(ufix32, 0.01, Q));
			}
		}
		else if (x1 >= 96 && x1 <= 126 && y1 >= 100 && y1 <= 130){ //-
 c100e54:	e15b31ba 	ldrh	r3, [fp, #-26]	; 0xffffffe6
 c100e58:	e353005f 	cmp	r3, #95	; 0x5f
 c100e5c:	9a000012 	bls	c100eac <menuDistanciaPasos+0x2b0>
 c100e60:	e15b31ba 	ldrh	r3, [fp, #-26]	; 0xffffffe6
 c100e64:	e353007e 	cmp	r3, #126	; 0x7e
 c100e68:	8a00000f 	bhi	c100eac <menuDistanciaPasos+0x2b0>
 c100e6c:	e15b31bc 	ldrh	r3, [fp, #-28]	; 0xffffffe4
 c100e70:	e3530063 	cmp	r3, #99	; 0x63
 c100e74:	9a00000c 	bls	c100eac <menuDistanciaPasos+0x2b0>
 c100e78:	e15b31bc 	ldrh	r3, [fp, #-28]	; 0xffffffe4
 c100e7c:	e3530082 	cmp	r3, #130	; 0x82
 c100e80:	8a000009 	bhi	c100eac <menuDistanciaPasos+0x2b0>
			if(decimales > 10 || metros > 0){
 c100e84:	e51b3018 	ldr	r3, [fp, #-24]	; 0xffffffe8
 c100e88:	e353000a 	cmp	r3, #10
 c100e8c:	8a000002 	bhi	c100e9c <menuDistanciaPasos+0x2a0>
 c100e90:	e51b3014 	ldr	r3, [fp, #-20]	; 0xffffffec
 c100e94:	e3530000 	cmp	r3, #0
 c100e98:	0a000002 	beq	c100ea8 <menuDistanciaPasos+0x2ac>
				distanciaPasos = FSUB(distanciaPasos, TOFIX(ufix32, 0.01, Q));
 c100e9c:	e51b3010 	ldr	r3, [fp, #-16]
 c100ea0:	e2433002 	sub	r3, r3, #2
 c100ea4:	e50b3010 	str	r3, [fp, #-16]
			if(decimales < 51 || metros < 2){
				distanciaPasos = FADD(distanciaPasos, TOFIX(ufix32, 0.01, Q));
			}
		}
		else if (x1 >= 96 && x1 <= 126 && y1 >= 100 && y1 <= 130){ //-
			if(decimales > 10 || metros > 0){
 c100ea8:	ea00001f 	b	c100f2c <menuDistanciaPasos+0x330>
				distanciaPasos = FSUB(distanciaPasos, TOFIX(ufix32, 0.01, Q));
			}
		}
		else if (x1 >= 130 && x1 <= 190 && y1 >= 180 && y1 <= 210){ //ok
 c100eac:	e15b31ba 	ldrh	r3, [fp, #-26]	; 0xffffffe6
 c100eb0:	e3530081 	cmp	r3, #129	; 0x81
 c100eb4:	9a00000d 	bls	c100ef0 <menuDistanciaPasos+0x2f4>
 c100eb8:	e15b31ba 	ldrh	r3, [fp, #-26]	; 0xffffffe6
 c100ebc:	e35300be 	cmp	r3, #190	; 0xbe
 c100ec0:	8a00000a 	bhi	c100ef0 <menuDistanciaPasos+0x2f4>
 c100ec4:	e15b31bc 	ldrh	r3, [fp, #-28]	; 0xffffffe4
 c100ec8:	e35300b3 	cmp	r3, #179	; 0xb3
 c100ecc:	9a000007 	bls	c100ef0 <menuDistanciaPasos+0x2f4>
 c100ed0:	e15b31bc 	ldrh	r3, [fp, #-28]	; 0xffffffe4
 c100ed4:	e35300d2 	cmp	r3, #210	; 0xd2
 c100ed8:	8a000004 	bhi	c100ef0 <menuDistanciaPasos+0x2f4>
			*distanciaPaso = distanciaPasos;
 c100edc:	e51b3020 	ldr	r3, [fp, #-32]	; 0xffffffe0
 c100ee0:	e51b2010 	ldr	r2, [fp, #-16]
 c100ee4:	e5832000 	str	r2, [r3]
			lcd_clear();
 c100ee8:	eb001194 	bl	c105540 <lcd_clear>
			break;
 c100eec:	ea00000f 	b	c100f30 <menuDistanciaPasos+0x334>
		}
		else if(x1 >= 130 && x1 <= 190 && y1 >= 30 && y1 <= 60){ // salir
 c100ef0:	e15b31ba 	ldrh	r3, [fp, #-26]	; 0xffffffe6
 c100ef4:	e3530081 	cmp	r3, #129	; 0x81
 c100ef8:	9affff48 	bls	c100c20 <menuDistanciaPasos+0x24>
 c100efc:	e15b31ba 	ldrh	r3, [fp, #-26]	; 0xffffffe6
 c100f00:	e35300be 	cmp	r3, #190	; 0xbe
 c100f04:	8affff47 	bhi	c100c28 <menuDistanciaPasos+0x2c>
 c100f08:	e15b31bc 	ldrh	r3, [fp, #-28]	; 0xffffffe4
 c100f0c:	e353001d 	cmp	r3, #29
 c100f10:	9affff46 	bls	c100c30 <menuDistanciaPasos+0x34>
 c100f14:	e15b31bc 	ldrh	r3, [fp, #-28]	; 0xffffffe4
 c100f18:	e353003c 	cmp	r3, #60	; 0x3c
 c100f1c:	8affff45 	bhi	c100c38 <menuDistanciaPasos+0x3c>
			lcd_clear();
 c100f20:	eb001186 	bl	c105540 <lcd_clear>
			break;
 c100f24:	e1a00000 	nop			; (mov r0, r0)
 c100f28:	ea000000 	b	c100f30 <menuDistanciaPasos+0x334>
		}
	}
 c100f2c:	eaffff42 	b	c100c3c <menuDistanciaPasos+0x40>
}
 c100f30:	e24bd00c 	sub	sp, fp, #12
 c100f34:	e89d6800 	ldm	sp, {fp, sp, lr}
 c100f38:	e12fff1e 	bx	lr
 c100f3c:	0c10c150 	.word	0x0c10c150
 c100f40:	0c10c158 	.word	0x0c10c158
 c100f44:	0c10c15c 	.word	0x0c10c15c

0c100f48 <menuAlarma>:

rtc_time_t menuAlarma ( void )
{
 c100f48:	e1a0c00d 	mov	ip, sp
 c100f4c:	e92dd810 	push	{r4, fp, ip, lr, pc}
 c100f50:	e24cb004 	sub	fp, ip, #4
 c100f54:	e24dd024 	sub	sp, sp, #36	; 0x24
 c100f58:	e1a04000 	mov	r4, r0
	lcd_clear();
 c100f5c:	eb001177 	bl	c105540 <lcd_clear>
	uint8 h1=0,h2=0,m1=0,m2=0,s1=0,s2=0;
 c100f60:	e3a03000 	mov	r3, #0
 c100f64:	e54b3015 	strb	r3, [fp, #-21]	; 0xffffffeb
 c100f68:	e3a03000 	mov	r3, #0
 c100f6c:	e54b3016 	strb	r3, [fp, #-22]	; 0xffffffea
 c100f70:	e3a03000 	mov	r3, #0
 c100f74:	e54b3017 	strb	r3, [fp, #-23]	; 0xffffffe9
 c100f78:	e3a03000 	mov	r3, #0
 c100f7c:	e54b3018 	strb	r3, [fp, #-24]	; 0xffffffe8
 c100f80:	e3a03000 	mov	r3, #0
 c100f84:	e54b3019 	strb	r3, [fp, #-25]	; 0xffffffe7
 c100f88:	e3a03000 	mov	r3, #0
 c100f8c:	e54b301a 	strb	r3, [fp, #-26]	; 0xffffffe6
	rtc_time_t a;

	a.hour = 0; a.min = 0; a.sec = 0;
 c100f90:	e3a03000 	mov	r3, #0
 c100f94:	e54b3022 	strb	r3, [fp, #-34]	; 0xffffffde
 c100f98:	e3a03000 	mov	r3, #0
 c100f9c:	e54b3023 	strb	r3, [fp, #-35]	; 0xffffffdd
 c100fa0:	e3a03000 	mov	r3, #0
 c100fa4:	e54b3024 	strb	r3, [fp, #-36]	; 0xffffffdc
 c100fa8:	ea000006 	b	c100fc8 <menuAlarma+0x80>
				}
				lcd_putint_x2(190, 102, BLACK, s1);
				lcd_putint_x2(206, 102, BLACK, s2);
			}

	}
 c100fac:	e1a00000 	nop			; (mov r0, r0)
 c100fb0:	ea000004 	b	c100fc8 <menuAlarma+0x80>
 c100fb4:	e1a00000 	nop			; (mov r0, r0)
 c100fb8:	ea000002 	b	c100fc8 <menuAlarma+0x80>
 c100fbc:	e1a00000 	nop			; (mov r0, r0)
 c100fc0:	ea000000 	b	c100fc8 <menuAlarma+0x80>
 c100fc4:	e1a00000 	nop			; (mov r0, r0)
	rtc_time_t a;

	a.hour = 0; a.min = 0; a.sec = 0;
	while(1){
		uint16 x1, y1;
		lcd_putint_x2(100, 102, BLACK, h1);
 c100fc8:	e55b3015 	ldrb	r3, [fp, #-21]	; 0xffffffeb
 c100fcc:	e3a00064 	mov	r0, #100	; 0x64
 c100fd0:	e3a01066 	mov	r1, #102	; 0x66
 c100fd4:	e3a0200f 	mov	r2, #15
 c100fd8:	eb0014cf 	bl	c10631c <lcd_putint_x2>
		lcd_putint_x2(116, 102, BLACK, h2);
 c100fdc:	e55b3016 	ldrb	r3, [fp, #-22]	; 0xffffffea
 c100fe0:	e3a00074 	mov	r0, #116	; 0x74
 c100fe4:	e3a01066 	mov	r1, #102	; 0x66
 c100fe8:	e3a0200f 	mov	r2, #15
 c100fec:	eb0014ca 	bl	c10631c <lcd_putint_x2>
		lcd_putchar_x2(129, 102, BLACK, ':');
 c100ff0:	e3a00081 	mov	r0, #129	; 0x81
 c100ff4:	e3a01066 	mov	r1, #102	; 0x66
 c100ff8:	e3a0200f 	mov	r2, #15
 c100ffc:	e3a0303a 	mov	r3, #58	; 0x3a
 c101000:	eb001405 	bl	c10601c <lcd_putchar_x2>
		lcd_putint_x2(145, 102, BLACK, m1);
 c101004:	e55b3017 	ldrb	r3, [fp, #-23]	; 0xffffffe9
 c101008:	e3a00091 	mov	r0, #145	; 0x91
 c10100c:	e3a01066 	mov	r1, #102	; 0x66
 c101010:	e3a0200f 	mov	r2, #15
 c101014:	eb0014c0 	bl	c10631c <lcd_putint_x2>
		lcd_putint_x2(161, 102, BLACK, m2);
 c101018:	e55b3018 	ldrb	r3, [fp, #-24]	; 0xffffffe8
 c10101c:	e3a000a1 	mov	r0, #161	; 0xa1
 c101020:	e3a01066 	mov	r1, #102	; 0x66
 c101024:	e3a0200f 	mov	r2, #15
 c101028:	eb0014bb 	bl	c10631c <lcd_putint_x2>
		lcd_putchar_x2(174, 102, BLACK, ':');
 c10102c:	e3a000ae 	mov	r0, #174	; 0xae
 c101030:	e3a01066 	mov	r1, #102	; 0x66
 c101034:	e3a0200f 	mov	r2, #15
 c101038:	e3a0303a 	mov	r3, #58	; 0x3a
 c10103c:	eb0013f6 	bl	c10601c <lcd_putchar_x2>
		lcd_putint_x2(190, 102, BLACK, s1);
 c101040:	e55b3019 	ldrb	r3, [fp, #-25]	; 0xffffffe7
 c101044:	e3a000be 	mov	r0, #190	; 0xbe
 c101048:	e3a01066 	mov	r1, #102	; 0x66
 c10104c:	e3a0200f 	mov	r2, #15
 c101050:	eb0014b1 	bl	c10631c <lcd_putint_x2>
		lcd_putint_x2(206, 102, BLACK, s2);
 c101054:	e55b301a 	ldrb	r3, [fp, #-26]	; 0xffffffe6
 c101058:	e3a000ce 	mov	r0, #206	; 0xce
 c10105c:	e3a01066 	mov	r1, #102	; 0x66
 c101060:	e3a0200f 	mov	r2, #15
 c101064:	eb0014ac 	bl	c10631c <lcd_putint_x2>

		lcd_draw_box(99,70, 129, 100, BLACK, 3); //mas h
 c101068:	e3a0300f 	mov	r3, #15
 c10106c:	e58d3000 	str	r3, [sp]
 c101070:	e3a03003 	mov	r3, #3
 c101074:	e58d3004 	str	r3, [sp, #4]
 c101078:	e3a00063 	mov	r0, #99	; 0x63
 c10107c:	e3a01046 	mov	r1, #70	; 0x46
 c101080:	e3a02081 	mov	r2, #129	; 0x81
 c101084:	e3a03064 	mov	r3, #100	; 0x64
 c101088:	eb001252 	bl	c1059d8 <lcd_draw_box>
		lcd_putchar(110,80 ,BLACK, '+');
 c10108c:	e3a0006e 	mov	r0, #110	; 0x6e
 c101090:	e3a01050 	mov	r1, #80	; 0x50
 c101094:	e3a0200f 	mov	r2, #15
 c101098:	e3a0302b 	mov	r3, #43	; 0x2b
 c10109c:	eb00128b 	bl	c105ad0 <lcd_putchar>
		lcd_draw_box(99 ,133, 129, 163, BLACK, 3); //menos h
 c1010a0:	e3a0300f 	mov	r3, #15
 c1010a4:	e58d3000 	str	r3, [sp]
 c1010a8:	e3a03003 	mov	r3, #3
 c1010ac:	e58d3004 	str	r3, [sp, #4]
 c1010b0:	e3a00063 	mov	r0, #99	; 0x63
 c1010b4:	e3a01085 	mov	r1, #133	; 0x85
 c1010b8:	e3a02081 	mov	r2, #129	; 0x81
 c1010bc:	e3a030a3 	mov	r3, #163	; 0xa3
 c1010c0:	eb001244 	bl	c1059d8 <lcd_draw_box>
		lcd_putchar(110,145 ,BLACK, '-');
 c1010c4:	e3a0006e 	mov	r0, #110	; 0x6e
 c1010c8:	e3a01091 	mov	r1, #145	; 0x91
 c1010cc:	e3a0200f 	mov	r2, #15
 c1010d0:	e3a0302d 	mov	r3, #45	; 0x2d
 c1010d4:	eb00127d 	bl	c105ad0 <lcd_putchar>

		lcd_draw_box(144,70, 174, 100, BLACK, 3); //mas m
 c1010d8:	e3a0300f 	mov	r3, #15
 c1010dc:	e58d3000 	str	r3, [sp]
 c1010e0:	e3a03003 	mov	r3, #3
 c1010e4:	e58d3004 	str	r3, [sp, #4]
 c1010e8:	e3a00090 	mov	r0, #144	; 0x90
 c1010ec:	e3a01046 	mov	r1, #70	; 0x46
 c1010f0:	e3a020ae 	mov	r2, #174	; 0xae
 c1010f4:	e3a03064 	mov	r3, #100	; 0x64
 c1010f8:	eb001236 	bl	c1059d8 <lcd_draw_box>
		lcd_putchar(155,80 ,BLACK, '+');
 c1010fc:	e3a0009b 	mov	r0, #155	; 0x9b
 c101100:	e3a01050 	mov	r1, #80	; 0x50
 c101104:	e3a0200f 	mov	r2, #15
 c101108:	e3a0302b 	mov	r3, #43	; 0x2b
 c10110c:	eb00126f 	bl	c105ad0 <lcd_putchar>
		lcd_draw_box(144 ,133, 174, 163, BLACK, 3); //menos m
 c101110:	e3a0300f 	mov	r3, #15
 c101114:	e58d3000 	str	r3, [sp]
 c101118:	e3a03003 	mov	r3, #3
 c10111c:	e58d3004 	str	r3, [sp, #4]
 c101120:	e3a00090 	mov	r0, #144	; 0x90
 c101124:	e3a01085 	mov	r1, #133	; 0x85
 c101128:	e3a020ae 	mov	r2, #174	; 0xae
 c10112c:	e3a030a3 	mov	r3, #163	; 0xa3
 c101130:	eb001228 	bl	c1059d8 <lcd_draw_box>
		lcd_putchar(155,145 ,BLACK, '-');
 c101134:	e3a0009b 	mov	r0, #155	; 0x9b
 c101138:	e3a01091 	mov	r1, #145	; 0x91
 c10113c:	e3a0200f 	mov	r2, #15
 c101140:	e3a0302d 	mov	r3, #45	; 0x2d
 c101144:	eb001261 	bl	c105ad0 <lcd_putchar>

		lcd_draw_box(189 ,70, 219, 100, BLACK, 3); //mas s
 c101148:	e3a0300f 	mov	r3, #15
 c10114c:	e58d3000 	str	r3, [sp]
 c101150:	e3a03003 	mov	r3, #3
 c101154:	e58d3004 	str	r3, [sp, #4]
 c101158:	e3a000bd 	mov	r0, #189	; 0xbd
 c10115c:	e3a01046 	mov	r1, #70	; 0x46
 c101160:	e3a020db 	mov	r2, #219	; 0xdb
 c101164:	e3a03064 	mov	r3, #100	; 0x64
 c101168:	eb00121a 	bl	c1059d8 <lcd_draw_box>
		lcd_putchar(200,80 ,BLACK, '+');
 c10116c:	e3a000c8 	mov	r0, #200	; 0xc8
 c101170:	e3a01050 	mov	r1, #80	; 0x50
 c101174:	e3a0200f 	mov	r2, #15
 c101178:	e3a0302b 	mov	r3, #43	; 0x2b
 c10117c:	eb001253 	bl	c105ad0 <lcd_putchar>
		lcd_draw_box(189 ,133, 219, 163, BLACK, 3); //menos s
 c101180:	e3a0300f 	mov	r3, #15
 c101184:	e58d3000 	str	r3, [sp]
 c101188:	e3a03003 	mov	r3, #3
 c10118c:	e58d3004 	str	r3, [sp, #4]
 c101190:	e3a000bd 	mov	r0, #189	; 0xbd
 c101194:	e3a01085 	mov	r1, #133	; 0x85
 c101198:	e3a020db 	mov	r2, #219	; 0xdb
 c10119c:	e3a030a3 	mov	r3, #163	; 0xa3
 c1011a0:	eb00120c 	bl	c1059d8 <lcd_draw_box>
		lcd_putchar(200,145 ,BLACK, '-');
 c1011a4:	e3a000c8 	mov	r0, #200	; 0xc8
 c1011a8:	e3a01091 	mov	r1, #145	; 0x91
 c1011ac:	e3a0200f 	mov	r2, #15
 c1011b0:	e3a0302d 	mov	r3, #45	; 0x2d
 c1011b4:	eb001245 	bl	c105ad0 <lcd_putchar>

		lcd_draw_box(130, 180, 190, 210, BLACK, 3); //ok
 c1011b8:	e3a0300f 	mov	r3, #15
 c1011bc:	e58d3000 	str	r3, [sp]
 c1011c0:	e3a03003 	mov	r3, #3
 c1011c4:	e58d3004 	str	r3, [sp, #4]
 c1011c8:	e3a00082 	mov	r0, #130	; 0x82
 c1011cc:	e3a010b4 	mov	r1, #180	; 0xb4
 c1011d0:	e3a020be 	mov	r2, #190	; 0xbe
 c1011d4:	e3a030d2 	mov	r3, #210	; 0xd2
 c1011d8:	eb0011fe 	bl	c1059d8 <lcd_draw_box>
		lcd_puts(152, 188, BLACK, "OK");
 c1011dc:	e3a00098 	mov	r0, #152	; 0x98
 c1011e0:	e3a010bc 	mov	r1, #188	; 0xbc
 c1011e4:	e3a0200f 	mov	r2, #15
 c1011e8:	e59f35cc 	ldr	r3, [pc, #1484]	; c1017bc <menuAlarma+0x874>
 c1011ec:	eb0012d6 	bl	c105d4c <lcd_puts>

		lcd_draw_box(130, 20, 190, 50, BLACK, 3); //salir
 c1011f0:	e3a0300f 	mov	r3, #15
 c1011f4:	e58d3000 	str	r3, [sp]
 c1011f8:	e3a03003 	mov	r3, #3
 c1011fc:	e58d3004 	str	r3, [sp, #4]
 c101200:	e3a00082 	mov	r0, #130	; 0x82
 c101204:	e3a01014 	mov	r1, #20
 c101208:	e3a020be 	mov	r2, #190	; 0xbe
 c10120c:	e3a03032 	mov	r3, #50	; 0x32
 c101210:	eb0011f0 	bl	c1059d8 <lcd_draw_box>
		lcd_puts(142, 30, BLACK, "SALIR");
 c101214:	e3a0008e 	mov	r0, #142	; 0x8e
 c101218:	e3a0101e 	mov	r1, #30
 c10121c:	e3a0200f 	mov	r2, #15
 c101220:	e59f3598 	ldr	r3, [pc, #1432]	; c1017c0 <menuAlarma+0x878>
 c101224:	eb0012c8 	bl	c105d4c <lcd_puts>

		ts_getpos(&x1, &y1);
 c101228:	e24b2026 	sub	r2, fp, #38	; 0x26
 c10122c:	e24b3028 	sub	r3, fp, #40	; 0x28
 c101230:	e1a00002 	mov	r0, r2
 c101234:	e1a01003 	mov	r1, r3
 c101238:	eb0024c6 	bl	c10a558 <ts_getpos>
		if(x1 >= 130 && x1 <= 190 && y1 >= 180 && y1 <= 210){ //ok
 c10123c:	e15b32b6 	ldrh	r3, [fp, #-38]	; 0xffffffda
 c101240:	e3530081 	cmp	r3, #129	; 0x81
 c101244:	9a00002e 	bls	c101304 <menuAlarma+0x3bc>
 c101248:	e15b32b6 	ldrh	r3, [fp, #-38]	; 0xffffffda
 c10124c:	e35300be 	cmp	r3, #190	; 0xbe
 c101250:	8a00002b 	bhi	c101304 <menuAlarma+0x3bc>
 c101254:	e15b32b8 	ldrh	r3, [fp, #-40]	; 0xffffffd8
 c101258:	e35300b3 	cmp	r3, #179	; 0xb3
 c10125c:	9a000028 	bls	c101304 <menuAlarma+0x3bc>
 c101260:	e15b32b8 	ldrh	r3, [fp, #-40]	; 0xffffffd8
 c101264:	e35300d2 	cmp	r3, #210	; 0xd2
 c101268:	8a000025 	bhi	c101304 <menuAlarma+0x3bc>
			lcd_clear();
 c10126c:	eb0010b3 	bl	c105540 <lcd_clear>
			uint8 h = h1 * 10 + h2;
 c101270:	e55b3015 	ldrb	r3, [fp, #-21]	; 0xffffffeb
 c101274:	e1a02003 	mov	r2, r3
 c101278:	e1a02102 	lsl	r2, r2, #2
 c10127c:	e0823003 	add	r3, r2, r3
 c101280:	e1a03083 	lsl	r3, r3, #1
 c101284:	e20320ff 	and	r2, r3, #255	; 0xff
 c101288:	e55b3016 	ldrb	r3, [fp, #-22]	; 0xffffffea
 c10128c:	e0823003 	add	r3, r2, r3
 c101290:	e54b301b 	strb	r3, [fp, #-27]	; 0xffffffe5
			uint8 m = m1 * 10 + m2;
 c101294:	e55b3017 	ldrb	r3, [fp, #-23]	; 0xffffffe9
 c101298:	e1a02003 	mov	r2, r3
 c10129c:	e1a02102 	lsl	r2, r2, #2
 c1012a0:	e0823003 	add	r3, r2, r3
 c1012a4:	e1a03083 	lsl	r3, r3, #1
 c1012a8:	e20320ff 	and	r2, r3, #255	; 0xff
 c1012ac:	e55b3018 	ldrb	r3, [fp, #-24]	; 0xffffffe8
 c1012b0:	e0823003 	add	r3, r2, r3
 c1012b4:	e54b301c 	strb	r3, [fp, #-28]	; 0xffffffe4
			uint8 s = s1 * 10 + s2;
 c1012b8:	e55b3019 	ldrb	r3, [fp, #-25]	; 0xffffffe7
 c1012bc:	e1a02003 	mov	r2, r3
 c1012c0:	e1a02102 	lsl	r2, r2, #2
 c1012c4:	e0823003 	add	r3, r2, r3
 c1012c8:	e1a03083 	lsl	r3, r3, #1
 c1012cc:	e20320ff 	and	r2, r3, #255	; 0xff
 c1012d0:	e55b301a 	ldrb	r3, [fp, #-26]	; 0xffffffe6
 c1012d4:	e0823003 	add	r3, r2, r3
 c1012d8:	e54b301d 	strb	r3, [fp, #-29]	; 0xffffffe3
			a.hour = h; a.min = m; a.sec = s;
 c1012dc:	e55b301b 	ldrb	r3, [fp, #-27]	; 0xffffffe5
 c1012e0:	e54b3022 	strb	r3, [fp, #-34]	; 0xffffffde
 c1012e4:	e55b301c 	ldrb	r3, [fp, #-28]	; 0xffffffe4
 c1012e8:	e54b3023 	strb	r3, [fp, #-35]	; 0xffffffdd
 c1012ec:	e55b301d 	ldrb	r3, [fp, #-29]	; 0xffffffe3
 c1012f0:	e54b3024 	strb	r3, [fp, #-36]	; 0xffffffdc
			flagAlarma = TRUE;
 c1012f4:	e59f34c8 	ldr	r3, [pc, #1224]	; c1017c4 <menuAlarma+0x87c>
 c1012f8:	e3a02001 	mov	r2, #1
 c1012fc:	e5c32000 	strb	r2, [r3]

			break;
 c101300:	ea000122 	b	c101790 <menuAlarma+0x848>
		}
		else if(x1 >= 130 && x1 <= 190 && y1 >= 20 && y1 <= 50){//salir
 c101304:	e15b32b6 	ldrh	r3, [fp, #-38]	; 0xffffffda
 c101308:	e3530081 	cmp	r3, #129	; 0x81
 c10130c:	9a00000a 	bls	c10133c <menuAlarma+0x3f4>
 c101310:	e15b32b6 	ldrh	r3, [fp, #-38]	; 0xffffffda
 c101314:	e35300be 	cmp	r3, #190	; 0xbe
 c101318:	8a000007 	bhi	c10133c <menuAlarma+0x3f4>
 c10131c:	e15b32b8 	ldrh	r3, [fp, #-40]	; 0xffffffd8
 c101320:	e3530013 	cmp	r3, #19
 c101324:	9a000004 	bls	c10133c <menuAlarma+0x3f4>
 c101328:	e15b32b8 	ldrh	r3, [fp, #-40]	; 0xffffffd8
 c10132c:	e3530032 	cmp	r3, #50	; 0x32
 c101330:	8a000001 	bhi	c10133c <menuAlarma+0x3f4>
			//flagAlarma = FALSE;
			lcd_clear();
 c101334:	eb001081 	bl	c105540 <lcd_clear>
			break;
 c101338:	ea000114 	b	c101790 <menuAlarma+0x848>
		}
		else if(x1 >= 99 && x1 <= 129 && y1 >= 70 && y1 <= 100){ //h+
 c10133c:	e15b32b6 	ldrh	r3, [fp, #-38]	; 0xffffffda
 c101340:	e3530062 	cmp	r3, #98	; 0x62
 c101344:	9a00002a 	bls	c1013f4 <menuAlarma+0x4ac>
 c101348:	e15b32b6 	ldrh	r3, [fp, #-38]	; 0xffffffda
 c10134c:	e3530081 	cmp	r3, #129	; 0x81
 c101350:	8a000027 	bhi	c1013f4 <menuAlarma+0x4ac>
 c101354:	e15b32b8 	ldrh	r3, [fp, #-40]	; 0xffffffd8
 c101358:	e3530045 	cmp	r3, #69	; 0x45
 c10135c:	9a000024 	bls	c1013f4 <menuAlarma+0x4ac>
 c101360:	e15b32b8 	ldrh	r3, [fp, #-40]	; 0xffffffd8
 c101364:	e3530064 	cmp	r3, #100	; 0x64
 c101368:	8a000021 	bhi	c1013f4 <menuAlarma+0x4ac>
			if(h1 == 2 && h2 == 4){
 c10136c:	e55b3015 	ldrb	r3, [fp, #-21]	; 0xffffffeb
 c101370:	e3530002 	cmp	r3, #2
 c101374:	1a000007 	bne	c101398 <menuAlarma+0x450>
 c101378:	e55b3016 	ldrb	r3, [fp, #-22]	; 0xffffffea
 c10137c:	e3530004 	cmp	r3, #4
 c101380:	1a000004 	bne	c101398 <menuAlarma+0x450>
				h1 = 0;
 c101384:	e3a03000 	mov	r3, #0
 c101388:	e54b3015 	strb	r3, [fp, #-21]	; 0xffffffeb
				h2 = 0;
 c10138c:	e3a03000 	mov	r3, #0
 c101390:	e54b3016 	strb	r3, [fp, #-22]	; 0xffffffea
 c101394:	ea00000b 	b	c1013c8 <menuAlarma+0x480>
			}
			else if(h2 == 9){
 c101398:	e55b3016 	ldrb	r3, [fp, #-22]	; 0xffffffea
 c10139c:	e3530009 	cmp	r3, #9
 c1013a0:	1a000005 	bne	c1013bc <menuAlarma+0x474>
				h2 = 0;
 c1013a4:	e3a03000 	mov	r3, #0
 c1013a8:	e54b3016 	strb	r3, [fp, #-22]	; 0xffffffea
				h1++;
 c1013ac:	e55b3015 	ldrb	r3, [fp, #-21]	; 0xffffffeb
 c1013b0:	e2833001 	add	r3, r3, #1
 c1013b4:	e54b3015 	strb	r3, [fp, #-21]	; 0xffffffeb
 c1013b8:	ea000002 	b	c1013c8 <menuAlarma+0x480>
			}
			else{
				h2++;
 c1013bc:	e55b3016 	ldrb	r3, [fp, #-22]	; 0xffffffea
 c1013c0:	e2833001 	add	r3, r3, #1
 c1013c4:	e54b3016 	strb	r3, [fp, #-22]	; 0xffffffea
			}
			lcd_putint_x2(100, 102, BLACK, h1);
 c1013c8:	e55b3015 	ldrb	r3, [fp, #-21]	; 0xffffffeb
 c1013cc:	e3a00064 	mov	r0, #100	; 0x64
 c1013d0:	e3a01066 	mov	r1, #102	; 0x66
 c1013d4:	e3a0200f 	mov	r2, #15
 c1013d8:	eb0013cf 	bl	c10631c <lcd_putint_x2>
			lcd_putint_x2(116, 102, BLACK, h2);
 c1013dc:	e55b3016 	ldrb	r3, [fp, #-22]	; 0xffffffea
 c1013e0:	e3a00074 	mov	r0, #116	; 0x74
 c1013e4:	e3a01066 	mov	r1, #102	; 0x66
 c1013e8:	e3a0200f 	mov	r2, #15
 c1013ec:	eb0013ca 	bl	c10631c <lcd_putint_x2>
 c1013f0:	ea0000e5 	b	c10178c <menuAlarma+0x844>
		}
		else if(x1 >= 99 && x1 <= 129 && y1 >= 133 && y1 <= 163){ //h-
 c1013f4:	e15b32b6 	ldrh	r3, [fp, #-38]	; 0xffffffda
 c1013f8:	e3530062 	cmp	r3, #98	; 0x62
 c1013fc:	9a00002a 	bls	c1014ac <menuAlarma+0x564>
 c101400:	e15b32b6 	ldrh	r3, [fp, #-38]	; 0xffffffda
 c101404:	e3530081 	cmp	r3, #129	; 0x81
 c101408:	8a000027 	bhi	c1014ac <menuAlarma+0x564>
 c10140c:	e15b32b8 	ldrh	r3, [fp, #-40]	; 0xffffffd8
 c101410:	e3530084 	cmp	r3, #132	; 0x84
 c101414:	9a000024 	bls	c1014ac <menuAlarma+0x564>
 c101418:	e15b32b8 	ldrh	r3, [fp, #-40]	; 0xffffffd8
 c10141c:	e35300a3 	cmp	r3, #163	; 0xa3
 c101420:	8a000021 	bhi	c1014ac <menuAlarma+0x564>
			if(h1 == 0 && h2 == 0){
 c101424:	e55b3015 	ldrb	r3, [fp, #-21]	; 0xffffffeb
 c101428:	e3530000 	cmp	r3, #0
 c10142c:	1a000007 	bne	c101450 <menuAlarma+0x508>
 c101430:	e55b3016 	ldrb	r3, [fp, #-22]	; 0xffffffea
 c101434:	e3530000 	cmp	r3, #0
 c101438:	1a000004 	bne	c101450 <menuAlarma+0x508>
				h1 = 2;
 c10143c:	e3a03002 	mov	r3, #2
 c101440:	e54b3015 	strb	r3, [fp, #-21]	; 0xffffffeb
				h2 = 4;
 c101444:	e3a03004 	mov	r3, #4
 c101448:	e54b3016 	strb	r3, [fp, #-22]	; 0xffffffea
 c10144c:	ea00000b 	b	c101480 <menuAlarma+0x538>
			}
			else if(h2==0){
 c101450:	e55b3016 	ldrb	r3, [fp, #-22]	; 0xffffffea
 c101454:	e3530000 	cmp	r3, #0
 c101458:	1a000005 	bne	c101474 <menuAlarma+0x52c>
				h2 = 9;
 c10145c:	e3a03009 	mov	r3, #9
 c101460:	e54b3016 	strb	r3, [fp, #-22]	; 0xffffffea
				h1--;
 c101464:	e55b3015 	ldrb	r3, [fp, #-21]	; 0xffffffeb
 c101468:	e2433001 	sub	r3, r3, #1
 c10146c:	e54b3015 	strb	r3, [fp, #-21]	; 0xffffffeb
 c101470:	ea000002 	b	c101480 <menuAlarma+0x538>
			}
			else{
				h2--;
 c101474:	e55b3016 	ldrb	r3, [fp, #-22]	; 0xffffffea
 c101478:	e2433001 	sub	r3, r3, #1
 c10147c:	e54b3016 	strb	r3, [fp, #-22]	; 0xffffffea
			}
			lcd_putint_x2(100, 102, BLACK, h1);
 c101480:	e55b3015 	ldrb	r3, [fp, #-21]	; 0xffffffeb
 c101484:	e3a00064 	mov	r0, #100	; 0x64
 c101488:	e3a01066 	mov	r1, #102	; 0x66
 c10148c:	e3a0200f 	mov	r2, #15
 c101490:	eb0013a1 	bl	c10631c <lcd_putint_x2>
			lcd_putint_x2(116, 102, BLACK, h2);
 c101494:	e55b3016 	ldrb	r3, [fp, #-22]	; 0xffffffea
 c101498:	e3a00074 	mov	r0, #116	; 0x74
 c10149c:	e3a01066 	mov	r1, #102	; 0x66
 c1014a0:	e3a0200f 	mov	r2, #15
 c1014a4:	eb00139c 	bl	c10631c <lcd_putint_x2>
 c1014a8:	ea0000b7 	b	c10178c <menuAlarma+0x844>
			}
			else if(x1 >= 144 && x1 <= 174 && y1 >= 70 && y1 <= 100){ //m+
 c1014ac:	e15b32b6 	ldrh	r3, [fp, #-38]	; 0xffffffda
 c1014b0:	e353008f 	cmp	r3, #143	; 0x8f
 c1014b4:	9a00002a 	bls	c101564 <menuAlarma+0x61c>
 c1014b8:	e15b32b6 	ldrh	r3, [fp, #-38]	; 0xffffffda
 c1014bc:	e35300ae 	cmp	r3, #174	; 0xae
 c1014c0:	8a000027 	bhi	c101564 <menuAlarma+0x61c>
 c1014c4:	e15b32b8 	ldrh	r3, [fp, #-40]	; 0xffffffd8
 c1014c8:	e3530045 	cmp	r3, #69	; 0x45
 c1014cc:	9a000024 	bls	c101564 <menuAlarma+0x61c>
 c1014d0:	e15b32b8 	ldrh	r3, [fp, #-40]	; 0xffffffd8
 c1014d4:	e3530064 	cmp	r3, #100	; 0x64
 c1014d8:	8a000021 	bhi	c101564 <menuAlarma+0x61c>
				if(m1 == 5 && m2 == 9){
 c1014dc:	e55b3017 	ldrb	r3, [fp, #-23]	; 0xffffffe9
 c1014e0:	e3530005 	cmp	r3, #5
 c1014e4:	1a000007 	bne	c101508 <menuAlarma+0x5c0>
 c1014e8:	e55b3018 	ldrb	r3, [fp, #-24]	; 0xffffffe8
 c1014ec:	e3530009 	cmp	r3, #9
 c1014f0:	1a000004 	bne	c101508 <menuAlarma+0x5c0>
					m1 = 0;
 c1014f4:	e3a03000 	mov	r3, #0
 c1014f8:	e54b3017 	strb	r3, [fp, #-23]	; 0xffffffe9
					m2 = 0;
 c1014fc:	e3a03000 	mov	r3, #0
 c101500:	e54b3018 	strb	r3, [fp, #-24]	; 0xffffffe8
 c101504:	ea00000b 	b	c101538 <menuAlarma+0x5f0>
				}
				else if(m2 == 9){
 c101508:	e55b3018 	ldrb	r3, [fp, #-24]	; 0xffffffe8
 c10150c:	e3530009 	cmp	r3, #9
 c101510:	1a000005 	bne	c10152c <menuAlarma+0x5e4>
					m2 = 0;
 c101514:	e3a03000 	mov	r3, #0
 c101518:	e54b3018 	strb	r3, [fp, #-24]	; 0xffffffe8
					m1++;
 c10151c:	e55b3017 	ldrb	r3, [fp, #-23]	; 0xffffffe9
 c101520:	e2833001 	add	r3, r3, #1
 c101524:	e54b3017 	strb	r3, [fp, #-23]	; 0xffffffe9
 c101528:	ea000002 	b	c101538 <menuAlarma+0x5f0>
				}
				else{
					m2++;
 c10152c:	e55b3018 	ldrb	r3, [fp, #-24]	; 0xffffffe8
 c101530:	e2833001 	add	r3, r3, #1
 c101534:	e54b3018 	strb	r3, [fp, #-24]	; 0xffffffe8
				}
			lcd_putint_x2(145, 102, BLACK, m1);
 c101538:	e55b3017 	ldrb	r3, [fp, #-23]	; 0xffffffe9
 c10153c:	e3a00091 	mov	r0, #145	; 0x91
 c101540:	e3a01066 	mov	r1, #102	; 0x66
 c101544:	e3a0200f 	mov	r2, #15
 c101548:	eb001373 	bl	c10631c <lcd_putint_x2>
			lcd_putint_x2(161, 102, BLACK, m2);
 c10154c:	e55b3018 	ldrb	r3, [fp, #-24]	; 0xffffffe8
 c101550:	e3a000a1 	mov	r0, #161	; 0xa1
 c101554:	e3a01066 	mov	r1, #102	; 0x66
 c101558:	e3a0200f 	mov	r2, #15
 c10155c:	eb00136e 	bl	c10631c <lcd_putint_x2>
 c101560:	ea000089 	b	c10178c <menuAlarma+0x844>
			}
			else if(x1 >= 144 && x1 <= 174 && y1 >= 133 && y1 <= 163){ //m-
 c101564:	e15b32b6 	ldrh	r3, [fp, #-38]	; 0xffffffda
 c101568:	e353008f 	cmp	r3, #143	; 0x8f
 c10156c:	9a00002a 	bls	c10161c <menuAlarma+0x6d4>
 c101570:	e15b32b6 	ldrh	r3, [fp, #-38]	; 0xffffffda
 c101574:	e35300ae 	cmp	r3, #174	; 0xae
 c101578:	8a000027 	bhi	c10161c <menuAlarma+0x6d4>
 c10157c:	e15b32b8 	ldrh	r3, [fp, #-40]	; 0xffffffd8
 c101580:	e3530084 	cmp	r3, #132	; 0x84
 c101584:	9a000024 	bls	c10161c <menuAlarma+0x6d4>
 c101588:	e15b32b8 	ldrh	r3, [fp, #-40]	; 0xffffffd8
 c10158c:	e35300a3 	cmp	r3, #163	; 0xa3
 c101590:	8a000021 	bhi	c10161c <menuAlarma+0x6d4>
				if(m1 == 0 && m2 == 0){
 c101594:	e55b3017 	ldrb	r3, [fp, #-23]	; 0xffffffe9
 c101598:	e3530000 	cmp	r3, #0
 c10159c:	1a000007 	bne	c1015c0 <menuAlarma+0x678>
 c1015a0:	e55b3018 	ldrb	r3, [fp, #-24]	; 0xffffffe8
 c1015a4:	e3530000 	cmp	r3, #0
 c1015a8:	1a000004 	bne	c1015c0 <menuAlarma+0x678>
					m1 = 5;
 c1015ac:	e3a03005 	mov	r3, #5
 c1015b0:	e54b3017 	strb	r3, [fp, #-23]	; 0xffffffe9
					m2 = 9;
 c1015b4:	e3a03009 	mov	r3, #9
 c1015b8:	e54b3018 	strb	r3, [fp, #-24]	; 0xffffffe8
 c1015bc:	ea00000b 	b	c1015f0 <menuAlarma+0x6a8>
				}
				else if(m2==0){
 c1015c0:	e55b3018 	ldrb	r3, [fp, #-24]	; 0xffffffe8
 c1015c4:	e3530000 	cmp	r3, #0
 c1015c8:	1a000005 	bne	c1015e4 <menuAlarma+0x69c>
					m2 = 9;
 c1015cc:	e3a03009 	mov	r3, #9
 c1015d0:	e54b3018 	strb	r3, [fp, #-24]	; 0xffffffe8
					m1--;
 c1015d4:	e55b3017 	ldrb	r3, [fp, #-23]	; 0xffffffe9
 c1015d8:	e2433001 	sub	r3, r3, #1
 c1015dc:	e54b3017 	strb	r3, [fp, #-23]	; 0xffffffe9
 c1015e0:	ea000002 	b	c1015f0 <menuAlarma+0x6a8>
				}
				else{
					m2--;
 c1015e4:	e55b3018 	ldrb	r3, [fp, #-24]	; 0xffffffe8
 c1015e8:	e2433001 	sub	r3, r3, #1
 c1015ec:	e54b3018 	strb	r3, [fp, #-24]	; 0xffffffe8
				}
				lcd_putint_x2(145, 102, BLACK, m1);
 c1015f0:	e55b3017 	ldrb	r3, [fp, #-23]	; 0xffffffe9
 c1015f4:	e3a00091 	mov	r0, #145	; 0x91
 c1015f8:	e3a01066 	mov	r1, #102	; 0x66
 c1015fc:	e3a0200f 	mov	r2, #15
 c101600:	eb001345 	bl	c10631c <lcd_putint_x2>
				lcd_putint_x2(161, 102, BLACK, m2);
 c101604:	e55b3018 	ldrb	r3, [fp, #-24]	; 0xffffffe8
 c101608:	e3a000a1 	mov	r0, #161	; 0xa1
 c10160c:	e3a01066 	mov	r1, #102	; 0x66
 c101610:	e3a0200f 	mov	r2, #15
 c101614:	eb001340 	bl	c10631c <lcd_putint_x2>
 c101618:	ea00005b 	b	c10178c <menuAlarma+0x844>
			}
			else if(x1 >= 189 && x1 <= 219 && y1 >= 70 && y1 <= 100){ //s+
 c10161c:	e15b32b6 	ldrh	r3, [fp, #-38]	; 0xffffffda
 c101620:	e35300bc 	cmp	r3, #188	; 0xbc
 c101624:	9a00002a 	bls	c1016d4 <menuAlarma+0x78c>
 c101628:	e15b32b6 	ldrh	r3, [fp, #-38]	; 0xffffffda
 c10162c:	e35300db 	cmp	r3, #219	; 0xdb
 c101630:	8a000027 	bhi	c1016d4 <menuAlarma+0x78c>
 c101634:	e15b32b8 	ldrh	r3, [fp, #-40]	; 0xffffffd8
 c101638:	e3530045 	cmp	r3, #69	; 0x45
 c10163c:	9a000024 	bls	c1016d4 <menuAlarma+0x78c>
 c101640:	e15b32b8 	ldrh	r3, [fp, #-40]	; 0xffffffd8
 c101644:	e3530064 	cmp	r3, #100	; 0x64
 c101648:	8a000021 	bhi	c1016d4 <menuAlarma+0x78c>
				if(s1 == 5 && s2 == 9){
 c10164c:	e55b3019 	ldrb	r3, [fp, #-25]	; 0xffffffe7
 c101650:	e3530005 	cmp	r3, #5
 c101654:	1a000007 	bne	c101678 <menuAlarma+0x730>
 c101658:	e55b301a 	ldrb	r3, [fp, #-26]	; 0xffffffe6
 c10165c:	e3530009 	cmp	r3, #9
 c101660:	1a000004 	bne	c101678 <menuAlarma+0x730>
					s1 = 0;
 c101664:	e3a03000 	mov	r3, #0
 c101668:	e54b3019 	strb	r3, [fp, #-25]	; 0xffffffe7
					s2 = 0;
 c10166c:	e3a03000 	mov	r3, #0
 c101670:	e54b301a 	strb	r3, [fp, #-26]	; 0xffffffe6
 c101674:	ea00000b 	b	c1016a8 <menuAlarma+0x760>
				}
				else if(s2 == 9){
 c101678:	e55b301a 	ldrb	r3, [fp, #-26]	; 0xffffffe6
 c10167c:	e3530009 	cmp	r3, #9
 c101680:	1a000005 	bne	c10169c <menuAlarma+0x754>
					s2 = 0;
 c101684:	e3a03000 	mov	r3, #0
 c101688:	e54b301a 	strb	r3, [fp, #-26]	; 0xffffffe6
					s1++;
 c10168c:	e55b3019 	ldrb	r3, [fp, #-25]	; 0xffffffe7
 c101690:	e2833001 	add	r3, r3, #1
 c101694:	e54b3019 	strb	r3, [fp, #-25]	; 0xffffffe7
 c101698:	ea000002 	b	c1016a8 <menuAlarma+0x760>
				}
				else{
					s2++;
 c10169c:	e55b301a 	ldrb	r3, [fp, #-26]	; 0xffffffe6
 c1016a0:	e2833001 	add	r3, r3, #1
 c1016a4:	e54b301a 	strb	r3, [fp, #-26]	; 0xffffffe6
				}
				lcd_putint_x2(190, 102, BLACK, s1);
 c1016a8:	e55b3019 	ldrb	r3, [fp, #-25]	; 0xffffffe7
 c1016ac:	e3a000be 	mov	r0, #190	; 0xbe
 c1016b0:	e3a01066 	mov	r1, #102	; 0x66
 c1016b4:	e3a0200f 	mov	r2, #15
 c1016b8:	eb001317 	bl	c10631c <lcd_putint_x2>
				lcd_putint_x2(206, 102, BLACK, s2);
 c1016bc:	e55b301a 	ldrb	r3, [fp, #-26]	; 0xffffffe6
 c1016c0:	e3a000ce 	mov	r0, #206	; 0xce
 c1016c4:	e3a01066 	mov	r1, #102	; 0x66
 c1016c8:	e3a0200f 	mov	r2, #15
 c1016cc:	eb001312 	bl	c10631c <lcd_putint_x2>
 c1016d0:	ea00002d 	b	c10178c <menuAlarma+0x844>
			}
			else if(x1 >= 189 && x1 <= 219 && y1 >= 133 && y1 <= 163){ //s-
 c1016d4:	e15b32b6 	ldrh	r3, [fp, #-38]	; 0xffffffda
 c1016d8:	e35300bc 	cmp	r3, #188	; 0xbc
 c1016dc:	9afffe32 	bls	c100fac <menuAlarma+0x64>
 c1016e0:	e15b32b6 	ldrh	r3, [fp, #-38]	; 0xffffffda
 c1016e4:	e35300db 	cmp	r3, #219	; 0xdb
 c1016e8:	8afffe31 	bhi	c100fb4 <menuAlarma+0x6c>
 c1016ec:	e15b32b8 	ldrh	r3, [fp, #-40]	; 0xffffffd8
 c1016f0:	e3530084 	cmp	r3, #132	; 0x84
 c1016f4:	9afffe30 	bls	c100fbc <menuAlarma+0x74>
 c1016f8:	e15b32b8 	ldrh	r3, [fp, #-40]	; 0xffffffd8
 c1016fc:	e35300a3 	cmp	r3, #163	; 0xa3
 c101700:	8afffe2f 	bhi	c100fc4 <menuAlarma+0x7c>
				if(s1 == 0 && s2 == 0){
 c101704:	e55b3019 	ldrb	r3, [fp, #-25]	; 0xffffffe7
 c101708:	e3530000 	cmp	r3, #0
 c10170c:	1a000007 	bne	c101730 <menuAlarma+0x7e8>
 c101710:	e55b301a 	ldrb	r3, [fp, #-26]	; 0xffffffe6
 c101714:	e3530000 	cmp	r3, #0
 c101718:	1a000004 	bne	c101730 <menuAlarma+0x7e8>
					s1 = 5;
 c10171c:	e3a03005 	mov	r3, #5
 c101720:	e54b3019 	strb	r3, [fp, #-25]	; 0xffffffe7
					s2 = 9;
 c101724:	e3a03009 	mov	r3, #9
 c101728:	e54b301a 	strb	r3, [fp, #-26]	; 0xffffffe6
 c10172c:	ea00000b 	b	c101760 <menuAlarma+0x818>
				}
				else if(s2==0){
 c101730:	e55b301a 	ldrb	r3, [fp, #-26]	; 0xffffffe6
 c101734:	e3530000 	cmp	r3, #0
 c101738:	1a000005 	bne	c101754 <menuAlarma+0x80c>
					s2 = 9;
 c10173c:	e3a03009 	mov	r3, #9
 c101740:	e54b301a 	strb	r3, [fp, #-26]	; 0xffffffe6
					s1--;
 c101744:	e55b3019 	ldrb	r3, [fp, #-25]	; 0xffffffe7
 c101748:	e2433001 	sub	r3, r3, #1
 c10174c:	e54b3019 	strb	r3, [fp, #-25]	; 0xffffffe7
 c101750:	ea000002 	b	c101760 <menuAlarma+0x818>
				}
				else{
					s2--;
 c101754:	e55b301a 	ldrb	r3, [fp, #-26]	; 0xffffffe6
 c101758:	e2433001 	sub	r3, r3, #1
 c10175c:	e54b301a 	strb	r3, [fp, #-26]	; 0xffffffe6
				}
				lcd_putint_x2(190, 102, BLACK, s1);
 c101760:	e55b3019 	ldrb	r3, [fp, #-25]	; 0xffffffe7
 c101764:	e3a000be 	mov	r0, #190	; 0xbe
 c101768:	e3a01066 	mov	r1, #102	; 0x66
 c10176c:	e3a0200f 	mov	r2, #15
 c101770:	eb0012e9 	bl	c10631c <lcd_putint_x2>
				lcd_putint_x2(206, 102, BLACK, s2);
 c101774:	e55b301a 	ldrb	r3, [fp, #-26]	; 0xffffffe6
 c101778:	e3a000ce 	mov	r0, #206	; 0xce
 c10177c:	e3a01066 	mov	r1, #102	; 0x66
 c101780:	e3a0200f 	mov	r2, #15
 c101784:	eb0012e4 	bl	c10631c <lcd_putint_x2>
			}

	}
 c101788:	eafffe0e 	b	c100fc8 <menuAlarma+0x80>
 c10178c:	eafffe0d 	b	c100fc8 <menuAlarma+0x80>

	return a;
 c101790:	e1a01004 	mov	r1, r4
 c101794:	e24b2024 	sub	r2, fp, #36	; 0x24
 c101798:	e3a03007 	mov	r3, #7
 c10179c:	e1a00001 	mov	r0, r1
 c1017a0:	e1a01002 	mov	r1, r2
 c1017a4:	e1a02003 	mov	r2, r3
 c1017a8:	eb000706 	bl	c1033c8 <memcpy>
}
 c1017ac:	e1a00004 	mov	r0, r4
 c1017b0:	e24bd010 	sub	sp, fp, #16
 c1017b4:	e89d6810 	ldm	sp, {r4, fp, sp, lr}
 c1017b8:	e12fff1e 	bx	lr
 c1017bc:	0c10c158 	.word	0x0c10c158
 c1017c0:	0c10c15c 	.word	0x0c10c15c
 c1017c4:	0c117a75 	.word	0x0c117a75

0c1017c8 <pinta_alarma>:

void pinta_alarma( rtc_time_t alarma )
{
 c1017c8:	e1a0c00d 	mov	ip, sp
 c1017cc:	e92dd800 	push	{fp, ip, lr, pc}
 c1017d0:	e24cb004 	sub	fp, ip, #4
 c1017d4:	e24dd008 	sub	sp, sp, #8
 c1017d8:	e24b3014 	sub	r3, fp, #20
 c1017dc:	e8830003 	stm	r3, {r0, r1}
	if(flagAlarma){
 c1017e0:	e59f3150 	ldr	r3, [pc, #336]	; c101938 <pinta_alarma+0x170>
 c1017e4:	e5d33000 	ldrb	r3, [r3]
 c1017e8:	e20330ff 	and	r3, r3, #255	; 0xff
 c1017ec:	e3530000 	cmp	r3, #0
 c1017f0:	0a000048 	beq	c101918 <pinta_alarma+0x150>
			lcd_puts(260, 156, BLACK, "ON");
 c1017f4:	e3a00f41 	mov	r0, #260	; 0x104
 c1017f8:	e3a0109c 	mov	r1, #156	; 0x9c
 c1017fc:	e3a0200f 	mov	r2, #15
 c101800:	e59f3134 	ldr	r3, [pc, #308]	; c10193c <pinta_alarma+0x174>
 c101804:	eb001150 	bl	c105d4c <lcd_puts>
			if(alarma.hour < 10){
 c101808:	e55b3012 	ldrb	r3, [fp, #-18]	; 0xffffffee
 c10180c:	e3530009 	cmp	r3, #9
 c101810:	8a00000a 	bhi	c101840 <pinta_alarma+0x78>
				lcd_putint(210, 180, BLACK, 0);
 c101814:	e3a000d2 	mov	r0, #210	; 0xd2
 c101818:	e3a010b4 	mov	r1, #180	; 0xb4
 c10181c:	e3a0200f 	mov	r2, #15
 c101820:	e3a03000 	mov	r3, #0
 c101824:	eb001165 	bl	c105dc0 <lcd_putint>
				lcd_putint(218, 180, BLACK, alarma.hour);
 c101828:	e55b3012 	ldrb	r3, [fp, #-18]	; 0xffffffee
 c10182c:	e3a000da 	mov	r0, #218	; 0xda
 c101830:	e3a010b4 	mov	r1, #180	; 0xb4
 c101834:	e3a0200f 	mov	r2, #15
 c101838:	eb001160 	bl	c105dc0 <lcd_putint>
 c10183c:	ea000004 	b	c101854 <pinta_alarma+0x8c>
			}
			else{
				lcd_putint(210, 180, BLACK, alarma.hour);
 c101840:	e55b3012 	ldrb	r3, [fp, #-18]	; 0xffffffee
 c101844:	e3a000d2 	mov	r0, #210	; 0xd2
 c101848:	e3a010b4 	mov	r1, #180	; 0xb4
 c10184c:	e3a0200f 	mov	r2, #15
 c101850:	eb00115a 	bl	c105dc0 <lcd_putint>
			}

			lcd_putchar(225, 180, BLACK, ':');
 c101854:	e3a000e1 	mov	r0, #225	; 0xe1
 c101858:	e3a010b4 	mov	r1, #180	; 0xb4
 c10185c:	e3a0200f 	mov	r2, #15
 c101860:	e3a0303a 	mov	r3, #58	; 0x3a
 c101864:	eb001099 	bl	c105ad0 <lcd_putchar>
			if(alarma.min < 10){
 c101868:	e55b3013 	ldrb	r3, [fp, #-19]	; 0xffffffed
 c10186c:	e3530009 	cmp	r3, #9
 c101870:	8a00000a 	bhi	c1018a0 <pinta_alarma+0xd8>
				lcd_putint(232, 180, BLACK, 0);
 c101874:	e3a000e8 	mov	r0, #232	; 0xe8
 c101878:	e3a010b4 	mov	r1, #180	; 0xb4
 c10187c:	e3a0200f 	mov	r2, #15
 c101880:	e3a03000 	mov	r3, #0
 c101884:	eb00114d 	bl	c105dc0 <lcd_putint>
				lcd_putint(240, 180, BLACK, alarma.min);
 c101888:	e55b3013 	ldrb	r3, [fp, #-19]	; 0xffffffed
 c10188c:	e3a000f0 	mov	r0, #240	; 0xf0
 c101890:	e3a010b4 	mov	r1, #180	; 0xb4
 c101894:	e3a0200f 	mov	r2, #15
 c101898:	eb001148 	bl	c105dc0 <lcd_putint>
 c10189c:	ea000004 	b	c1018b4 <pinta_alarma+0xec>
			}
			else{
				lcd_putint(232, 180, BLACK, alarma.min);
 c1018a0:	e55b3013 	ldrb	r3, [fp, #-19]	; 0xffffffed
 c1018a4:	e3a000e8 	mov	r0, #232	; 0xe8
 c1018a8:	e3a010b4 	mov	r1, #180	; 0xb4
 c1018ac:	e3a0200f 	mov	r2, #15
 c1018b0:	eb001142 	bl	c105dc0 <lcd_putint>
			}
			lcd_putchar(247, 180, BLACK, ':');
 c1018b4:	e3a000f7 	mov	r0, #247	; 0xf7
 c1018b8:	e3a010b4 	mov	r1, #180	; 0xb4
 c1018bc:	e3a0200f 	mov	r2, #15
 c1018c0:	e3a0303a 	mov	r3, #58	; 0x3a
 c1018c4:	eb001081 	bl	c105ad0 <lcd_putchar>
			if(alarma.sec < 10){
 c1018c8:	e55b3014 	ldrb	r3, [fp, #-20]	; 0xffffffec
 c1018cc:	e3530009 	cmp	r3, #9
 c1018d0:	8a00000a 	bhi	c101900 <pinta_alarma+0x138>
				lcd_putint(254, 180, BLACK, 0);
 c1018d4:	e3a000fe 	mov	r0, #254	; 0xfe
 c1018d8:	e3a010b4 	mov	r1, #180	; 0xb4
 c1018dc:	e3a0200f 	mov	r2, #15
 c1018e0:	e3a03000 	mov	r3, #0
 c1018e4:	eb001135 	bl	c105dc0 <lcd_putint>
				lcd_putint(263, 180, BLACK, alarma.sec);
 c1018e8:	e55b3014 	ldrb	r3, [fp, #-20]	; 0xffffffec
 c1018ec:	e59f004c 	ldr	r0, [pc, #76]	; c101940 <pinta_alarma+0x178>
 c1018f0:	e3a010b4 	mov	r1, #180	; 0xb4
 c1018f4:	e3a0200f 	mov	r2, #15
 c1018f8:	eb001130 	bl	c105dc0 <lcd_putint>
 c1018fc:	ea00000a 	b	c10192c <pinta_alarma+0x164>
			}
			else{
				lcd_putint(254, 180, BLACK, alarma.sec);
 c101900:	e55b3014 	ldrb	r3, [fp, #-20]	; 0xffffffec
 c101904:	e3a000fe 	mov	r0, #254	; 0xfe
 c101908:	e3a010b4 	mov	r1, #180	; 0xb4
 c10190c:	e3a0200f 	mov	r2, #15
 c101910:	eb00112a 	bl	c105dc0 <lcd_putint>
 c101914:	ea000004 	b	c10192c <pinta_alarma+0x164>
			}
		}
		else{
			lcd_puts(260, 156, BLACK, "OFF");
 c101918:	e3a00f41 	mov	r0, #260	; 0x104
 c10191c:	e3a0109c 	mov	r1, #156	; 0x9c
 c101920:	e3a0200f 	mov	r2, #15
 c101924:	e59f3018 	ldr	r3, [pc, #24]	; c101944 <pinta_alarma+0x17c>
 c101928:	eb001107 	bl	c105d4c <lcd_puts>
		}
}
 c10192c:	e24bd00c 	sub	sp, fp, #12
 c101930:	e89d6800 	ldm	sp, {fp, sp, lr}
 c101934:	e12fff1e 	bx	lr
 c101938:	0c117a75 	.word	0x0c117a75
 c10193c:	0c10c164 	.word	0x0c10c164
 c101940:	00000107 	.word	0x00000107
 c101944:	0c10c168 	.word	0x0c10c168

0c101948 <readBeats>:

void readBeats ( uint16 *beatsPerMinute )
{
 c101948:	e1a0c00d 	mov	ip, sp
 c10194c:	e92dd800 	push	{fp, ip, lr, pc}
 c101950:	e24cb004 	sub	fp, ip, #4
 c101954:	e24dd018 	sub	sp, sp, #24
 c101958:	e50b0018 	str	r0, [fp, #-24]	; 0xffffffe8
	lcd_puts(10, 20, BLACK, "Introduce las pulsaciones por minuto: ");
 c10195c:	e3a0000a 	mov	r0, #10
 c101960:	e3a01014 	mov	r1, #20
 c101964:	e3a0200f 	mov	r2, #15
 c101968:	e59f3230 	ldr	r3, [pc, #560]	; c101ba0 <readBeats+0x258>
 c10196c:	eb0010f6 	bl	c105d4c <lcd_puts>
	//xleft yup xright ydown
	lcd_draw_box(40 ,90, 100, 150, BLACK, 3); //menos
 c101970:	e3a0300f 	mov	r3, #15
 c101974:	e58d3000 	str	r3, [sp]
 c101978:	e3a03003 	mov	r3, #3
 c10197c:	e58d3004 	str	r3, [sp, #4]
 c101980:	e3a00028 	mov	r0, #40	; 0x28
 c101984:	e3a0105a 	mov	r1, #90	; 0x5a
 c101988:	e3a02064 	mov	r2, #100	; 0x64
 c10198c:	e3a03096 	mov	r3, #150	; 0x96
 c101990:	eb001010 	bl	c1059d8 <lcd_draw_box>
	lcd_draw_hline(50, 90, 120, BLACK, 3);
 c101994:	e3a03003 	mov	r3, #3
 c101998:	e58d3000 	str	r3, [sp]
 c10199c:	e3a00032 	mov	r0, #50	; 0x32
 c1019a0:	e3a0105a 	mov	r1, #90	; 0x5a
 c1019a4:	e3a02078 	mov	r2, #120	; 0x78
 c1019a8:	e3a0300f 	mov	r3, #15
 c1019ac:	eb000f5d 	bl	c105728 <lcd_draw_hline>

	lcd_draw_box(230 ,90, 290, 150, BLACK, 3); //mas
 c1019b0:	e3a0300f 	mov	r3, #15
 c1019b4:	e58d3000 	str	r3, [sp]
 c1019b8:	e3a03003 	mov	r3, #3
 c1019bc:	e58d3004 	str	r3, [sp, #4]
 c1019c0:	e3a000e6 	mov	r0, #230	; 0xe6
 c1019c4:	e3a0105a 	mov	r1, #90	; 0x5a
 c1019c8:	e59f21d4 	ldr	r2, [pc, #468]	; c101ba4 <readBeats+0x25c>
 c1019cc:	e3a03096 	mov	r3, #150	; 0x96
 c1019d0:	eb001000 	bl	c1059d8 <lcd_draw_box>
	lcd_draw_hline(240, 280 , 120, BLACK, 3);
 c1019d4:	e3a03003 	mov	r3, #3
 c1019d8:	e58d3000 	str	r3, [sp]
 c1019dc:	e3a000f0 	mov	r0, #240	; 0xf0
 c1019e0:	e3a01f46 	mov	r1, #280	; 0x118
 c1019e4:	e3a02078 	mov	r2, #120	; 0x78
 c1019e8:	e3a0300f 	mov	r3, #15
 c1019ec:	eb000f4d 	bl	c105728 <lcd_draw_hline>
	lcd_draw_vline(100, 140, 260, BLACK, 3);
 c1019f0:	e3a03003 	mov	r3, #3
 c1019f4:	e58d3000 	str	r3, [sp]
 c1019f8:	e3a00064 	mov	r0, #100	; 0x64
 c1019fc:	e3a0108c 	mov	r1, #140	; 0x8c
 c101a00:	e3a02f41 	mov	r2, #260	; 0x104
 c101a04:	e3a0300f 	mov	r3, #15
 c101a08:	eb000f9c 	bl	c105880 <lcd_draw_vline>

	lcd_draw_box(140, 160, 190, 210, BLACK, 3); //ok
 c101a0c:	e3a0300f 	mov	r3, #15
 c101a10:	e58d3000 	str	r3, [sp]
 c101a14:	e3a03003 	mov	r3, #3
 c101a18:	e58d3004 	str	r3, [sp, #4]
 c101a1c:	e3a0008c 	mov	r0, #140	; 0x8c
 c101a20:	e3a010a0 	mov	r1, #160	; 0xa0
 c101a24:	e3a020be 	mov	r2, #190	; 0xbe
 c101a28:	e3a030d2 	mov	r3, #210	; 0xd2
 c101a2c:	eb000fe9 	bl	c1059d8 <lcd_draw_box>
	lcd_puts(157, 178, BLACK, "OK");
 c101a30:	e3a0009d 	mov	r0, #157	; 0x9d
 c101a34:	e3a010b2 	mov	r1, #178	; 0xb2
 c101a38:	e3a0200f 	mov	r2, #15
 c101a3c:	e59f3164 	ldr	r3, [pc, #356]	; c101ba8 <readBeats+0x260>
 c101a40:	eb0010c1 	bl	c105d4c <lcd_puts>

	lcd_putint_x2(150, 110, BLACK ,*beatsPerMinute);
 c101a44:	e51b3018 	ldr	r3, [fp, #-24]	; 0xffffffe8
 c101a48:	e1d330b0 	ldrh	r3, [r3]
 c101a4c:	e3a00096 	mov	r0, #150	; 0x96
 c101a50:	e3a0106e 	mov	r1, #110	; 0x6e
 c101a54:	e3a0200f 	mov	r2, #15
 c101a58:	eb00122f 	bl	c10631c <lcd_putint_x2>
 c101a5c:	ea000006 	b	c101a7c <readBeats+0x134>
		}
		if(x >= 230 && x <= 290 && y >= 90  && y <= 150){ //mas
			(*beatsPerMinute)++;
			lcd_putint_x2(150, 110, BLACK ,*beatsPerMinute);
		}
	}
 c101a60:	e1a00000 	nop			; (mov r0, r0)
 c101a64:	ea000004 	b	c101a7c <readBeats+0x134>
 c101a68:	e1a00000 	nop			; (mov r0, r0)
 c101a6c:	ea000002 	b	c101a7c <readBeats+0x134>
 c101a70:	e1a00000 	nop			; (mov r0, r0)
 c101a74:	ea000000 	b	c101a7c <readBeats+0x134>
 c101a78:	e1a00000 	nop			; (mov r0, r0)
	lcd_putint_x2(150, 110, BLACK ,*beatsPerMinute);

	uint16 x, y;

	while(1){
		ts_getpos(&x, &y);
 c101a7c:	e24b200e 	sub	r2, fp, #14
 c101a80:	e24b3010 	sub	r3, fp, #16
 c101a84:	e1a00002 	mov	r0, r2
 c101a88:	e1a01003 	mov	r1, r3
 c101a8c:	eb0022b1 	bl	c10a558 <ts_getpos>
		if(x >= 140 && x <= 190 && y >= 160 && y <= 210){ //ok
 c101a90:	e15b30be 	ldrh	r3, [fp, #-14]
 c101a94:	e353008b 	cmp	r3, #139	; 0x8b
 c101a98:	9a00000c 	bls	c101ad0 <readBeats+0x188>
 c101a9c:	e15b30be 	ldrh	r3, [fp, #-14]
 c101aa0:	e35300be 	cmp	r3, #190	; 0xbe
 c101aa4:	8a000009 	bhi	c101ad0 <readBeats+0x188>
 c101aa8:	e15b31b0 	ldrh	r3, [fp, #-16]
 c101aac:	e353009f 	cmp	r3, #159	; 0x9f
 c101ab0:	9a000006 	bls	c101ad0 <readBeats+0x188>
 c101ab4:	e15b31b0 	ldrh	r3, [fp, #-16]
 c101ab8:	e35300d2 	cmp	r3, #210	; 0xd2
 c101abc:	8a000003 	bhi	c101ad0 <readBeats+0x188>
		if(x >= 230 && x <= 290 && y >= 90  && y <= 150){ //mas
			(*beatsPerMinute)++;
			lcd_putint_x2(150, 110, BLACK ,*beatsPerMinute);
		}
	}
	lcd_clear();
 c101ac0:	eb000e9e 	bl	c105540 <lcd_clear>

}
 c101ac4:	e24bd00c 	sub	sp, fp, #12
 c101ac8:	e89d6800 	ldm	sp, {fp, sp, lr}
 c101acc:	e12fff1e 	bx	lr
	while(1){
		ts_getpos(&x, &y);
		if(x >= 140 && x <= 190 && y >= 160 && y <= 210){ //ok
			break;
		}
		if(x >= 40 && x <= 100 && y >= 90 && y <= 150){ //menos
 c101ad0:	e15b30be 	ldrh	r3, [fp, #-14]
 c101ad4:	e3530027 	cmp	r3, #39	; 0x27
 c101ad8:	9a000015 	bls	c101b34 <readBeats+0x1ec>
 c101adc:	e15b30be 	ldrh	r3, [fp, #-14]
 c101ae0:	e3530064 	cmp	r3, #100	; 0x64
 c101ae4:	8a000012 	bhi	c101b34 <readBeats+0x1ec>
 c101ae8:	e15b31b0 	ldrh	r3, [fp, #-16]
 c101aec:	e3530059 	cmp	r3, #89	; 0x59
 c101af0:	9a00000f 	bls	c101b34 <readBeats+0x1ec>
 c101af4:	e15b31b0 	ldrh	r3, [fp, #-16]
 c101af8:	e3530096 	cmp	r3, #150	; 0x96
 c101afc:	8a00000c 	bhi	c101b34 <readBeats+0x1ec>
			(*beatsPerMinute)--;
 c101b00:	e51b3018 	ldr	r3, [fp, #-24]	; 0xffffffe8
 c101b04:	e1d330b0 	ldrh	r3, [r3]
 c101b08:	e2433001 	sub	r3, r3, #1
 c101b0c:	e1a03803 	lsl	r3, r3, #16
 c101b10:	e1a02823 	lsr	r2, r3, #16
 c101b14:	e51b3018 	ldr	r3, [fp, #-24]	; 0xffffffe8
 c101b18:	e1c320b0 	strh	r2, [r3]
			lcd_putint_x2(150, 110, BLACK ,*beatsPerMinute);
 c101b1c:	e51b3018 	ldr	r3, [fp, #-24]	; 0xffffffe8
 c101b20:	e1d330b0 	ldrh	r3, [r3]
 c101b24:	e3a00096 	mov	r0, #150	; 0x96
 c101b28:	e3a0106e 	mov	r1, #110	; 0x6e
 c101b2c:	e3a0200f 	mov	r2, #15
 c101b30:	eb0011f9 	bl	c10631c <lcd_putint_x2>
		}
		if(x >= 230 && x <= 290 && y >= 90  && y <= 150){ //mas
 c101b34:	e15b30be 	ldrh	r3, [fp, #-14]
 c101b38:	e35300e5 	cmp	r3, #229	; 0xe5
 c101b3c:	9affffc7 	bls	c101a60 <readBeats+0x118>
 c101b40:	e15b20be 	ldrh	r2, [fp, #-14]
 c101b44:	e59f3058 	ldr	r3, [pc, #88]	; c101ba4 <readBeats+0x25c>
 c101b48:	e1520003 	cmp	r2, r3
 c101b4c:	8affffc5 	bhi	c101a68 <readBeats+0x120>
 c101b50:	e15b31b0 	ldrh	r3, [fp, #-16]
 c101b54:	e3530059 	cmp	r3, #89	; 0x59
 c101b58:	9affffc4 	bls	c101a70 <readBeats+0x128>
 c101b5c:	e15b31b0 	ldrh	r3, [fp, #-16]
 c101b60:	e3530096 	cmp	r3, #150	; 0x96
 c101b64:	8affffc3 	bhi	c101a78 <readBeats+0x130>
			(*beatsPerMinute)++;
 c101b68:	e51b3018 	ldr	r3, [fp, #-24]	; 0xffffffe8
 c101b6c:	e1d330b0 	ldrh	r3, [r3]
 c101b70:	e2833001 	add	r3, r3, #1
 c101b74:	e1a03803 	lsl	r3, r3, #16
 c101b78:	e1a02823 	lsr	r2, r3, #16
 c101b7c:	e51b3018 	ldr	r3, [fp, #-24]	; 0xffffffe8
 c101b80:	e1c320b0 	strh	r2, [r3]
			lcd_putint_x2(150, 110, BLACK ,*beatsPerMinute);
 c101b84:	e51b3018 	ldr	r3, [fp, #-24]	; 0xffffffe8
 c101b88:	e1d330b0 	ldrh	r3, [r3]
 c101b8c:	e3a00096 	mov	r0, #150	; 0x96
 c101b90:	e3a0106e 	mov	r1, #110	; 0x6e
 c101b94:	e3a0200f 	mov	r2, #15
 c101b98:	eb0011df 	bl	c10631c <lcd_putint_x2>
		}
	}
 c101b9c:	eaffffb6 	b	c101a7c <readBeats+0x134>
 c101ba0:	0c10c16c 	.word	0x0c10c16c
 c101ba4:	00000122 	.word	0x00000122
 c101ba8:	0c10c158 	.word	0x0c10c158

0c101bac <readSteps>:
	lcd_clear();

}

void readSteps ( uint16 *stepsPerMinute )
{
 c101bac:	e1a0c00d 	mov	ip, sp
 c101bb0:	e92dd800 	push	{fp, ip, lr, pc}
 c101bb4:	e24cb004 	sub	fp, ip, #4
 c101bb8:	e24dd018 	sub	sp, sp, #24
 c101bbc:	e50b0018 	str	r0, [fp, #-24]	; 0xffffffe8
	uint16 x, y;
	lcd_puts(10, 20, BLACK, "Introduce los pasos por minuto: ");
 c101bc0:	e3a0000a 	mov	r0, #10
 c101bc4:	e3a01014 	mov	r1, #20
 c101bc8:	e3a0200f 	mov	r2, #15
 c101bcc:	e59f3230 	ldr	r3, [pc, #560]	; c101e04 <readSteps+0x258>
 c101bd0:	eb00105d 	bl	c105d4c <lcd_puts>
		//xleft yup xright ydown
	lcd_draw_box(40 ,90, 100, 150, BLACK, 3); //menos
 c101bd4:	e3a0300f 	mov	r3, #15
 c101bd8:	e58d3000 	str	r3, [sp]
 c101bdc:	e3a03003 	mov	r3, #3
 c101be0:	e58d3004 	str	r3, [sp, #4]
 c101be4:	e3a00028 	mov	r0, #40	; 0x28
 c101be8:	e3a0105a 	mov	r1, #90	; 0x5a
 c101bec:	e3a02064 	mov	r2, #100	; 0x64
 c101bf0:	e3a03096 	mov	r3, #150	; 0x96
 c101bf4:	eb000f77 	bl	c1059d8 <lcd_draw_box>
	lcd_draw_hline(50, 90, 120, BLACK, 3);
 c101bf8:	e3a03003 	mov	r3, #3
 c101bfc:	e58d3000 	str	r3, [sp]
 c101c00:	e3a00032 	mov	r0, #50	; 0x32
 c101c04:	e3a0105a 	mov	r1, #90	; 0x5a
 c101c08:	e3a02078 	mov	r2, #120	; 0x78
 c101c0c:	e3a0300f 	mov	r3, #15
 c101c10:	eb000ec4 	bl	c105728 <lcd_draw_hline>

	lcd_draw_box(230 ,90, 290, 150, BLACK, 3); //mas
 c101c14:	e3a0300f 	mov	r3, #15
 c101c18:	e58d3000 	str	r3, [sp]
 c101c1c:	e3a03003 	mov	r3, #3
 c101c20:	e58d3004 	str	r3, [sp, #4]
 c101c24:	e3a000e6 	mov	r0, #230	; 0xe6
 c101c28:	e3a0105a 	mov	r1, #90	; 0x5a
 c101c2c:	e59f21d4 	ldr	r2, [pc, #468]	; c101e08 <readSteps+0x25c>
 c101c30:	e3a03096 	mov	r3, #150	; 0x96
 c101c34:	eb000f67 	bl	c1059d8 <lcd_draw_box>
	lcd_draw_hline(240, 280 , 120, BLACK, 3);
 c101c38:	e3a03003 	mov	r3, #3
 c101c3c:	e58d3000 	str	r3, [sp]
 c101c40:	e3a000f0 	mov	r0, #240	; 0xf0
 c101c44:	e3a01f46 	mov	r1, #280	; 0x118
 c101c48:	e3a02078 	mov	r2, #120	; 0x78
 c101c4c:	e3a0300f 	mov	r3, #15
 c101c50:	eb000eb4 	bl	c105728 <lcd_draw_hline>
	lcd_draw_vline(100, 140, 260, BLACK, 3);
 c101c54:	e3a03003 	mov	r3, #3
 c101c58:	e58d3000 	str	r3, [sp]
 c101c5c:	e3a00064 	mov	r0, #100	; 0x64
 c101c60:	e3a0108c 	mov	r1, #140	; 0x8c
 c101c64:	e3a02f41 	mov	r2, #260	; 0x104
 c101c68:	e3a0300f 	mov	r3, #15
 c101c6c:	eb000f03 	bl	c105880 <lcd_draw_vline>

	lcd_draw_box(140, 160, 190, 210, BLACK, 3); //ok
 c101c70:	e3a0300f 	mov	r3, #15
 c101c74:	e58d3000 	str	r3, [sp]
 c101c78:	e3a03003 	mov	r3, #3
 c101c7c:	e58d3004 	str	r3, [sp, #4]
 c101c80:	e3a0008c 	mov	r0, #140	; 0x8c
 c101c84:	e3a010a0 	mov	r1, #160	; 0xa0
 c101c88:	e3a020be 	mov	r2, #190	; 0xbe
 c101c8c:	e3a030d2 	mov	r3, #210	; 0xd2
 c101c90:	eb000f50 	bl	c1059d8 <lcd_draw_box>
	lcd_puts(157, 178, BLACK, "OK");
 c101c94:	e3a0009d 	mov	r0, #157	; 0x9d
 c101c98:	e3a010b2 	mov	r1, #178	; 0xb2
 c101c9c:	e3a0200f 	mov	r2, #15
 c101ca0:	e59f3164 	ldr	r3, [pc, #356]	; c101e0c <readSteps+0x260>
 c101ca4:	eb001028 	bl	c105d4c <lcd_puts>

	lcd_putint_x2(150, 110, BLACK ,*stepsPerMinute);
 c101ca8:	e51b3018 	ldr	r3, [fp, #-24]	; 0xffffffe8
 c101cac:	e1d330b0 	ldrh	r3, [r3]
 c101cb0:	e3a00096 	mov	r0, #150	; 0x96
 c101cb4:	e3a0106e 	mov	r1, #110	; 0x6e
 c101cb8:	e3a0200f 	mov	r2, #15
 c101cbc:	eb001196 	bl	c10631c <lcd_putint_x2>
 c101cc0:	ea000006 	b	c101ce0 <readSteps+0x134>
		}
		if(x >= 230 && x <= 290 && y >= 90  && y <= 150){ //mas
			(*stepsPerMinute)++;
			lcd_putint_x2(150, 110, BLACK ,*stepsPerMinute);
		}
	}
 c101cc4:	e1a00000 	nop			; (mov r0, r0)
 c101cc8:	ea000004 	b	c101ce0 <readSteps+0x134>
 c101ccc:	e1a00000 	nop			; (mov r0, r0)
 c101cd0:	ea000002 	b	c101ce0 <readSteps+0x134>
 c101cd4:	e1a00000 	nop			; (mov r0, r0)
 c101cd8:	ea000000 	b	c101ce0 <readSteps+0x134>
 c101cdc:	e1a00000 	nop			; (mov r0, r0)

	lcd_putint_x2(150, 110, BLACK ,*stepsPerMinute);


	while(1){
		ts_getpos(&x, &y);
 c101ce0:	e24b200e 	sub	r2, fp, #14
 c101ce4:	e24b3010 	sub	r3, fp, #16
 c101ce8:	e1a00002 	mov	r0, r2
 c101cec:	e1a01003 	mov	r1, r3
 c101cf0:	eb002218 	bl	c10a558 <ts_getpos>
		if(x >= 140 && x <= 190 && y >= 160 && y <= 210){ //ok
 c101cf4:	e15b30be 	ldrh	r3, [fp, #-14]
 c101cf8:	e353008b 	cmp	r3, #139	; 0x8b
 c101cfc:	9a00000c 	bls	c101d34 <readSteps+0x188>
 c101d00:	e15b30be 	ldrh	r3, [fp, #-14]
 c101d04:	e35300be 	cmp	r3, #190	; 0xbe
 c101d08:	8a000009 	bhi	c101d34 <readSteps+0x188>
 c101d0c:	e15b31b0 	ldrh	r3, [fp, #-16]
 c101d10:	e353009f 	cmp	r3, #159	; 0x9f
 c101d14:	9a000006 	bls	c101d34 <readSteps+0x188>
 c101d18:	e15b31b0 	ldrh	r3, [fp, #-16]
 c101d1c:	e35300d2 	cmp	r3, #210	; 0xd2
 c101d20:	8a000003 	bhi	c101d34 <readSteps+0x188>
		if(x >= 230 && x <= 290 && y >= 90  && y <= 150){ //mas
			(*stepsPerMinute)++;
			lcd_putint_x2(150, 110, BLACK ,*stepsPerMinute);
		}
	}
	lcd_clear();
 c101d24:	eb000e05 	bl	c105540 <lcd_clear>
}
 c101d28:	e24bd00c 	sub	sp, fp, #12
 c101d2c:	e89d6800 	ldm	sp, {fp, sp, lr}
 c101d30:	e12fff1e 	bx	lr
	while(1){
		ts_getpos(&x, &y);
		if(x >= 140 && x <= 190 && y >= 160 && y <= 210){ //ok
			break;
		}
		if(x >= 40 && x <= 100 && y >= 90 && y <= 150){ //menos
 c101d34:	e15b30be 	ldrh	r3, [fp, #-14]
 c101d38:	e3530027 	cmp	r3, #39	; 0x27
 c101d3c:	9a000015 	bls	c101d98 <readSteps+0x1ec>
 c101d40:	e15b30be 	ldrh	r3, [fp, #-14]
 c101d44:	e3530064 	cmp	r3, #100	; 0x64
 c101d48:	8a000012 	bhi	c101d98 <readSteps+0x1ec>
 c101d4c:	e15b31b0 	ldrh	r3, [fp, #-16]
 c101d50:	e3530059 	cmp	r3, #89	; 0x59
 c101d54:	9a00000f 	bls	c101d98 <readSteps+0x1ec>
 c101d58:	e15b31b0 	ldrh	r3, [fp, #-16]
 c101d5c:	e3530096 	cmp	r3, #150	; 0x96
 c101d60:	8a00000c 	bhi	c101d98 <readSteps+0x1ec>
			(*stepsPerMinute)--;
 c101d64:	e51b3018 	ldr	r3, [fp, #-24]	; 0xffffffe8
 c101d68:	e1d330b0 	ldrh	r3, [r3]
 c101d6c:	e2433001 	sub	r3, r3, #1
 c101d70:	e1a03803 	lsl	r3, r3, #16
 c101d74:	e1a02823 	lsr	r2, r3, #16
 c101d78:	e51b3018 	ldr	r3, [fp, #-24]	; 0xffffffe8
 c101d7c:	e1c320b0 	strh	r2, [r3]
			lcd_putint_x2(150, 110, BLACK ,*stepsPerMinute);
 c101d80:	e51b3018 	ldr	r3, [fp, #-24]	; 0xffffffe8
 c101d84:	e1d330b0 	ldrh	r3, [r3]
 c101d88:	e3a00096 	mov	r0, #150	; 0x96
 c101d8c:	e3a0106e 	mov	r1, #110	; 0x6e
 c101d90:	e3a0200f 	mov	r2, #15
 c101d94:	eb001160 	bl	c10631c <lcd_putint_x2>
		}
		if(x >= 230 && x <= 290 && y >= 90  && y <= 150){ //mas
 c101d98:	e15b30be 	ldrh	r3, [fp, #-14]
 c101d9c:	e35300e5 	cmp	r3, #229	; 0xe5
 c101da0:	9affffc7 	bls	c101cc4 <readSteps+0x118>
 c101da4:	e15b20be 	ldrh	r2, [fp, #-14]
 c101da8:	e59f3058 	ldr	r3, [pc, #88]	; c101e08 <readSteps+0x25c>
 c101dac:	e1520003 	cmp	r2, r3
 c101db0:	8affffc5 	bhi	c101ccc <readSteps+0x120>
 c101db4:	e15b31b0 	ldrh	r3, [fp, #-16]
 c101db8:	e3530059 	cmp	r3, #89	; 0x59
 c101dbc:	9affffc4 	bls	c101cd4 <readSteps+0x128>
 c101dc0:	e15b31b0 	ldrh	r3, [fp, #-16]
 c101dc4:	e3530096 	cmp	r3, #150	; 0x96
 c101dc8:	8affffc3 	bhi	c101cdc <readSteps+0x130>
			(*stepsPerMinute)++;
 c101dcc:	e51b3018 	ldr	r3, [fp, #-24]	; 0xffffffe8
 c101dd0:	e1d330b0 	ldrh	r3, [r3]
 c101dd4:	e2833001 	add	r3, r3, #1
 c101dd8:	e1a03803 	lsl	r3, r3, #16
 c101ddc:	e1a02823 	lsr	r2, r3, #16
 c101de0:	e51b3018 	ldr	r3, [fp, #-24]	; 0xffffffe8
 c101de4:	e1c320b0 	strh	r2, [r3]
			lcd_putint_x2(150, 110, BLACK ,*stepsPerMinute);
 c101de8:	e51b3018 	ldr	r3, [fp, #-24]	; 0xffffffe8
 c101dec:	e1d330b0 	ldrh	r3, [r3]
 c101df0:	e3a00096 	mov	r0, #150	; 0x96
 c101df4:	e3a0106e 	mov	r1, #110	; 0x6e
 c101df8:	e3a0200f 	mov	r2, #15
 c101dfc:	eb001146 	bl	c10631c <lcd_putint_x2>
		}
	}
 c101e00:	eaffffb6 	b	c101ce0 <readSteps+0x134>
 c101e04:	0c10c194 	.word	0x0c10c194
 c101e08:	00000122 	.word	0x00000122
 c101e0c:	0c10c158 	.word	0x0c10c158

0c101e10 <alertaPulsaciones>:
	lcd_clear();
}

void alertaPulsaciones ( uint16 beatsPerMinute )
{
 c101e10:	e1a0c00d 	mov	ip, sp
 c101e14:	e92dd800 	push	{fp, ip, lr, pc}
 c101e18:	e24cb004 	sub	fp, ip, #4
 c101e1c:	e24dd008 	sub	sp, sp, #8
 c101e20:	e1a03000 	mov	r3, r0
 c101e24:	e14b30be 	strh	r3, [fp, #-14]
	lcd_clear();
 c101e28:	eb000dc4 	bl	c105540 <lcd_clear>
	lcd_puts(10, 10, BLACK, "Cuidado, pulsaciones muy elevadas!");
 c101e2c:	e3a0000a 	mov	r0, #10
 c101e30:	e3a0100a 	mov	r1, #10
 c101e34:	e3a0200f 	mov	r2, #15
 c101e38:	e59f3058 	ldr	r3, [pc, #88]	; c101e98 <alertaPulsaciones+0x88>
 c101e3c:	eb000fc2 	bl	c105d4c <lcd_puts>
	lcd_puts(10, 50, BLACK, "Actualmente son de mas de 200!");
 c101e40:	e3a0000a 	mov	r0, #10
 c101e44:	e3a01032 	mov	r1, #50	; 0x32
 c101e48:	e3a0200f 	mov	r2, #15
 c101e4c:	e59f3048 	ldr	r3, [pc, #72]	; c101e9c <alertaPulsaciones+0x8c>
 c101e50:	eb000fbd 	bl	c105d4c <lcd_puts>
	lcd_puts(10, 90, BLACK, "Relajate y toma un descanso, por favor");
 c101e54:	e3a0000a 	mov	r0, #10
 c101e58:	e3a0105a 	mov	r1, #90	; 0x5a
 c101e5c:	e3a0200f 	mov	r2, #15
 c101e60:	e59f3038 	ldr	r3, [pc, #56]	; c101ea0 <alertaPulsaciones+0x90>
 c101e64:	eb000fb8 	bl	c105d4c <lcd_puts>
	uda1341ts_setvol( VOL_MAX );
 c101e68:	e3a0003f 	mov	r0, #63	; 0x3f
 c101e6c:	eb0023e2 	bl	c10adfc <uda1341ts_setvol>
	iis_playWawFile( DTMF0, TRUE );
 c101e70:	e3a00531 	mov	r0, #205520896	; 0xc400000
 c101e74:	e3a01001 	mov	r1, #1
 c101e78:	eb000b76 	bl	c104c58 <iis_playWawFile>
	sw_delay_s(5);
 c101e7c:	e3a00005 	mov	r0, #5
 c101e80:	eb001d7e 	bl	c109480 <sw_delay_s>
	iis_pause();
 c101e84:	eb000b4e 	bl	c104bc4 <iis_pause>
	lcd_clear();
 c101e88:	eb000dac 	bl	c105540 <lcd_clear>
}
 c101e8c:	e24bd00c 	sub	sp, fp, #12
 c101e90:	e89d6800 	ldm	sp, {fp, sp, lr}
 c101e94:	e12fff1e 	bx	lr
 c101e98:	0c10c1b8 	.word	0x0c10c1b8
 c101e9c:	0c10c1dc 	.word	0x0c10c1dc
 c101ea0:	0c10c1fc 	.word	0x0c10c1fc

0c101ea4 <beatHandler>:


void beatHandler( void )
{
 c101ea4:	e52dc004 	push	{ip}		; (str ip, [sp, #-4]!)
 c101ea8:	e1a0c00d 	mov	ip, sp
 c101eac:	e92dd80c 	push	{r2, r3, fp, ip, lr, pc}
 c101eb0:	e24cb004 	sub	fp, ip, #4
	if(!flagUpdateSB)
 c101eb4:	e59f3050 	ldr	r3, [pc, #80]	; c101f0c <beatHandler+0x68>
 c101eb8:	e5d33000 	ldrb	r3, [r3]
 c101ebc:	e20330ff 	and	r3, r3, #255	; 0xff
 c101ec0:	e3530000 	cmp	r3, #0
 c101ec4:	1a000006 	bne	c101ee4 <beatHandler+0x40>
		nBeatsIn10Secs++;
 c101ec8:	e59f3040 	ldr	r3, [pc, #64]	; c101f10 <beatHandler+0x6c>
 c101ecc:	e5d33000 	ldrb	r3, [r3]
 c101ed0:	e20330ff 	and	r3, r3, #255	; 0xff
 c101ed4:	e2833001 	add	r3, r3, #1
 c101ed8:	e20320ff 	and	r2, r3, #255	; 0xff
 c101edc:	e59f302c 	ldr	r3, [pc, #44]	; c101f10 <beatHandler+0x6c>
 c101ee0:	e5c32000 	strb	r2, [r3]
    newBeat = TRUE;
 c101ee4:	e59f3028 	ldr	r3, [pc, #40]	; c101f14 <beatHandler+0x70>
 c101ee8:	e3a02001 	mov	r2, #1
 c101eec:	e5c32000 	strb	r2, [r3]
    I_ISPC  = BIT_BEATEMULATOR;
 c101ef0:	e59f3020 	ldr	r3, [pc, #32]	; c101f18 <beatHandler+0x74>
 c101ef4:	e3a02b01 	mov	r2, #1024	; 0x400
 c101ef8:	e5832000 	str	r2, [r3]
}
 c101efc:	e24bd014 	sub	sp, fp, #20
 c101f00:	e89d680c 	ldm	sp, {r2, r3, fp, sp, lr}
 c101f04:	e49dc004 	pop	{ip}		; (ldr ip, [sp], #4)
 c101f08:	e25ef004 	subs	pc, lr, #4
 c101f0c:	0c117a7d 	.word	0x0c117a7d
 c101f10:	0c117a7a 	.word	0x0c117a7a
 c101f14:	0c117614 	.word	0x0c117614
 c101f18:	01e00024 	.word	0x01e00024

0c101f1c <stepHandler>:

void stepHandler( void )
{
 c101f1c:	e52dc004 	push	{ip}		; (str ip, [sp, #-4]!)
 c101f20:	e1a0c00d 	mov	ip, sp
 c101f24:	e92dd80c 	push	{r2, r3, fp, ip, lr, pc}
 c101f28:	e24cb004 	sub	fp, ip, #4
	if(!flagUpdateSB)
 c101f2c:	e59f3050 	ldr	r3, [pc, #80]	; c101f84 <stepHandler+0x68>
 c101f30:	e5d33000 	ldrb	r3, [r3]
 c101f34:	e20330ff 	and	r3, r3, #255	; 0xff
 c101f38:	e3530000 	cmp	r3, #0
 c101f3c:	1a000006 	bne	c101f5c <stepHandler+0x40>
		nStepsIn10Secs++;
 c101f40:	e59f3040 	ldr	r3, [pc, #64]	; c101f88 <stepHandler+0x6c>
 c101f44:	e5d33000 	ldrb	r3, [r3]
 c101f48:	e20330ff 	and	r3, r3, #255	; 0xff
 c101f4c:	e2833001 	add	r3, r3, #1
 c101f50:	e20320ff 	and	r2, r3, #255	; 0xff
 c101f54:	e59f302c 	ldr	r3, [pc, #44]	; c101f88 <stepHandler+0x6c>
 c101f58:	e5c32000 	strb	r2, [r3]
    newStep = TRUE;
 c101f5c:	e59f3028 	ldr	r3, [pc, #40]	; c101f8c <stepHandler+0x70>
 c101f60:	e3a02001 	mov	r2, #1
 c101f64:	e5c32000 	strb	r2, [r3]
    I_ISPC  = BIT_STEPEMULATOR;
 c101f68:	e59f3020 	ldr	r3, [pc, #32]	; c101f90 <stepHandler+0x74>
 c101f6c:	e3a02b02 	mov	r2, #2048	; 0x800
 c101f70:	e5832000 	str	r2, [r3]
}
 c101f74:	e24bd014 	sub	sp, fp, #20
 c101f78:	e89d680c 	ldm	sp, {r2, r3, fp, sp, lr}
 c101f7c:	e49dc004 	pop	{ip}		; (ldr ip, [sp], #4)
 c101f80:	e25ef004 	subs	pc, lr, #4
 c101f84:	0c117a7d 	.word	0x0c117a7d
 c101f88:	0c117a78 	.word	0x0c117a78
 c101f8c:	0c117615 	.word	0x0c117615
 c101f90:	01e00024 	.word	0x01e00024

0c101f94 <isr_tick>:

void isr_tick( void ){ //1000 ticks -> 1 sec
 c101f94:	e52dc004 	push	{ip}		; (str ip, [sp, #-4]!)
 c101f98:	e1a0c00d 	mov	ip, sp
 c101f9c:	e92dd80c 	push	{r2, r3, fp, ip, lr, pc}
 c101fa0:	e24cb004 	sub	fp, ip, #4
	static uint16 cont1000ticks    = 1000;
	static uint16 cont500ticks    = 500;
	static uint16 cont100ticks  = 100;
	if( !(--cont100ticks) )
 c101fa4:	e59f30e0 	ldr	r3, [pc, #224]	; c10208c <isr_tick+0xf8>
 c101fa8:	e1d330b0 	ldrh	r3, [r3]
 c101fac:	e2433001 	sub	r3, r3, #1
 c101fb0:	e1a03803 	lsl	r3, r3, #16
 c101fb4:	e1a02823 	lsr	r2, r3, #16
 c101fb8:	e59f30cc 	ldr	r3, [pc, #204]	; c10208c <isr_tick+0xf8>
 c101fbc:	e1c320b0 	strh	r2, [r3]
 c101fc0:	e59f30c4 	ldr	r3, [pc, #196]	; c10208c <isr_tick+0xf8>
 c101fc4:	e1d330b0 	ldrh	r3, [r3]
 c101fc8:	e3530000 	cmp	r3, #0
 c101fcc:	1a000005 	bne	c101fe8 <isr_tick+0x54>
	{
		cont100ticks = 100;
 c101fd0:	e59f30b4 	ldr	r3, [pc, #180]	; c10208c <isr_tick+0xf8>
 c101fd4:	e3a02064 	mov	r2, #100	; 0x64
 c101fd8:	e1c320b0 	strh	r2, [r3]
		flagRTC = TRUE;
 c101fdc:	e59f30ac 	ldr	r3, [pc, #172]	; c102090 <isr_tick+0xfc>
 c101fe0:	e3a02001 	mov	r2, #1
 c101fe4:	e5c32000 	strb	r2, [r3]
	}
	if( !(--cont500ticks) ){
 c101fe8:	e59f30a4 	ldr	r3, [pc, #164]	; c102094 <isr_tick+0x100>
 c101fec:	e1d330b0 	ldrh	r3, [r3]
 c101ff0:	e2433001 	sub	r3, r3, #1
 c101ff4:	e1a03803 	lsl	r3, r3, #16
 c101ff8:	e1a02823 	lsr	r2, r3, #16
 c101ffc:	e59f3090 	ldr	r3, [pc, #144]	; c102094 <isr_tick+0x100>
 c102000:	e1c320b0 	strh	r2, [r3]
 c102004:	e59f3088 	ldr	r3, [pc, #136]	; c102094 <isr_tick+0x100>
 c102008:	e1d330b0 	ldrh	r3, [r3]
 c10200c:	e3530000 	cmp	r3, #0
 c102010:	1a000005 	bne	c10202c <isr_tick+0x98>
		cont500ticks = 500;
 c102014:	e59f3078 	ldr	r3, [pc, #120]	; c102094 <isr_tick+0x100>
 c102018:	e3a02f7d 	mov	r2, #500	; 0x1f4
 c10201c:	e1c320b0 	strh	r2, [r3]
		flagCheckPulsaciones = TRUE;
 c102020:	e59f3070 	ldr	r3, [pc, #112]	; c102098 <isr_tick+0x104>
 c102024:	e3a02001 	mov	r2, #1
 c102028:	e5c32000 	strb	r2, [r3]
	}

	if( !(--cont1000ticks) )
 c10202c:	e59f3068 	ldr	r3, [pc, #104]	; c10209c <isr_tick+0x108>
 c102030:	e1d330b0 	ldrh	r3, [r3]
 c102034:	e2433001 	sub	r3, r3, #1
 c102038:	e1a03803 	lsl	r3, r3, #16
 c10203c:	e1a02823 	lsr	r2, r3, #16
 c102040:	e59f3054 	ldr	r3, [pc, #84]	; c10209c <isr_tick+0x108>
 c102044:	e1c320b0 	strh	r2, [r3]
 c102048:	e59f304c 	ldr	r3, [pc, #76]	; c10209c <isr_tick+0x108>
 c10204c:	e1d330b0 	ldrh	r3, [r3]
 c102050:	e3530000 	cmp	r3, #0
 c102054:	1a000005 	bne	c102070 <isr_tick+0xdc>
	{
	    cont1000ticks = 1000;
 c102058:	e59f303c 	ldr	r3, [pc, #60]	; c10209c <isr_tick+0x108>
 c10205c:	e3a02ffa 	mov	r2, #1000	; 0x3e8
 c102060:	e1c320b0 	strh	r2, [r3]
	    flagUpdateSB = TRUE;
 c102064:	e59f3034 	ldr	r3, [pc, #52]	; c1020a0 <isr_tick+0x10c>
 c102068:	e3a02001 	mov	r2, #1
 c10206c:	e5c32000 	strb	r2, [r3]
	}

	I_ISPC = BIT_TIMER0;
 c102070:	e59f302c 	ldr	r3, [pc, #44]	; c1020a4 <isr_tick+0x110>
 c102074:	e3a02a02 	mov	r2, #8192	; 0x2000
 c102078:	e5832000 	str	r2, [r3]
}
 c10207c:	e24bd014 	sub	sp, fp, #20
 c102080:	e89d680c 	ldm	sp, {r2, r3, fp, sp, lr}
 c102084:	e49dc004 	pop	{ip}		; (ldr ip, [sp], #4)
 c102088:	e25ef004 	subs	pc, lr, #4
 c10208c:	0c10dffc 	.word	0x0c10dffc
 c102090:	0c117a77 	.word	0x0c117a77
 c102094:	0c10dffe 	.word	0x0c10dffe
 c102098:	0c117a7b 	.word	0x0c117a7b
 c10209c:	0c10e000 	.word	0x0c10e000
 c1020a0:	0c117a7d 	.word	0x0c117a7d
 c1020a4:	01e00024 	.word	0x01e00024

0c1020a8 <activaAlertaAlarma>:

void activaAlertaAlarma ( rtc_time_t alarma )
{
 c1020a8:	e1a0c00d 	mov	ip, sp
 c1020ac:	e92dd800 	push	{fp, ip, lr, pc}
 c1020b0:	e24cb004 	sub	fp, ip, #4
 c1020b4:	e24dd008 	sub	sp, sp, #8
 c1020b8:	e24b3014 	sub	r3, fp, #20
 c1020bc:	e8830003 	stm	r3, {r0, r1}
	flagPBS = FALSE;
 c1020c0:	e59f3088 	ldr	r3, [pc, #136]	; c102150 <activaAlertaAlarma+0xa8>
 c1020c4:	e3a02000 	mov	r2, #0
 c1020c8:	e5c32000 	strb	r2, [r3]
	lcd_clear();
 c1020cc:	eb000d1b 	bl	c105540 <lcd_clear>
	lcd_puts_x2(10, 20, BLACK, "Alarma a las: ");
 c1020d0:	e3a0000a 	mov	r0, #10
 c1020d4:	e3a01014 	mov	r1, #20
 c1020d8:	e3a0200f 	mov	r2, #15
 c1020dc:	e59f3070 	ldr	r3, [pc, #112]	; c102154 <activaAlertaAlarma+0xac>
 c1020e0:	eb001070 	bl	c1062a8 <lcd_puts_x2>
	put_time_x2(alarma);
 c1020e4:	e24b3014 	sub	r3, fp, #20
 c1020e8:	e8930003 	ldm	r3, {r0, r1}
 c1020ec:	ebfff98e 	bl	c10072c <put_time_x2>
	lcd_puts(30, 200, BLACK, "Pulsa el PBS para finalizar.");
 c1020f0:	e3a0001e 	mov	r0, #30
 c1020f4:	e3a010c8 	mov	r1, #200	; 0xc8
 c1020f8:	e3a0200f 	mov	r2, #15
 c1020fc:	e59f3054 	ldr	r3, [pc, #84]	; c102158 <activaAlertaAlarma+0xb0>
 c102100:	eb000f11 	bl	c105d4c <lcd_puts>
	uda1341ts_setvol( VOL_MAX );
 c102104:	e3a0003f 	mov	r0, #63	; 0x3f
 c102108:	eb00233b 	bl	c10adfc <uda1341ts_setvol>
	iis_playWawFile( NOKIATUNE, TRUE );
 c10210c:	e59f0048 	ldr	r0, [pc, #72]	; c10215c <activaAlertaAlarma+0xb4>
 c102110:	e3a01001 	mov	r1, #1
 c102114:	eb000acf 	bl	c104c58 <iis_playWawFile>
	while(!flagPBS);
 c102118:	e1a00000 	nop			; (mov r0, r0)
 c10211c:	e59f302c 	ldr	r3, [pc, #44]	; c102150 <activaAlertaAlarma+0xa8>
 c102120:	e5d33000 	ldrb	r3, [r3]
 c102124:	e20330ff 	and	r3, r3, #255	; 0xff
 c102128:	e3530000 	cmp	r3, #0
 c10212c:	0afffffa 	beq	c10211c <activaAlertaAlarma+0x74>
	flagPBS = FALSE;
 c102130:	e59f3018 	ldr	r3, [pc, #24]	; c102150 <activaAlertaAlarma+0xa8>
 c102134:	e3a02000 	mov	r2, #0
 c102138:	e5c32000 	strb	r2, [r3]
	iis_pause();
 c10213c:	eb000aa0 	bl	c104bc4 <iis_pause>
	lcd_clear();
 c102140:	eb000cfe 	bl	c105540 <lcd_clear>
}
 c102144:	e24bd00c 	sub	sp, fp, #12
 c102148:	e89d6800 	ldm	sp, {fp, sp, lr}
 c10214c:	e12fff1e 	bx	lr
 c102150:	0c117a79 	.word	0x0c117a79
 c102154:	0c10c224 	.word	0x0c10c224
 c102158:	0c10c234 	.word	0x0c10c234
 c10215c:	0c402000 	.word	0x0c402000

0c102160 <separateParts>:

void separateParts(ufix32 f, uint32* parte_entera, uint32* parte_decimal) {
 c102160:	e1a0c00d 	mov	ip, sp
 c102164:	e92dd800 	push	{fp, ip, lr, pc}
 c102168:	e24cb004 	sub	fp, ip, #4
 c10216c:	e24dd010 	sub	sp, sp, #16
 c102170:	e50b0010 	str	r0, [fp, #-16]
 c102174:	e50b1014 	str	r1, [fp, #-20]	; 0xffffffec
 c102178:	e50b2018 	str	r2, [fp, #-24]	; 0xffffffe8
	//f= FADD(f, TOFIX(ufix32, 0.0151, Q));
    *parte_entera = f >> Q;
 c10217c:	e51b3010 	ldr	r3, [fp, #-16]
 c102180:	e1a02423 	lsr	r2, r3, #8
 c102184:	e51b3014 	ldr	r3, [fp, #-20]	; 0xffffffec
 c102188:	e5832000 	str	r2, [r3]
    *parte_decimal = ((f & ((1 << Q) - 1)) * 100) >> Q;  // Obtener los q bits de parte fraccionaria y convertir a decimal
 c10218c:	e51b3010 	ldr	r3, [fp, #-16]
 c102190:	e20320ff 	and	r2, r3, #255	; 0xff
 c102194:	e1a03002 	mov	r3, r2
 c102198:	e1a03103 	lsl	r3, r3, #2
 c10219c:	e0833002 	add	r3, r3, r2
 c1021a0:	e1a02103 	lsl	r2, r3, #2
 c1021a4:	e0833002 	add	r3, r3, r2
 c1021a8:	e1a03103 	lsl	r3, r3, #2
 c1021ac:	e1a02423 	lsr	r2, r3, #8
 c1021b0:	e51b3018 	ldr	r3, [fp, #-24]	; 0xffffffe8
 c1021b4:	e5832000 	str	r2, [r3]
}
 c1021b8:	e24bd00c 	sub	sp, fp, #12
 c1021bc:	e89d6800 	ldm	sp, {fp, sp, lr}
 c1021c0:	e12fff1e 	bx	lr

0c1021c4 <checkAlarm>:

boolean checkAlarm ( rtc_time_t rtc_time, rtc_time_t alarm ){
 c1021c4:	e1a0c00d 	mov	ip, sp
 c1021c8:	e92dd800 	push	{fp, ip, lr, pc}
 c1021cc:	e24cb004 	sub	fp, ip, #4
 c1021d0:	e24dd010 	sub	sp, sp, #16
 c1021d4:	e24bc014 	sub	ip, fp, #20
 c1021d8:	e88c0003 	stm	ip, {r0, r1}
 c1021dc:	e24b101c 	sub	r1, fp, #28
 c1021e0:	e881000c 	stm	r1, {r2, r3}
	if((rtc_time.hour == alarm.hour) &&(rtc_time.min == alarm.min) && (rtc_time.sec == alarm.sec)){
 c1021e4:	e55b2012 	ldrb	r2, [fp, #-18]	; 0xffffffee
 c1021e8:	e55b301a 	ldrb	r3, [fp, #-26]	; 0xffffffe6
 c1021ec:	e1520003 	cmp	r2, r3
 c1021f0:	1a000009 	bne	c10221c <checkAlarm+0x58>
 c1021f4:	e55b2013 	ldrb	r2, [fp, #-19]	; 0xffffffed
 c1021f8:	e55b301b 	ldrb	r3, [fp, #-27]	; 0xffffffe5
 c1021fc:	e1520003 	cmp	r2, r3
 c102200:	1a000005 	bne	c10221c <checkAlarm+0x58>
 c102204:	e55b2014 	ldrb	r2, [fp, #-20]	; 0xffffffec
 c102208:	e55b301c 	ldrb	r3, [fp, #-28]	; 0xffffffe4
 c10220c:	e1520003 	cmp	r2, r3
 c102210:	1a000001 	bne	c10221c <checkAlarm+0x58>
		return TRUE;
 c102214:	e3a03001 	mov	r3, #1
 c102218:	ea000000 	b	c102220 <checkAlarm+0x5c>
	}
	return FALSE;
 c10221c:	e3a03000 	mov	r3, #0
}
 c102220:	e1a00003 	mov	r0, r3
 c102224:	e24bd00c 	sub	sp, fp, #12
 c102228:	e89d6800 	ldm	sp, {fp, sp, lr}
 c10222c:	e12fff1e 	bx	lr

0c102230 <pintaDistancia>:

void pintaDistancia ( ufix32 distanciaAndada )
{
 c102230:	e1a0c00d 	mov	ip, sp
 c102234:	e92dd800 	push	{fp, ip, lr, pc}
 c102238:	e24cb004 	sub	fp, ip, #4
 c10223c:	e24dd010 	sub	sp, sp, #16
 c102240:	e50b0018 	str	r0, [fp, #-24]	; 0xffffffe8
	uint32 parte_entera, parte_decimal;
	separateParts(distanciaAndada, &parte_entera, &parte_decimal);
 c102244:	e24b2010 	sub	r2, fp, #16
 c102248:	e24b3014 	sub	r3, fp, #20
 c10224c:	e51b0018 	ldr	r0, [fp, #-24]	; 0xffffffe8
 c102250:	e1a01002 	mov	r1, r2
 c102254:	e1a02003 	mov	r2, r3
 c102258:	ebffffc0 	bl	c102160 <separateParts>
	/*uint32 parteEntera = distanciaAndada / 100;
	uint8 parteDecimal = distanciaAndada % 100;*/
	lcd_puts(125, 10, BLACK, "Distancia (m): ");
 c10225c:	e3a0007d 	mov	r0, #125	; 0x7d
 c102260:	e3a0100a 	mov	r1, #10
 c102264:	e3a0200f 	mov	r2, #15
 c102268:	e59f3080 	ldr	r3, [pc, #128]	; c1022f0 <pintaDistancia+0xc0>
 c10226c:	eb000eb6 	bl	c105d4c <lcd_puts>
	lcd_putint(240, 10, BLACK, parte_entera );
 c102270:	e51b3010 	ldr	r3, [fp, #-16]
 c102274:	e3a000f0 	mov	r0, #240	; 0xf0
 c102278:	e3a0100a 	mov	r1, #10
 c10227c:	e3a0200f 	mov	r2, #15
 c102280:	eb000ece 	bl	c105dc0 <lcd_putint>
	lcd_putchar(270, 10, BLACK, '.');
 c102284:	e59f0068 	ldr	r0, [pc, #104]	; c1022f4 <pintaDistancia+0xc4>
 c102288:	e3a0100a 	mov	r1, #10
 c10228c:	e3a0200f 	mov	r2, #15
 c102290:	e3a0302e 	mov	r3, #46	; 0x2e
 c102294:	eb000e0d 	bl	c105ad0 <lcd_putchar>
	if(parte_decimal > 10){
 c102298:	e51b3014 	ldr	r3, [fp, #-20]	; 0xffffffec
 c10229c:	e353000a 	cmp	r3, #10
 c1022a0:	9a000005 	bls	c1022bc <pintaDistancia+0x8c>
		lcd_putint(280, 10, BLACK, parte_decimal);
 c1022a4:	e51b3014 	ldr	r3, [fp, #-20]	; 0xffffffec
 c1022a8:	e3a00f46 	mov	r0, #280	; 0x118
 c1022ac:	e3a0100a 	mov	r1, #10
 c1022b0:	e3a0200f 	mov	r2, #15
 c1022b4:	eb000ec1 	bl	c105dc0 <lcd_putint>
 c1022b8:	ea000009 	b	c1022e4 <pintaDistancia+0xb4>
	}
	else{
		lcd_putint(280, 10, BLACK, 0);
 c1022bc:	e3a00f46 	mov	r0, #280	; 0x118
 c1022c0:	e3a0100a 	mov	r1, #10
 c1022c4:	e3a0200f 	mov	r2, #15
 c1022c8:	e3a03000 	mov	r3, #0
 c1022cc:	eb000ebb 	bl	c105dc0 <lcd_putint>
		lcd_putint(288, 10, BLACK, parte_decimal);
 c1022d0:	e51b3014 	ldr	r3, [fp, #-20]	; 0xffffffec
 c1022d4:	e3a00e12 	mov	r0, #288	; 0x120
 c1022d8:	e3a0100a 	mov	r1, #10
 c1022dc:	e3a0200f 	mov	r2, #15
 c1022e0:	eb000eb6 	bl	c105dc0 <lcd_putint>
	}
}
 c1022e4:	e24bd00c 	sub	sp, fp, #12
 c1022e8:	e89d6800 	ldm	sp, {fp, sp, lr}
 c1022ec:	e12fff1e 	bx	lr
 c1022f0:	0c10c254 	.word	0x0c10c254
 c1022f4:	0000010e 	.word	0x0000010e

0c1022f8 <isr_ts>:

void isr_ts( void )
{
 c1022f8:	e52dc004 	push	{ip}		; (str ip, [sp, #-4]!)
 c1022fc:	e1a0c00d 	mov	ip, sp
 c102300:	e92dd80c 	push	{r2, r3, fp, ip, lr, pc}
 c102304:	e24cb004 	sub	fp, ip, #4
	flagTS = TRUE;
 c102308:	e59f3020 	ldr	r3, [pc, #32]	; c102330 <isr_ts+0x38>
 c10230c:	e3a02001 	mov	r2, #1
 c102310:	e5c32000 	strb	r2, [r3]
	I_ISPC = BIT_TS;
 c102314:	e59f3018 	ldr	r3, [pc, #24]	; c102334 <isr_ts+0x3c>
 c102318:	e3a02502 	mov	r2, #8388608	; 0x800000
 c10231c:	e5832000 	str	r2, [r3]
}
 c102320:	e24bd014 	sub	sp, fp, #20
 c102324:	e89d680c 	ldm	sp, {r2, r3, fp, sp, lr}
 c102328:	e49dc004 	pop	{ip}		; (ldr ip, [sp], #4)
 c10232c:	e25ef004 	subs	pc, lr, #4
 c102330:	0c117a7c 	.word	0x0c117a7c
 c102334:	01e00024 	.word	0x01e00024

0c102338 <isr_pbs>:
void isr_pbs( void )
{
 c102338:	e52dc004 	push	{ip}		; (str ip, [sp, #-4]!)
 c10233c:	e1a0c00d 	mov	ip, sp
 c102340:	e92dd80c 	push	{r2, r3, fp, ip, lr, pc}
 c102344:	e24cb004 	sub	fp, ip, #4

	flagPBS = TRUE;
 c102348:	e59f3038 	ldr	r3, [pc, #56]	; c102388 <isr_pbs+0x50>
 c10234c:	e3a02001 	mov	r2, #1
 c102350:	e5c32000 	strb	r2, [r3]
    EXTINTPND = BIT_RIGHTPB;
 c102354:	e59f3030 	ldr	r3, [pc, #48]	; c10238c <isr_pbs+0x54>
 c102358:	e3a02008 	mov	r2, #8
 c10235c:	e5832000 	str	r2, [r3]
    EXTINTPND = BIT_LEFTPB;
 c102360:	e59f3024 	ldr	r3, [pc, #36]	; c10238c <isr_pbs+0x54>
 c102364:	e3a02004 	mov	r2, #4
 c102368:	e5832000 	str	r2, [r3]
    I_ISPC = BIT_PB;
 c10236c:	e59f301c 	ldr	r3, [pc, #28]	; c102390 <isr_pbs+0x58>
 c102370:	e3a02602 	mov	r2, #2097152	; 0x200000
 c102374:	e5832000 	str	r2, [r3]
}
 c102378:	e24bd014 	sub	sp, fp, #20
 c10237c:	e89d680c 	ldm	sp, {r2, r3, fp, sp, lr}
 c102380:	e49dc004 	pop	{ip}		; (ldr ip, [sp], #4)
 c102384:	e25ef004 	subs	pc, lr, #4
 c102388:	0c117a79 	.word	0x0c117a79
 c10238c:	01d20054 	.word	0x01d20054
 c102390:	01e00024 	.word	0x01e00024

0c102394 <startSensorsEmulator>:

/*******************************************************************/


void startSensorsEmulator( void (*isrBeat)(void), void (*isrStep)(void), uint8 beatPerMin, uint8 stepPerMin )
{
 c102394:	e1a0c00d 	mov	ip, sp
 c102398:	e92dd800 	push	{fp, ip, lr, pc}
 c10239c:	e24cb004 	sub	fp, ip, #4
 c1023a0:	e24dd010 	sub	sp, sp, #16
 c1023a4:	e50b0010 	str	r0, [fp, #-16]
 c1023a8:	e50b1014 	str	r1, [fp, #-20]	; 0xffffffec
 c1023ac:	e54b2015 	strb	r2, [fp, #-21]	; 0xffffffeb
 c1023b0:	e54b3016 	strb	r3, [fp, #-22]	; 0xffffffea

	latidosPorMin = beatPerMin;
 c1023b4:	e59f3254 	ldr	r3, [pc, #596]	; c102610 <startSensorsEmulator+0x27c>
 c1023b8:	e55b2015 	ldrb	r2, [fp, #-21]	; 0xffffffeb
 c1023bc:	e5c32000 	strb	r2, [r3]
	pasosPorMin   = stepPerMin;
 c1023c0:	e59f324c 	ldr	r3, [pc, #588]	; c102614 <startSensorsEmulator+0x280>
 c1023c4:	e55b2016 	ldrb	r2, [fp, #-22]	; 0xffffffea
 c1023c8:	e5c32000 	strb	r2, [r3]

    CLKCON |= (1<<10) | (1<<8) | (1<<7) | (1 << 3);            // Activa GPIO, UART0, BDMA y TIMER
 c1023cc:	e59f2244 	ldr	r2, [pc, #580]	; c102618 <startSensorsEmulator+0x284>
 c1023d0:	e59f3240 	ldr	r3, [pc, #576]	; c102618 <startSensorsEmulator+0x284>
 c1023d4:	e5933000 	ldr	r3, [r3]
 c1023d8:	e3833d16 	orr	r3, r3, #1408	; 0x580
 c1023dc:	e3833008 	orr	r3, r3, #8
 c1023e0:	e5823000 	str	r3, [r2]

	PCONE = (PCONE & ~(0xf<<2)) | (2<<4) | (2<<2); 	           // PE[2] = RxD0, PE[1] = TxD0
 c1023e4:	e59f3230 	ldr	r3, [pc, #560]	; c10261c <startSensorsEmulator+0x288>
 c1023e8:	e59f222c 	ldr	r2, [pc, #556]	; c10261c <startSensorsEmulator+0x288>
 c1023ec:	e5922000 	ldr	r2, [r2]
 c1023f0:	e3c2203c 	bic	r2, r2, #60	; 0x3c
 c1023f4:	e3822028 	orr	r2, r2, #40	; 0x28
 c1023f8:	e5832000 	str	r2, [r3]
	PUPE  |= (1<<2) | (1<<1);						           // Pull-up disable
 c1023fc:	e59f321c 	ldr	r3, [pc, #540]	; c102620 <startSensorsEmulator+0x28c>
 c102400:	e59f2218 	ldr	r2, [pc, #536]	; c102620 <startSensorsEmulator+0x28c>
 c102404:	e5922000 	ldr	r2, [r2]
 c102408:	e3822006 	orr	r2, r2, #6
 c10240c:	e5832000 	str	r2, [r3]

	UFCON0 = 0;	                                               // FIFOs desactivadas, para activarlas UFCON0 = 1
 c102410:	e59f320c 	ldr	r3, [pc, #524]	; c102624 <startSensorsEmulator+0x290>
 c102414:	e3a02000 	mov	r2, #0
 c102418:	e5832000 	str	r2, [r3]
	UMCON0 = 0;	                                               // Control de flujo manual
 c10241c:	e59f3204 	ldr	r3, [pc, #516]	; c102628 <startSensorsEmulator+0x294>
 c102420:	e3a02000 	mov	r2, #0
 c102424:	e5832000 	str	r2, [r3]
	ULCON0 = (0 << 6) | (0 << 3) | (0 << 2) | (3);   		   // normal (no infrarojos), sin paridad, 1 bit de stop, 8 bits de datos
 c102428:	e3a0361d 	mov	r3, #30408704	; 0x1d00000
 c10242c:	e3a02003 	mov	r2, #3
 c102430:	e5832000 	str	r2, [r3]
	UBRDIV0 = 34;                                              // 115200 baudios asumiendo 64MHz
 c102434:	e59f31f0 	ldr	r3, [pc, #496]	; c10262c <startSensorsEmulator+0x298>
 c102438:	e3a02022 	mov	r2, #34	; 0x22
 c10243c:	e5832000 	str	r2, [r3]
	UCON0 = (0 << 9) | (0 << 8)| (1 << 2) | (1);			   // Tx pulso, Rx pulso, Tx int/polling, Rx int/polling
 c102440:	e59f31e8 	ldr	r3, [pc, #488]	; c102630 <startSensorsEmulator+0x29c>
 c102444:	e3a02005 	mov	r2, #5
 c102448:	e5832000 	str	r2, [r3]

	fifo_init( &fifoTX );
 c10244c:	e59f01e0 	ldr	r0, [pc, #480]	; c102634 <startSensorsEmulator+0x2a0>
 c102450:	eb000343 	bl	c103164 <fifo_init>

	pISR_URXD0 = (uint32) uart0int_isrRX;	 			       // Instala la rutina de tratamiento de recepcin
 c102454:	e59f31dc 	ldr	r3, [pc, #476]	; c102638 <startSensorsEmulator+0x2a4>
 c102458:	e59f21dc 	ldr	r2, [pc, #476]	; c10263c <startSensorsEmulator+0x2a8>
 c10245c:	e5832000 	str	r2, [r3]
	pISR_UTXD0 = (uint32) uart0int_isrTX;	 			       // Instala la rutina de tratamiento de transmisin
 c102460:	e59f31d8 	ldr	r3, [pc, #472]	; c102640 <startSensorsEmulator+0x2ac>
 c102464:	e59f21d8 	ldr	r2, [pc, #472]	; c102644 <startSensorsEmulator+0x2b0>
 c102468:	e5832000 	str	r2, [r3]
	I_ISPC	   = (BIT_URXD0 | BIT_UTXD0);		               // Borra los bits de interrupcin pendiente
 c10246c:	e59f31d4 	ldr	r3, [pc, #468]	; c102648 <startSensorsEmulator+0x2b4>
 c102470:	e3a02088 	mov	r2, #136	; 0x88
 c102474:	e5832000 	str	r2, [r3]
	INTMSK    &= ~( BIT_GLOBAL | BIT_URXD0 | BIT_UTXD0 );	   // Desenmascara globalmente las interrupciones y especficamente las interrupciones RX y Tx del UART0
 c102478:	e59f21cc 	ldr	r2, [pc, #460]	; c10264c <startSensorsEmulator+0x2b8>
 c10247c:	e59f31c8 	ldr	r3, [pc, #456]	; c10264c <startSensorsEmulator+0x2b8>
 c102480:	e5933000 	ldr	r3, [r3]
 c102484:	e3c33301 	bic	r3, r3, #67108864	; 0x4000000
 c102488:	e3c33088 	bic	r3, r3, #136	; 0x88
 c10248c:	e5823000 	str	r3, [r2]


	TCFG0 = (TCFG0 & ~(0xff << 8)) | (199 << 8);               // T3-T2 PRESCALER = 199 (1/(199+1))
 c102490:	e59f31b8 	ldr	r3, [pc, #440]	; c102650 <startSensorsEmulator+0x2bc>
 c102494:	e59f21b4 	ldr	r2, [pc, #436]	; c102650 <startSensorsEmulator+0x2bc>
 c102498:	e5922000 	ldr	r2, [r2]
 c10249c:	e3c22cff 	bic	r2, r2, #65280	; 0xff00
 c1024a0:	e3822cc7 	orr	r2, r2, #50944	; 0xc700
 c1024a4:	e5832000 	str	r2, [r3]
    TCFG1 = (TCFG1 & ~(0xf << 12)) | (4 << 12);                // T3 DIVISOR = 32 (1/32)
 c1024a8:	e59f31a4 	ldr	r3, [pc, #420]	; c102654 <startSensorsEmulator+0x2c0>
 c1024ac:	e59f21a0 	ldr	r2, [pc, #416]	; c102654 <startSensorsEmulator+0x2c0>
 c1024b0:	e5922000 	ldr	r2, [r2]
 c1024b4:	e3c22a0f 	bic	r2, r2, #61440	; 0xf000
 c1024b8:	e3822901 	orr	r2, r2, #16384	; 0x4000
 c1024bc:	e5832000 	str	r2, [r3]
    TCFG1 = (TCFG1 & ~(0xf << 8))  | (4 << 8);                 // T2 DIVISOR = 32 (1/32)
 c1024c0:	e59f318c 	ldr	r3, [pc, #396]	; c102654 <startSensorsEmulator+0x2c0>
 c1024c4:	e59f2188 	ldr	r2, [pc, #392]	; c102654 <startSensorsEmulator+0x2c0>
 c1024c8:	e5922000 	ldr	r2, [r2]
 c1024cc:	e3c22c0f 	bic	r2, r2, #3840	; 0xf00
 c1024d0:	e3822b01 	orr	r2, r2, #1024	; 0x400
 c1024d4:	e5832000 	str	r2, [r3]
    
    INTMSK |= ( BIT_TIMER3 | BIT_TIMER2 );                     // Enmascara la interrupcion por fin de T3 y T2
 c1024d8:	e59f316c 	ldr	r3, [pc, #364]	; c10264c <startSensorsEmulator+0x2b8>
 c1024dc:	e59f2168 	ldr	r2, [pc, #360]	; c10264c <startSensorsEmulator+0x2b8>
 c1024e0:	e5922000 	ldr	r2, [r2]
 c1024e4:	e3822b03 	orr	r2, r2, #3072	; 0xc00
 c1024e8:	e5832000 	str	r2, [r3]

    pISR_TIMER3 = (uint32) isrBeat;                            // Instala la funcion isr como RTI por fin de cuenta de T3
 c1024ec:	e59f3164 	ldr	r3, [pc, #356]	; c102658 <startSensorsEmulator+0x2c4>
 c1024f0:	e51b2010 	ldr	r2, [fp, #-16]
 c1024f4:	e5832000 	str	r2, [r3]
    pISR_TIMER2 = (uint32) isrStep;                            // Instala la funcion isr como RTI por fin de cuenta de T2
 c1024f8:	e59f315c 	ldr	r3, [pc, #348]	; c10265c <startSensorsEmulator+0x2c8>
 c1024fc:	e51b2014 	ldr	r2, [fp, #-20]	; 0xffffffec
 c102500:	e5832000 	str	r2, [r3]

    TCNTB3  = cntb[latidosPorMin];                             // Carga T3
 c102504:	e59f3154 	ldr	r3, [pc, #340]	; c102660 <startSensorsEmulator+0x2cc>
 c102508:	e59f2100 	ldr	r2, [pc, #256]	; c102610 <startSensorsEmulator+0x27c>
 c10250c:	e5d22000 	ldrb	r2, [r2]
 c102510:	e20220ff 	and	r2, r2, #255	; 0xff
 c102514:	e59f1148 	ldr	r1, [pc, #328]	; c102664 <startSensorsEmulator+0x2d0>
 c102518:	e1a02082 	lsl	r2, r2, #1
 c10251c:	e0812002 	add	r2, r1, r2
 c102520:	e1d220b0 	ldrh	r2, [r2]
 c102524:	e5832000 	str	r2, [r3]
    TCON    = (TCON & ~(0xf << 16)) | (1 << 19) | (1 << 17);   // Modo interval, carga TCNT3, stop T3
 c102528:	e59f3138 	ldr	r3, [pc, #312]	; c102668 <startSensorsEmulator+0x2d4>
 c10252c:	e59f2134 	ldr	r2, [pc, #308]	; c102668 <startSensorsEmulator+0x2d4>
 c102530:	e5922000 	ldr	r2, [r2]
 c102534:	e3c2280f 	bic	r2, r2, #983040	; 0xf0000
 c102538:	e382280a 	orr	r2, r2, #655360	; 0xa0000
 c10253c:	e5832000 	str	r2, [r3]
    TCON    = (TCON & ~(0xf << 16)) | (1 << 19) | (1 << 16);   // Modo interval, no carga TCNT3, start T3
 c102540:	e59f3120 	ldr	r3, [pc, #288]	; c102668 <startSensorsEmulator+0x2d4>
 c102544:	e59f211c 	ldr	r2, [pc, #284]	; c102668 <startSensorsEmulator+0x2d4>
 c102548:	e5922000 	ldr	r2, [r2]
 c10254c:	e3c2280f 	bic	r2, r2, #983040	; 0xf0000
 c102550:	e3822809 	orr	r2, r2, #589824	; 0x90000
 c102554:	e5832000 	str	r2, [r3]

    TCNTB2  = cntb[pasosPorMin];                               // Carga T2
 c102558:	e59f310c 	ldr	r3, [pc, #268]	; c10266c <startSensorsEmulator+0x2d8>
 c10255c:	e59f20b0 	ldr	r2, [pc, #176]	; c102614 <startSensorsEmulator+0x280>
 c102560:	e5d22000 	ldrb	r2, [r2]
 c102564:	e20220ff 	and	r2, r2, #255	; 0xff
 c102568:	e59f10f4 	ldr	r1, [pc, #244]	; c102664 <startSensorsEmulator+0x2d0>
 c10256c:	e1a02082 	lsl	r2, r2, #1
 c102570:	e0812002 	add	r2, r1, r2
 c102574:	e1d220b0 	ldrh	r2, [r2]
 c102578:	e5832000 	str	r2, [r3]
    TCON    = (TCON & ~(0xf << 12)) | (1 << 15) | (1 << 13);   // Modo interval, carga TCNT2, stop T2
 c10257c:	e59f30e4 	ldr	r3, [pc, #228]	; c102668 <startSensorsEmulator+0x2d4>
 c102580:	e59f20e0 	ldr	r2, [pc, #224]	; c102668 <startSensorsEmulator+0x2d4>
 c102584:	e5922000 	ldr	r2, [r2]
 c102588:	e3c22a0f 	bic	r2, r2, #61440	; 0xf000
 c10258c:	e3822a0a 	orr	r2, r2, #40960	; 0xa000
 c102590:	e5832000 	str	r2, [r3]
    TCON    = (TCON & ~(0xf << 12)) | (1 << 15) | (1 << 12);   // Modo interval, no carga TCNT2, start T2
 c102594:	e59f30cc 	ldr	r3, [pc, #204]	; c102668 <startSensorsEmulator+0x2d4>
 c102598:	e59f20c8 	ldr	r2, [pc, #200]	; c102668 <startSensorsEmulator+0x2d4>
 c10259c:	e5922000 	ldr	r2, [r2]
 c1025a0:	e3c22a0f 	bic	r2, r2, #61440	; 0xf000
 c1025a4:	e3822a09 	orr	r2, r2, #36864	; 0x9000
 c1025a8:	e5832000 	str	r2, [r3]

    I_ISPC  = BIT_TIMER3 | BIT_TIMER2;                         // Borra el bit de interrupcin pendiente por fin de T3 y por fin de T2
 c1025ac:	e59f3094 	ldr	r3, [pc, #148]	; c102648 <startSensorsEmulator+0x2b4>
 c1025b0:	e3a02b03 	mov	r2, #3072	; 0xc00
 c1025b4:	e5832000 	str	r2, [r3]
    INTMSK &= ~( BIT_GLOBAL | BIT_TIMER3 | BIT_TIMER2 );       // Desenmascara la interrupcin por fin del T4, fin T5 y las interrupciones globales
 c1025b8:	e59f208c 	ldr	r2, [pc, #140]	; c10264c <startSensorsEmulator+0x2b8>
 c1025bc:	e59f3088 	ldr	r3, [pc, #136]	; c10264c <startSensorsEmulator+0x2b8>
 c1025c0:	e5933000 	ldr	r3, [r3]
 c1025c4:	e3c33301 	bic	r3, r3, #67108864	; 0x4000000
 c1025c8:	e3c33b03 	bic	r3, r3, #3072	; 0xc00
 c1025cc:	e5823000 	str	r3, [r2]


	uart0int_puts( "\n\n" );
 c1025d0:	e59f0098 	ldr	r0, [pc, #152]	; c102670 <startSensorsEmulator+0x2dc>
 c1025d4:	eb000065 	bl	c102770 <uart0int_puts>
	uart0int_puts( "-------------------------------------\n" );
 c1025d8:	e59f0094 	ldr	r0, [pc, #148]	; c102674 <startSensorsEmulator+0x2e0>
 c1025dc:	eb000063 	bl	c102770 <uart0int_puts>
	uart0int_puts( "Emulador de latidos y pasos arrancado\n" );
 c1025e0:	e59f0090 	ldr	r0, [pc, #144]	; c102678 <startSensorsEmulator+0x2e4>
 c1025e4:	eb000061 	bl	c102770 <uart0int_puts>
	uart0int_puts( "  - Latidos por minuto: 28-255\n" );
 c1025e8:	e59f008c 	ldr	r0, [pc, #140]	; c10267c <startSensorsEmulator+0x2e8>
 c1025ec:	eb00005f 	bl	c102770 <uart0int_puts>
	uart0int_puts( "  - Pasos por minuto:   0/10-200\n" );
 c1025f0:	e59f0088 	ldr	r0, [pc, #136]	; c102680 <startSensorsEmulator+0x2ec>
 c1025f4:	eb00005d 	bl	c102770 <uart0int_puts>
	uart0int_puts( "-------------------------------------\n" );
 c1025f8:	e59f0074 	ldr	r0, [pc, #116]	; c102674 <startSensorsEmulator+0x2e0>
 c1025fc:	eb00005b 	bl	c102770 <uart0int_puts>
	uart0int_putMenu();
 c102600:	eb000099 	bl	c10286c <uart0int_putMenu>
}
 c102604:	e24bd00c 	sub	sp, fp, #12
 c102608:	e89d6800 	ldm	sp, {fp, sp, lr}
 c10260c:	e12fff1e 	bx	lr
 c102610:	0c117a1e 	.word	0x0c117a1e
 c102614:	0c117a1f 	.word	0x0c117a1f
 c102618:	01d80004 	.word	0x01d80004
 c10261c:	01d20028 	.word	0x01d20028
 c102620:	01d20030 	.word	0x01d20030
 c102624:	01d00008 	.word	0x01d00008
 c102628:	01d0000c 	.word	0x01d0000c
 c10262c:	01d00028 	.word	0x01d00028
 c102630:	01d00004 	.word	0x01d00004
 c102634:	0c117618 	.word	0x0c117618
 c102638:	0c7fff3c 	.word	0x0c7fff3c
 c10263c:	0c102958 	.word	0x0c102958
 c102640:	0c7fff2c 	.word	0x0c7fff2c
 c102644:	0c102718 	.word	0x0c102718
 c102648:	01e00024 	.word	0x01e00024
 c10264c:	01e0000c 	.word	0x01e0000c
 c102650:	01d50000 	.word	0x01d50000
 c102654:	01d50004 	.word	0x01d50004
 c102658:	0c7fff48 	.word	0x0c7fff48
 c10265c:	0c7fff4c 	.word	0x0c7fff4c
 c102660:	01d50030 	.word	0x01d50030
 c102664:	0c10c264 	.word	0x0c10c264
 c102668:	01d50008 	.word	0x01d50008
 c10266c:	01d50024 	.word	0x01d50024
 c102670:	0c10c464 	.word	0x0c10c464
 c102674:	0c10c468 	.word	0x0c10c468
 c102678:	0c10c490 	.word	0x0c10c490
 c10267c:	0c10c4b8 	.word	0x0c10c4b8
 c102680:	0c10c4d8 	.word	0x0c10c4d8

0c102684 <uart0int_putchar>:

/*******************************************************************/

void uart0int_putchar( char ch )
{
 c102684:	e1a0c00d 	mov	ip, sp
 c102688:	e92dd800 	push	{fp, ip, lr, pc}
 c10268c:	e24cb004 	sub	fp, ip, #4
 c102690:	e24dd008 	sub	sp, sp, #8
 c102694:	e1a03000 	mov	r3, r0
 c102698:	e54b300d 	strb	r3, [fp, #-13]
	if( fifo_is_empty( &fifoTX ) )
 c10269c:	e59f0068 	ldr	r0, [pc, #104]	; c10270c <uart0int_putchar+0x88>
 c1026a0:	eb000324 	bl	c103338 <fifo_is_empty>
 c1026a4:	e1a03000 	mov	r3, r0
 c1026a8:	e3530000 	cmp	r3, #0
 c1026ac:	0a000009 	beq	c1026d8 <uart0int_putchar+0x54>
	{
		while( !(UTRSTAT0 & (1 << 1)) );	// Espera por si todava est transmitiendo el ltimo byte enviado
 c1026b0:	e1a00000 	nop			; (mov r0, r0)
 c1026b4:	e59f3054 	ldr	r3, [pc, #84]	; c102710 <uart0int_putchar+0x8c>
 c1026b8:	e5933000 	ldr	r3, [r3]
 c1026bc:	e2033002 	and	r3, r3, #2
 c1026c0:	e3530000 	cmp	r3, #0
 c1026c4:	0afffffa 	beq	c1026b4 <uart0int_putchar+0x30>
		UTXH0 = ch;							// Enva el byte, cuando termine la transmisin se genera la primera interrupcin
 c1026c8:	e59f3044 	ldr	r3, [pc, #68]	; c102714 <uart0int_putchar+0x90>
 c1026cc:	e55b200d 	ldrb	r2, [fp, #-13]
 c1026d0:	e5832000 	str	r2, [r3]
 c1026d4:	ea000009 	b	c102700 <uart0int_putchar+0x7c>
	}
	else
	{
		while( fifo_is_full( &fifoTX ) );
 c1026d8:	e1a00000 	nop			; (mov r0, r0)
 c1026dc:	e59f0028 	ldr	r0, [pc, #40]	; c10270c <uart0int_putchar+0x88>
 c1026e0:	eb000325 	bl	c10337c <fifo_is_full>
 c1026e4:	e1a03000 	mov	r3, r0
 c1026e8:	e3530000 	cmp	r3, #0
 c1026ec:	1afffffa 	bne	c1026dc <uart0int_putchar+0x58>
		fifo_enqueue( &fifoTX, (uint8) ch );
 c1026f0:	e55b300d 	ldrb	r3, [fp, #-13]
 c1026f4:	e59f0010 	ldr	r0, [pc, #16]	; c10270c <uart0int_putchar+0x88>
 c1026f8:	e1a01003 	mov	r1, r3
 c1026fc:	eb0002a9 	bl	c1031a8 <fifo_enqueue>
	}
}
 c102700:	e24bd00c 	sub	sp, fp, #12
 c102704:	e89d6800 	ldm	sp, {fp, sp, lr}
 c102708:	e12fff1e 	bx	lr
 c10270c:	0c117618 	.word	0x0c117618
 c102710:	01d00010 	.word	0x01d00010
 c102714:	01d00020 	.word	0x01d00020

0c102718 <uart0int_isrTX>:

void uart0int_isrTX( void )
{
 c102718:	e52dc004 	push	{ip}		; (str ip, [sp, #-4]!)
 c10271c:	e1a0c00d 	mov	ip, sp
 c102720:	e92dd80f 	push	{r0, r1, r2, r3, fp, ip, lr, pc}
 c102724:	e24cb004 	sub	fp, ip, #4
    I_ISPC = BIT_UTXD0;
 c102728:	e59f3034 	ldr	r3, [pc, #52]	; c102764 <uart0int_isrTX+0x4c>
 c10272c:	e3a02008 	mov	r2, #8
 c102730:	e5832000 	str	r2, [r3]
	if( !fifo_is_empty( &fifoTX ) )
 c102734:	e59f002c 	ldr	r0, [pc, #44]	; c102768 <uart0int_isrTX+0x50>
 c102738:	eb0002fe 	bl	c103338 <fifo_is_empty>
 c10273c:	e1a03000 	mov	r3, r0
 c102740:	e3530000 	cmp	r3, #0
 c102744:	1a000002 	bne	c102754 <uart0int_isrTX+0x3c>
		fifo_dequeue( &fifoTX, (uint8 *) &UTXH0 );
 c102748:	e59f0018 	ldr	r0, [pc, #24]	; c102768 <uart0int_isrTX+0x50>
 c10274c:	e59f1018 	ldr	r1, [pc, #24]	; c10276c <uart0int_isrTX+0x54>
 c102750:	eb0002c6 	bl	c103270 <fifo_dequeue>
}
 c102754:	e24bd01c 	sub	sp, fp, #28
 c102758:	e89d680f 	ldm	sp, {r0, r1, r2, r3, fp, sp, lr}
 c10275c:	e49dc004 	pop	{ip}		; (ldr ip, [sp], #4)
 c102760:	e25ef004 	subs	pc, lr, #4
 c102764:	01e00024 	.word	0x01e00024
 c102768:	0c117618 	.word	0x0c117618
 c10276c:	01d00020 	.word	0x01d00020

0c102770 <uart0int_puts>:

void uart0int_puts( char *s )
{
 c102770:	e1a0c00d 	mov	ip, sp
 c102774:	e92dd800 	push	{fp, ip, lr, pc}
 c102778:	e24cb004 	sub	fp, ip, #4
 c10277c:	e24dd008 	sub	sp, sp, #8
 c102780:	e50b0010 	str	r0, [fp, #-16]
    while( *s )
 c102784:	ea000006 	b	c1027a4 <uart0int_puts+0x34>
		uart0int_putchar( *s++ );
 c102788:	e51b3010 	ldr	r3, [fp, #-16]
 c10278c:	e5d33000 	ldrb	r3, [r3]
 c102790:	e51b2010 	ldr	r2, [fp, #-16]
 c102794:	e2822001 	add	r2, r2, #1
 c102798:	e50b2010 	str	r2, [fp, #-16]
 c10279c:	e1a00003 	mov	r0, r3
 c1027a0:	ebffffb7 	bl	c102684 <uart0int_putchar>
		fifo_dequeue( &fifoTX, (uint8 *) &UTXH0 );
}

void uart0int_puts( char *s )
{
    while( *s )
 c1027a4:	e51b3010 	ldr	r3, [fp, #-16]
 c1027a8:	e5d33000 	ldrb	r3, [r3]
 c1027ac:	e3530000 	cmp	r3, #0
 c1027b0:	1afffff4 	bne	c102788 <uart0int_puts+0x18>
		uart0int_putchar( *s++ );
}
 c1027b4:	e24bd00c 	sub	sp, fp, #12
 c1027b8:	e89d6800 	ldm	sp, {fp, sp, lr}
 c1027bc:	e12fff1e 	bx	lr

0c1027c0 <uart0int_putnum>:

void uart0int_putnum( uint8 i )
{
 c1027c0:	e1a0c00d 	mov	ip, sp
 c1027c4:	e92dd800 	push	{fp, ip, lr, pc}
 c1027c8:	e24cb004 	sub	fp, ip, #4
 c1027cc:	e24dd010 	sub	sp, sp, #16
 c1027d0:	e1a03000 	mov	r3, r0
 c1027d4:	e54b3015 	strb	r3, [fp, #-21]	; 0xffffffeb
	char buf[3 + 1];
	char *p = buf + 3;
 c1027d8:	e24b3014 	sub	r3, fp, #20
 c1027dc:	e2833003 	add	r3, r3, #3
 c1027e0:	e50b3010 	str	r3, [fp, #-16]

	*p = '\0';
 c1027e4:	e51b3010 	ldr	r3, [fp, #-16]
 c1027e8:	e3a02000 	mov	r2, #0
 c1027ec:	e5c32000 	strb	r2, [r3]

    do {
        *--p = '0' + (i % 10);
 c1027f0:	e51b3010 	ldr	r3, [fp, #-16]
 c1027f4:	e2433001 	sub	r3, r3, #1
 c1027f8:	e50b3010 	str	r3, [fp, #-16]
 c1027fc:	e55b2015 	ldrb	r2, [fp, #-21]	; 0xffffffeb
 c102800:	e59f3060 	ldr	r3, [pc, #96]	; c102868 <uart0int_putnum+0xa8>
 c102804:	e0831392 	umull	r1, r3, r2, r3
 c102808:	e1a011a3 	lsr	r1, r3, #3
 c10280c:	e1a03001 	mov	r3, r1
 c102810:	e1a03103 	lsl	r3, r3, #2
 c102814:	e0833001 	add	r3, r3, r1
 c102818:	e1a03083 	lsl	r3, r3, #1
 c10281c:	e0633002 	rsb	r3, r3, r2
 c102820:	e20330ff 	and	r3, r3, #255	; 0xff
 c102824:	e2833030 	add	r3, r3, #48	; 0x30
 c102828:	e20320ff 	and	r2, r3, #255	; 0xff
 c10282c:	e51b3010 	ldr	r3, [fp, #-16]
 c102830:	e5c32000 	strb	r2, [r3]
		i /= 10;
 c102834:	e55b2015 	ldrb	r2, [fp, #-21]	; 0xffffffeb
 c102838:	e59f3028 	ldr	r3, [pc, #40]	; c102868 <uart0int_putnum+0xa8>
 c10283c:	e0831392 	umull	r1, r3, r2, r3
 c102840:	e1a031a3 	lsr	r3, r3, #3
 c102844:	e54b3015 	strb	r3, [fp, #-21]	; 0xffffffeb
	} while( i );
 c102848:	e55b3015 	ldrb	r3, [fp, #-21]	; 0xffffffeb
 c10284c:	e3530000 	cmp	r3, #0
 c102850:	1affffe6 	bne	c1027f0 <uart0int_putnum+0x30>

    uart0int_puts( p );
 c102854:	e51b0010 	ldr	r0, [fp, #-16]
 c102858:	ebffffc4 	bl	c102770 <uart0int_puts>
}
 c10285c:	e24bd00c 	sub	sp, fp, #12
 c102860:	e89d6800 	ldm	sp, {fp, sp, lr}
 c102864:	e12fff1e 	bx	lr
 c102868:	cccccccd 	.word	0xcccccccd

0c10286c <uart0int_putMenu>:

void uart0int_putMenu( void )
{
 c10286c:	e1a0c00d 	mov	ip, sp
 c102870:	e92dd800 	push	{fp, ip, lr, pc}
 c102874:	e24cb004 	sub	fp, ip, #4
	uart0int_puts( "\n" );
 c102878:	e59f009c 	ldr	r0, [pc, #156]	; c10291c <uart0int_putMenu+0xb0>
 c10287c:	ebffffbb 	bl	c102770 <uart0int_puts>
	uart0int_puts( "Latidos por minuto: " );
 c102880:	e59f0098 	ldr	r0, [pc, #152]	; c102920 <uart0int_putMenu+0xb4>
 c102884:	ebffffb9 	bl	c102770 <uart0int_puts>
	uart0int_putnum( latidosPorMin );
 c102888:	e59f3094 	ldr	r3, [pc, #148]	; c102924 <uart0int_putMenu+0xb8>
 c10288c:	e5d33000 	ldrb	r3, [r3]
 c102890:	e20330ff 	and	r3, r3, #255	; 0xff
 c102894:	e1a00003 	mov	r0, r3
 c102898:	ebffffc8 	bl	c1027c0 <uart0int_putnum>
	uart0int_puts( " / Pasos por minuto: " );
 c10289c:	e59f0084 	ldr	r0, [pc, #132]	; c102928 <uart0int_putMenu+0xbc>
 c1028a0:	ebffffb2 	bl	c102770 <uart0int_puts>
	uart0int_putnum( pasosPorMin );
 c1028a4:	e59f3080 	ldr	r3, [pc, #128]	; c10292c <uart0int_putMenu+0xc0>
 c1028a8:	e5d33000 	ldrb	r3, [r3]
 c1028ac:	e20330ff 	and	r3, r3, #255	; 0xff
 c1028b0:	e1a00003 	mov	r0, r3
 c1028b4:	ebffffc1 	bl	c1027c0 <uart0int_putnum>
	uart0int_putchar( '\n' );
 c1028b8:	e3a0000a 	mov	r0, #10
 c1028bc:	ebffff70 	bl	c102684 <uart0int_putchar>
	uart0int_puts( "  1 - Incrementar latidos  (+1) \n" );
 c1028c0:	e59f0068 	ldr	r0, [pc, #104]	; c102930 <uart0int_putMenu+0xc4>
 c1028c4:	ebffffa9 	bl	c102770 <uart0int_puts>
	uart0int_puts( "  2 - Incrementar latidos (+10) \n" );
 c1028c8:	e59f0064 	ldr	r0, [pc, #100]	; c102934 <uart0int_putMenu+0xc8>
 c1028cc:	ebffffa7 	bl	c102770 <uart0int_puts>
	uart0int_puts( "  3 - Decrementar latidos  (-1) \n" );
 c1028d0:	e59f0060 	ldr	r0, [pc, #96]	; c102938 <uart0int_putMenu+0xcc>
 c1028d4:	ebffffa5 	bl	c102770 <uart0int_puts>
	uart0int_puts( "  4 - Decrementar latidos (-10) \n" );
 c1028d8:	e59f005c 	ldr	r0, [pc, #92]	; c10293c <uart0int_putMenu+0xd0>
 c1028dc:	ebffffa3 	bl	c102770 <uart0int_puts>
	uart0int_puts( "  d - Detenerse \n" );
 c1028e0:	e59f0058 	ldr	r0, [pc, #88]	; c102940 <uart0int_putMenu+0xd4>
 c1028e4:	ebffffa1 	bl	c102770 <uart0int_puts>
	uart0int_puts( "  a - Comenzar a andar \n" );
 c1028e8:	e59f0054 	ldr	r0, [pc, #84]	; c102944 <uart0int_putMenu+0xd8>
 c1028ec:	ebffff9f 	bl	c102770 <uart0int_puts>
	uart0int_puts( "  5 - Incrementar pasos    (+1) \n" );
 c1028f0:	e59f0050 	ldr	r0, [pc, #80]	; c102948 <uart0int_putMenu+0xdc>
 c1028f4:	ebffff9d 	bl	c102770 <uart0int_puts>
	uart0int_puts( "  6 - Incrementar pasos   (+10) \n" );
 c1028f8:	e59f004c 	ldr	r0, [pc, #76]	; c10294c <uart0int_putMenu+0xe0>
 c1028fc:	ebffff9b 	bl	c102770 <uart0int_puts>
	uart0int_puts( "  7 - Decrementar pasos    (-1) \n" );
 c102900:	e59f0048 	ldr	r0, [pc, #72]	; c102950 <uart0int_putMenu+0xe4>
 c102904:	ebffff99 	bl	c102770 <uart0int_puts>
	uart0int_puts( "  8 - Decrementar pasos   (-10) \n" );
 c102908:	e59f0044 	ldr	r0, [pc, #68]	; c102954 <uart0int_putMenu+0xe8>
 c10290c:	ebffff97 	bl	c102770 <uart0int_puts>
}
 c102910:	e24bd00c 	sub	sp, fp, #12
 c102914:	e89d6800 	ldm	sp, {fp, sp, lr}
 c102918:	e12fff1e 	bx	lr
 c10291c:	0c10c4fc 	.word	0x0c10c4fc
 c102920:	0c10c500 	.word	0x0c10c500
 c102924:	0c117a1e 	.word	0x0c117a1e
 c102928:	0c10c518 	.word	0x0c10c518
 c10292c:	0c117a1f 	.word	0x0c117a1f
 c102930:	0c10c530 	.word	0x0c10c530
 c102934:	0c10c554 	.word	0x0c10c554
 c102938:	0c10c578 	.word	0x0c10c578
 c10293c:	0c10c59c 	.word	0x0c10c59c
 c102940:	0c10c5c0 	.word	0x0c10c5c0
 c102944:	0c10c5d4 	.word	0x0c10c5d4
 c102948:	0c10c5f0 	.word	0x0c10c5f0
 c10294c:	0c10c614 	.word	0x0c10c614
 c102950:	0c10c638 	.word	0x0c10c638
 c102954:	0c10c65c 	.word	0x0c10c65c

0c102958 <uart0int_isrRX>:

void uart0int_isrRX( void )
{
 c102958:	e52dc004 	push	{ip}		; (str ip, [sp, #-4]!)
 c10295c:	e1a0c00d 	mov	ip, sp
 c102960:	e92dd80f 	push	{r0, r1, r2, r3, fp, ip, lr, pc}
 c102964:	e24cb004 	sub	fp, ip, #4
    I_ISPC = BIT_URXD0;
 c102968:	e59f37d0 	ldr	r3, [pc, #2000]	; c103140 <uart0int_isrRX+0x7e8>
 c10296c:	e3a02080 	mov	r2, #128	; 0x80
 c102970:	e5832000 	str	r2, [r3]
	switch( URXH0 )
 c102974:	e59f37c8 	ldr	r3, [pc, #1992]	; c103144 <uart0int_isrRX+0x7ec>
 c102978:	e5933000 	ldr	r3, [r3]
 c10297c:	e243300a 	sub	r3, r3, #10
 c102980:	e353005a 	cmp	r3, #90	; 0x5a
 c102984:	979ff103 	ldrls	pc, [pc, r3, lsl #2]
 c102988:	ea0001e4 	b	c103120 <uart0int_isrRX+0x7c8>
 c10298c:	0c10312c 	.word	0x0c10312c
 c102990:	0c103120 	.word	0x0c103120
 c102994:	0c103120 	.word	0x0c103120
 c102998:	0c103120 	.word	0x0c103120
 c10299c:	0c103120 	.word	0x0c103120
 c1029a0:	0c103120 	.word	0x0c103120
 c1029a4:	0c103120 	.word	0x0c103120
 c1029a8:	0c103120 	.word	0x0c103120
 c1029ac:	0c103120 	.word	0x0c103120
 c1029b0:	0c103120 	.word	0x0c103120
 c1029b4:	0c103120 	.word	0x0c103120
 c1029b8:	0c103120 	.word	0x0c103120
 c1029bc:	0c103120 	.word	0x0c103120
 c1029c0:	0c103120 	.word	0x0c103120
 c1029c4:	0c103120 	.word	0x0c103120
 c1029c8:	0c103120 	.word	0x0c103120
 c1029cc:	0c103120 	.word	0x0c103120
 c1029d0:	0c103120 	.word	0x0c103120
 c1029d4:	0c103120 	.word	0x0c103120
 c1029d8:	0c103120 	.word	0x0c103120
 c1029dc:	0c103120 	.word	0x0c103120
 c1029e0:	0c103120 	.word	0x0c103120
 c1029e4:	0c103120 	.word	0x0c103120
 c1029e8:	0c103120 	.word	0x0c103120
 c1029ec:	0c103120 	.word	0x0c103120
 c1029f0:	0c103120 	.word	0x0c103120
 c1029f4:	0c103120 	.word	0x0c103120
 c1029f8:	0c103120 	.word	0x0c103120
 c1029fc:	0c103120 	.word	0x0c103120
 c102a00:	0c103120 	.word	0x0c103120
 c102a04:	0c103120 	.word	0x0c103120
 c102a08:	0c103120 	.word	0x0c103120
 c102a0c:	0c103120 	.word	0x0c103120
 c102a10:	0c103120 	.word	0x0c103120
 c102a14:	0c103120 	.word	0x0c103120
 c102a18:	0c103120 	.word	0x0c103120
 c102a1c:	0c103120 	.word	0x0c103120
 c102a20:	0c103120 	.word	0x0c103120
 c102a24:	0c103120 	.word	0x0c103120
 c102a28:	0c102af8 	.word	0x0c102af8
 c102a2c:	0c102b94 	.word	0x0c102b94
 c102a30:	0c102c30 	.word	0x0c102c30
 c102a34:	0c102ccc 	.word	0x0c102ccc
 c102a38:	0c102e60 	.word	0x0c102e60
 c102a3c:	0c102f10 	.word	0x0c102f10
 c102a40:	0c102fc0 	.word	0x0c102fc0
 c102a44:	0c103070 	.word	0x0c103070
 c102a48:	0c103120 	.word	0x0c103120
 c102a4c:	0c103120 	.word	0x0c103120
 c102a50:	0c103120 	.word	0x0c103120
 c102a54:	0c103120 	.word	0x0c103120
 c102a58:	0c103120 	.word	0x0c103120
 c102a5c:	0c103120 	.word	0x0c103120
 c102a60:	0c103120 	.word	0x0c103120
 c102a64:	0c103120 	.word	0x0c103120
 c102a68:	0c102de4 	.word	0x0c102de4
 c102a6c:	0c103120 	.word	0x0c103120
 c102a70:	0c103120 	.word	0x0c103120
 c102a74:	0c102d68 	.word	0x0c102d68
 c102a78:	0c103120 	.word	0x0c103120
 c102a7c:	0c103120 	.word	0x0c103120
 c102a80:	0c103120 	.word	0x0c103120
 c102a84:	0c103120 	.word	0x0c103120
 c102a88:	0c103120 	.word	0x0c103120
 c102a8c:	0c103120 	.word	0x0c103120
 c102a90:	0c103120 	.word	0x0c103120
 c102a94:	0c103120 	.word	0x0c103120
 c102a98:	0c103120 	.word	0x0c103120
 c102a9c:	0c103120 	.word	0x0c103120
 c102aa0:	0c103120 	.word	0x0c103120
 c102aa4:	0c103120 	.word	0x0c103120
 c102aa8:	0c103120 	.word	0x0c103120
 c102aac:	0c103120 	.word	0x0c103120
 c102ab0:	0c103120 	.word	0x0c103120
 c102ab4:	0c103120 	.word	0x0c103120
 c102ab8:	0c103120 	.word	0x0c103120
 c102abc:	0c103120 	.word	0x0c103120
 c102ac0:	0c103120 	.word	0x0c103120
 c102ac4:	0c103120 	.word	0x0c103120
 c102ac8:	0c103120 	.word	0x0c103120
 c102acc:	0c103120 	.word	0x0c103120
 c102ad0:	0c103120 	.word	0x0c103120
 c102ad4:	0c103120 	.word	0x0c103120
 c102ad8:	0c103120 	.word	0x0c103120
 c102adc:	0c103120 	.word	0x0c103120
 c102ae0:	0c103120 	.word	0x0c103120
 c102ae4:	0c103120 	.word	0x0c103120
 c102ae8:	0c102de4 	.word	0x0c102de4
 c102aec:	0c103120 	.word	0x0c103120
 c102af0:	0c103120 	.word	0x0c103120
 c102af4:	0c102d68 	.word	0x0c102d68
	{
		case '1':
			latidosPorMin = ( latidosPorMin < 255 ? latidosPorMin+1 : latidosPorMin );
 c102af8:	e59f3648 	ldr	r3, [pc, #1608]	; c103148 <uart0int_isrRX+0x7f0>
 c102afc:	e5d33000 	ldrb	r3, [r3]
 c102b00:	e20330ff 	and	r3, r3, #255	; 0xff
 c102b04:	e35300ff 	cmp	r3, #255	; 0xff
 c102b08:	0a000005 	beq	c102b24 <uart0int_isrRX+0x1cc>
 c102b0c:	e59f3634 	ldr	r3, [pc, #1588]	; c103148 <uart0int_isrRX+0x7f0>
 c102b10:	e5d33000 	ldrb	r3, [r3]
 c102b14:	e20330ff 	and	r3, r3, #255	; 0xff
 c102b18:	e2833001 	add	r3, r3, #1
 c102b1c:	e20330ff 	and	r3, r3, #255	; 0xff
 c102b20:	ea000002 	b	c102b30 <uart0int_isrRX+0x1d8>
 c102b24:	e59f361c 	ldr	r3, [pc, #1564]	; c103148 <uart0int_isrRX+0x7f0>
 c102b28:	e5d33000 	ldrb	r3, [r3]
 c102b2c:	e20330ff 	and	r3, r3, #255	; 0xff
 c102b30:	e59f2610 	ldr	r2, [pc, #1552]	; c103148 <uart0int_isrRX+0x7f0>
 c102b34:	e5c23000 	strb	r3, [r2]
		    TCNTB3  = cntb[latidosPorMin];                             // Carga T3
 c102b38:	e59f360c 	ldr	r3, [pc, #1548]	; c10314c <uart0int_isrRX+0x7f4>
 c102b3c:	e59f2604 	ldr	r2, [pc, #1540]	; c103148 <uart0int_isrRX+0x7f0>
 c102b40:	e5d22000 	ldrb	r2, [r2]
 c102b44:	e20220ff 	and	r2, r2, #255	; 0xff
 c102b48:	e59f1600 	ldr	r1, [pc, #1536]	; c103150 <uart0int_isrRX+0x7f8>
 c102b4c:	e1a02082 	lsl	r2, r2, #1
 c102b50:	e0812002 	add	r2, r1, r2
 c102b54:	e1d220b0 	ldrh	r2, [r2]
 c102b58:	e5832000 	str	r2, [r3]
		    TCON    = (TCON & ~(0xf << 16)) | (1 << 19) | (1 << 17);   // Modo interval, carga TCNT3, stop T3
 c102b5c:	e59f35f0 	ldr	r3, [pc, #1520]	; c103154 <uart0int_isrRX+0x7fc>
 c102b60:	e59f25ec 	ldr	r2, [pc, #1516]	; c103154 <uart0int_isrRX+0x7fc>
 c102b64:	e5922000 	ldr	r2, [r2]
 c102b68:	e3c2280f 	bic	r2, r2, #983040	; 0xf0000
 c102b6c:	e382280a 	orr	r2, r2, #655360	; 0xa0000
 c102b70:	e5832000 	str	r2, [r3]
		    TCON    = (TCON & ~(0xf << 16)) | (1 << 19) | (1 << 16);   // Modo interval, no carga TCNT3, start T3
 c102b74:	e59f35d8 	ldr	r3, [pc, #1496]	; c103154 <uart0int_isrRX+0x7fc>
 c102b78:	e59f25d4 	ldr	r2, [pc, #1492]	; c103154 <uart0int_isrRX+0x7fc>
 c102b7c:	e5922000 	ldr	r2, [r2]
 c102b80:	e3c2280f 	bic	r2, r2, #983040	; 0xf0000
 c102b84:	e3822809 	orr	r2, r2, #589824	; 0x90000
 c102b88:	e5832000 	str	r2, [r3]
			uart0int_putMenu();
 c102b8c:	ebffff36 	bl	c10286c <uart0int_putMenu>
			break;
 c102b90:	ea000166 	b	c103130 <uart0int_isrRX+0x7d8>
		case '2':
			latidosPorMin = ( latidosPorMin <= 245 ? latidosPorMin+10 : latidosPorMin );
 c102b94:	e59f35ac 	ldr	r3, [pc, #1452]	; c103148 <uart0int_isrRX+0x7f0>
 c102b98:	e5d33000 	ldrb	r3, [r3]
 c102b9c:	e20330ff 	and	r3, r3, #255	; 0xff
 c102ba0:	e35300f5 	cmp	r3, #245	; 0xf5
 c102ba4:	8a000005 	bhi	c102bc0 <uart0int_isrRX+0x268>
 c102ba8:	e59f3598 	ldr	r3, [pc, #1432]	; c103148 <uart0int_isrRX+0x7f0>
 c102bac:	e5d33000 	ldrb	r3, [r3]
 c102bb0:	e20330ff 	and	r3, r3, #255	; 0xff
 c102bb4:	e283300a 	add	r3, r3, #10
 c102bb8:	e20330ff 	and	r3, r3, #255	; 0xff
 c102bbc:	ea000002 	b	c102bcc <uart0int_isrRX+0x274>
 c102bc0:	e59f3580 	ldr	r3, [pc, #1408]	; c103148 <uart0int_isrRX+0x7f0>
 c102bc4:	e5d33000 	ldrb	r3, [r3]
 c102bc8:	e20330ff 	and	r3, r3, #255	; 0xff
 c102bcc:	e59f2574 	ldr	r2, [pc, #1396]	; c103148 <uart0int_isrRX+0x7f0>
 c102bd0:	e5c23000 	strb	r3, [r2]
		    TCNTB3  = cntb[latidosPorMin];                             // Carga T3
 c102bd4:	e59f3570 	ldr	r3, [pc, #1392]	; c10314c <uart0int_isrRX+0x7f4>
 c102bd8:	e59f2568 	ldr	r2, [pc, #1384]	; c103148 <uart0int_isrRX+0x7f0>
 c102bdc:	e5d22000 	ldrb	r2, [r2]
 c102be0:	e20220ff 	and	r2, r2, #255	; 0xff
 c102be4:	e59f1564 	ldr	r1, [pc, #1380]	; c103150 <uart0int_isrRX+0x7f8>
 c102be8:	e1a02082 	lsl	r2, r2, #1
 c102bec:	e0812002 	add	r2, r1, r2
 c102bf0:	e1d220b0 	ldrh	r2, [r2]
 c102bf4:	e5832000 	str	r2, [r3]
		    TCON    = (TCON & ~(0xf << 16)) | (1 << 19) | (1 << 17);   // Modo interval, carga TCNT3, stop T3
 c102bf8:	e59f3554 	ldr	r3, [pc, #1364]	; c103154 <uart0int_isrRX+0x7fc>
 c102bfc:	e59f2550 	ldr	r2, [pc, #1360]	; c103154 <uart0int_isrRX+0x7fc>
 c102c00:	e5922000 	ldr	r2, [r2]
 c102c04:	e3c2280f 	bic	r2, r2, #983040	; 0xf0000
 c102c08:	e382280a 	orr	r2, r2, #655360	; 0xa0000
 c102c0c:	e5832000 	str	r2, [r3]
		    TCON    = (TCON & ~(0xf << 16)) | (1 << 19) | (1 << 16);   // Modo interval, no carga TCNT3, start T3
 c102c10:	e59f353c 	ldr	r3, [pc, #1340]	; c103154 <uart0int_isrRX+0x7fc>
 c102c14:	e59f2538 	ldr	r2, [pc, #1336]	; c103154 <uart0int_isrRX+0x7fc>
 c102c18:	e5922000 	ldr	r2, [r2]
 c102c1c:	e3c2280f 	bic	r2, r2, #983040	; 0xf0000
 c102c20:	e3822809 	orr	r2, r2, #589824	; 0x90000
 c102c24:	e5832000 	str	r2, [r3]
			uart0int_putMenu();
 c102c28:	ebffff0f 	bl	c10286c <uart0int_putMenu>
			break;
 c102c2c:	ea00013f 	b	c103130 <uart0int_isrRX+0x7d8>
		case '3':
			latidosPorMin = ( latidosPorMin > 28 ? latidosPorMin-1 : latidosPorMin );
 c102c30:	e59f3510 	ldr	r3, [pc, #1296]	; c103148 <uart0int_isrRX+0x7f0>
 c102c34:	e5d33000 	ldrb	r3, [r3]
 c102c38:	e20330ff 	and	r3, r3, #255	; 0xff
 c102c3c:	e353001c 	cmp	r3, #28
 c102c40:	9a000005 	bls	c102c5c <uart0int_isrRX+0x304>
 c102c44:	e59f34fc 	ldr	r3, [pc, #1276]	; c103148 <uart0int_isrRX+0x7f0>
 c102c48:	e5d33000 	ldrb	r3, [r3]
 c102c4c:	e20330ff 	and	r3, r3, #255	; 0xff
 c102c50:	e2433001 	sub	r3, r3, #1
 c102c54:	e20330ff 	and	r3, r3, #255	; 0xff
 c102c58:	ea000002 	b	c102c68 <uart0int_isrRX+0x310>
 c102c5c:	e59f34e4 	ldr	r3, [pc, #1252]	; c103148 <uart0int_isrRX+0x7f0>
 c102c60:	e5d33000 	ldrb	r3, [r3]
 c102c64:	e20330ff 	and	r3, r3, #255	; 0xff
 c102c68:	e59f24d8 	ldr	r2, [pc, #1240]	; c103148 <uart0int_isrRX+0x7f0>
 c102c6c:	e5c23000 	strb	r3, [r2]
		    TCNTB3  = cntb[latidosPorMin];                             // Carga T3
 c102c70:	e59f34d4 	ldr	r3, [pc, #1236]	; c10314c <uart0int_isrRX+0x7f4>
 c102c74:	e59f24cc 	ldr	r2, [pc, #1228]	; c103148 <uart0int_isrRX+0x7f0>
 c102c78:	e5d22000 	ldrb	r2, [r2]
 c102c7c:	e20220ff 	and	r2, r2, #255	; 0xff
 c102c80:	e59f14c8 	ldr	r1, [pc, #1224]	; c103150 <uart0int_isrRX+0x7f8>
 c102c84:	e1a02082 	lsl	r2, r2, #1
 c102c88:	e0812002 	add	r2, r1, r2
 c102c8c:	e1d220b0 	ldrh	r2, [r2]
 c102c90:	e5832000 	str	r2, [r3]
		    TCON    = (TCON & ~(0xf << 16)) | (1 << 19) | (1 << 17);   // Modo interval, carga TCNT3, stop T3
 c102c94:	e59f34b8 	ldr	r3, [pc, #1208]	; c103154 <uart0int_isrRX+0x7fc>
 c102c98:	e59f24b4 	ldr	r2, [pc, #1204]	; c103154 <uart0int_isrRX+0x7fc>
 c102c9c:	e5922000 	ldr	r2, [r2]
 c102ca0:	e3c2280f 	bic	r2, r2, #983040	; 0xf0000
 c102ca4:	e382280a 	orr	r2, r2, #655360	; 0xa0000
 c102ca8:	e5832000 	str	r2, [r3]
		    TCON    = (TCON & ~(0xf << 16)) | (1 << 19) | (1 << 16);   // Modo interval, no carga TCNT3, start T3
 c102cac:	e59f34a0 	ldr	r3, [pc, #1184]	; c103154 <uart0int_isrRX+0x7fc>
 c102cb0:	e59f249c 	ldr	r2, [pc, #1180]	; c103154 <uart0int_isrRX+0x7fc>
 c102cb4:	e5922000 	ldr	r2, [r2]
 c102cb8:	e3c2280f 	bic	r2, r2, #983040	; 0xf0000
 c102cbc:	e3822809 	orr	r2, r2, #589824	; 0x90000
 c102cc0:	e5832000 	str	r2, [r3]
		    uart0int_putMenu();
 c102cc4:	ebfffee8 	bl	c10286c <uart0int_putMenu>
			break;
 c102cc8:	ea000118 	b	c103130 <uart0int_isrRX+0x7d8>
		case '4':
			latidosPorMin = ( latidosPorMin >= 38 ? latidosPorMin-10 : latidosPorMin );
 c102ccc:	e59f3474 	ldr	r3, [pc, #1140]	; c103148 <uart0int_isrRX+0x7f0>
 c102cd0:	e5d33000 	ldrb	r3, [r3]
 c102cd4:	e20330ff 	and	r3, r3, #255	; 0xff
 c102cd8:	e3530025 	cmp	r3, #37	; 0x25
 c102cdc:	9a000005 	bls	c102cf8 <uart0int_isrRX+0x3a0>
 c102ce0:	e59f3460 	ldr	r3, [pc, #1120]	; c103148 <uart0int_isrRX+0x7f0>
 c102ce4:	e5d33000 	ldrb	r3, [r3]
 c102ce8:	e20330ff 	and	r3, r3, #255	; 0xff
 c102cec:	e243300a 	sub	r3, r3, #10
 c102cf0:	e20330ff 	and	r3, r3, #255	; 0xff
 c102cf4:	ea000002 	b	c102d04 <uart0int_isrRX+0x3ac>
 c102cf8:	e59f3448 	ldr	r3, [pc, #1096]	; c103148 <uart0int_isrRX+0x7f0>
 c102cfc:	e5d33000 	ldrb	r3, [r3]
 c102d00:	e20330ff 	and	r3, r3, #255	; 0xff
 c102d04:	e59f243c 	ldr	r2, [pc, #1084]	; c103148 <uart0int_isrRX+0x7f0>
 c102d08:	e5c23000 	strb	r3, [r2]
		    TCNTB3  = cntb[latidosPorMin];                             // Carga T3
 c102d0c:	e59f3438 	ldr	r3, [pc, #1080]	; c10314c <uart0int_isrRX+0x7f4>
 c102d10:	e59f2430 	ldr	r2, [pc, #1072]	; c103148 <uart0int_isrRX+0x7f0>
 c102d14:	e5d22000 	ldrb	r2, [r2]
 c102d18:	e20220ff 	and	r2, r2, #255	; 0xff
 c102d1c:	e59f142c 	ldr	r1, [pc, #1068]	; c103150 <uart0int_isrRX+0x7f8>
 c102d20:	e1a02082 	lsl	r2, r2, #1
 c102d24:	e0812002 	add	r2, r1, r2
 c102d28:	e1d220b0 	ldrh	r2, [r2]
 c102d2c:	e5832000 	str	r2, [r3]
		    TCON    = (TCON & ~(0xf << 16)) | (1 << 19) | (1 << 17);   // Modo interval, carga TCNT3, stop T3
 c102d30:	e59f341c 	ldr	r3, [pc, #1052]	; c103154 <uart0int_isrRX+0x7fc>
 c102d34:	e59f2418 	ldr	r2, [pc, #1048]	; c103154 <uart0int_isrRX+0x7fc>
 c102d38:	e5922000 	ldr	r2, [r2]
 c102d3c:	e3c2280f 	bic	r2, r2, #983040	; 0xf0000
 c102d40:	e382280a 	orr	r2, r2, #655360	; 0xa0000
 c102d44:	e5832000 	str	r2, [r3]
		    TCON    = (TCON & ~(0xf << 16)) | (1 << 19) | (1 << 16);   // Modo interval, no carga TCNT3, start T3
 c102d48:	e59f3404 	ldr	r3, [pc, #1028]	; c103154 <uart0int_isrRX+0x7fc>
 c102d4c:	e59f2400 	ldr	r2, [pc, #1024]	; c103154 <uart0int_isrRX+0x7fc>
 c102d50:	e5922000 	ldr	r2, [r2]
 c102d54:	e3c2280f 	bic	r2, r2, #983040	; 0xf0000
 c102d58:	e3822809 	orr	r2, r2, #589824	; 0x90000
 c102d5c:	e5832000 	str	r2, [r3]
			uart0int_putMenu();
 c102d60:	ebfffec1 	bl	c10286c <uart0int_putMenu>
			break;
 c102d64:	ea0000f1 	b	c103130 <uart0int_isrRX+0x7d8>
		case 'd':
		case 'D':
			pasosPorMin = 0;
 c102d68:	e59f33e8 	ldr	r3, [pc, #1000]	; c103158 <uart0int_isrRX+0x800>
 c102d6c:	e3a02000 	mov	r2, #0
 c102d70:	e5c32000 	strb	r2, [r3]
		    TCNTB2  = cntb[pasosPorMin];                               // Carga T2
 c102d74:	e59f33e0 	ldr	r3, [pc, #992]	; c10315c <uart0int_isrRX+0x804>
 c102d78:	e59f23d8 	ldr	r2, [pc, #984]	; c103158 <uart0int_isrRX+0x800>
 c102d7c:	e5d22000 	ldrb	r2, [r2]
 c102d80:	e20220ff 	and	r2, r2, #255	; 0xff
 c102d84:	e59f13c4 	ldr	r1, [pc, #964]	; c103150 <uart0int_isrRX+0x7f8>
 c102d88:	e1a02082 	lsl	r2, r2, #1
 c102d8c:	e0812002 	add	r2, r1, r2
 c102d90:	e1d220b0 	ldrh	r2, [r2]
 c102d94:	e5832000 	str	r2, [r3]
		    TCON    = (TCON & ~(0xf << 12)) | (1 << 15) | (1 << 13);   // Modo interval, carga TCNT2, stop T2
 c102d98:	e59f33b4 	ldr	r3, [pc, #948]	; c103154 <uart0int_isrRX+0x7fc>
 c102d9c:	e59f23b0 	ldr	r2, [pc, #944]	; c103154 <uart0int_isrRX+0x7fc>
 c102da0:	e5922000 	ldr	r2, [r2]
 c102da4:	e3c22a0f 	bic	r2, r2, #61440	; 0xf000
 c102da8:	e3822a0a 	orr	r2, r2, #40960	; 0xa000
 c102dac:	e5832000 	str	r2, [r3]
		    TCON    = (TCON & ~(0xf << 12)) | (1 << 15) | (1 << 12);   // Modo interval, no carga TCNT2, start T2
 c102db0:	e59f339c 	ldr	r3, [pc, #924]	; c103154 <uart0int_isrRX+0x7fc>
 c102db4:	e59f2398 	ldr	r2, [pc, #920]	; c103154 <uart0int_isrRX+0x7fc>
 c102db8:	e5922000 	ldr	r2, [r2]
 c102dbc:	e3c22a0f 	bic	r2, r2, #61440	; 0xf000
 c102dc0:	e3822a09 	orr	r2, r2, #36864	; 0x9000
 c102dc4:	e5832000 	str	r2, [r3]
			INTMSK |= BIT_TIMER2;
 c102dc8:	e59f3390 	ldr	r3, [pc, #912]	; c103160 <uart0int_isrRX+0x808>
 c102dcc:	e59f238c 	ldr	r2, [pc, #908]	; c103160 <uart0int_isrRX+0x808>
 c102dd0:	e5922000 	ldr	r2, [r2]
 c102dd4:	e3822b02 	orr	r2, r2, #2048	; 0x800
 c102dd8:	e5832000 	str	r2, [r3]
		    uart0int_putMenu();
 c102ddc:	ebfffea2 	bl	c10286c <uart0int_putMenu>
			break;
 c102de0:	ea0000d2 	b	c103130 <uart0int_isrRX+0x7d8>
		case 'a':
		case 'A':
			pasosPorMin = 10;
 c102de4:	e59f336c 	ldr	r3, [pc, #876]	; c103158 <uart0int_isrRX+0x800>
 c102de8:	e3a0200a 	mov	r2, #10
 c102dec:	e5c32000 	strb	r2, [r3]
		    TCNTB2  = cntb[pasosPorMin];                               // Carga T2
 c102df0:	e59f3364 	ldr	r3, [pc, #868]	; c10315c <uart0int_isrRX+0x804>
 c102df4:	e59f235c 	ldr	r2, [pc, #860]	; c103158 <uart0int_isrRX+0x800>
 c102df8:	e5d22000 	ldrb	r2, [r2]
 c102dfc:	e20220ff 	and	r2, r2, #255	; 0xff
 c102e00:	e59f1348 	ldr	r1, [pc, #840]	; c103150 <uart0int_isrRX+0x7f8>
 c102e04:	e1a02082 	lsl	r2, r2, #1
 c102e08:	e0812002 	add	r2, r1, r2
 c102e0c:	e1d220b0 	ldrh	r2, [r2]
 c102e10:	e5832000 	str	r2, [r3]
		    TCON    = (TCON & ~(0xf << 12)) | (1 << 15) | (1 << 13);   // Modo interval, carga TCNT2, stop T2
 c102e14:	e59f3338 	ldr	r3, [pc, #824]	; c103154 <uart0int_isrRX+0x7fc>
 c102e18:	e59f2334 	ldr	r2, [pc, #820]	; c103154 <uart0int_isrRX+0x7fc>
 c102e1c:	e5922000 	ldr	r2, [r2]
 c102e20:	e3c22a0f 	bic	r2, r2, #61440	; 0xf000
 c102e24:	e3822a0a 	orr	r2, r2, #40960	; 0xa000
 c102e28:	e5832000 	str	r2, [r3]
		    TCON    = (TCON & ~(0xf << 12)) | (1 << 15) | (1 << 12);   // Modo interval, no carga TCNT2, start T2
 c102e2c:	e59f3320 	ldr	r3, [pc, #800]	; c103154 <uart0int_isrRX+0x7fc>
 c102e30:	e59f231c 	ldr	r2, [pc, #796]	; c103154 <uart0int_isrRX+0x7fc>
 c102e34:	e5922000 	ldr	r2, [r2]
 c102e38:	e3c22a0f 	bic	r2, r2, #61440	; 0xf000
 c102e3c:	e3822a09 	orr	r2, r2, #36864	; 0x9000
 c102e40:	e5832000 	str	r2, [r3]
		    INTMSK &= ~BIT_TIMER2;
 c102e44:	e59f3314 	ldr	r3, [pc, #788]	; c103160 <uart0int_isrRX+0x808>
 c102e48:	e59f2310 	ldr	r2, [pc, #784]	; c103160 <uart0int_isrRX+0x808>
 c102e4c:	e5922000 	ldr	r2, [r2]
 c102e50:	e3c22b02 	bic	r2, r2, #2048	; 0x800
 c102e54:	e5832000 	str	r2, [r3]
			uart0int_putMenu();
 c102e58:	ebfffe83 	bl	c10286c <uart0int_putMenu>
			break;
 c102e5c:	ea0000b3 	b	c103130 <uart0int_isrRX+0x7d8>
		case '5':
			pasosPorMin = ( pasosPorMin != 0 && pasosPorMin < 200 ? pasosPorMin+1 : pasosPorMin );
 c102e60:	e59f32f0 	ldr	r3, [pc, #752]	; c103158 <uart0int_isrRX+0x800>
 c102e64:	e5d33000 	ldrb	r3, [r3]
 c102e68:	e20330ff 	and	r3, r3, #255	; 0xff
 c102e6c:	e3530000 	cmp	r3, #0
 c102e70:	0a00000a 	beq	c102ea0 <uart0int_isrRX+0x548>
 c102e74:	e59f32dc 	ldr	r3, [pc, #732]	; c103158 <uart0int_isrRX+0x800>
 c102e78:	e5d33000 	ldrb	r3, [r3]
 c102e7c:	e20330ff 	and	r3, r3, #255	; 0xff
 c102e80:	e35300c7 	cmp	r3, #199	; 0xc7
 c102e84:	8a000005 	bhi	c102ea0 <uart0int_isrRX+0x548>
 c102e88:	e59f32c8 	ldr	r3, [pc, #712]	; c103158 <uart0int_isrRX+0x800>
 c102e8c:	e5d33000 	ldrb	r3, [r3]
 c102e90:	e20330ff 	and	r3, r3, #255	; 0xff
 c102e94:	e2833001 	add	r3, r3, #1
 c102e98:	e20330ff 	and	r3, r3, #255	; 0xff
 c102e9c:	ea000002 	b	c102eac <uart0int_isrRX+0x554>
 c102ea0:	e59f32b0 	ldr	r3, [pc, #688]	; c103158 <uart0int_isrRX+0x800>
 c102ea4:	e5d33000 	ldrb	r3, [r3]
 c102ea8:	e20330ff 	and	r3, r3, #255	; 0xff
 c102eac:	e59f22a4 	ldr	r2, [pc, #676]	; c103158 <uart0int_isrRX+0x800>
 c102eb0:	e5c23000 	strb	r3, [r2]
		    TCNTB2  = cntb[pasosPorMin];                               // Carga T2
 c102eb4:	e59f32a0 	ldr	r3, [pc, #672]	; c10315c <uart0int_isrRX+0x804>
 c102eb8:	e59f2298 	ldr	r2, [pc, #664]	; c103158 <uart0int_isrRX+0x800>
 c102ebc:	e5d22000 	ldrb	r2, [r2]
 c102ec0:	e20220ff 	and	r2, r2, #255	; 0xff
 c102ec4:	e59f1284 	ldr	r1, [pc, #644]	; c103150 <uart0int_isrRX+0x7f8>
 c102ec8:	e1a02082 	lsl	r2, r2, #1
 c102ecc:	e0812002 	add	r2, r1, r2
 c102ed0:	e1d220b0 	ldrh	r2, [r2]
 c102ed4:	e5832000 	str	r2, [r3]
		    TCON    = (TCON & ~(0xf << 12)) | (1 << 15) | (1 << 13);   // Modo interval, carga TCNT2, stop T2
 c102ed8:	e59f3274 	ldr	r3, [pc, #628]	; c103154 <uart0int_isrRX+0x7fc>
 c102edc:	e59f2270 	ldr	r2, [pc, #624]	; c103154 <uart0int_isrRX+0x7fc>
 c102ee0:	e5922000 	ldr	r2, [r2]
 c102ee4:	e3c22a0f 	bic	r2, r2, #61440	; 0xf000
 c102ee8:	e3822a0a 	orr	r2, r2, #40960	; 0xa000
 c102eec:	e5832000 	str	r2, [r3]
		    TCON    = (TCON & ~(0xf << 12)) | (1 << 15) | (1 << 12);   // Modo interval, no carga TCNT2, start T2
 c102ef0:	e59f325c 	ldr	r3, [pc, #604]	; c103154 <uart0int_isrRX+0x7fc>
 c102ef4:	e59f2258 	ldr	r2, [pc, #600]	; c103154 <uart0int_isrRX+0x7fc>
 c102ef8:	e5922000 	ldr	r2, [r2]
 c102efc:	e3c22a0f 	bic	r2, r2, #61440	; 0xf000
 c102f00:	e3822a09 	orr	r2, r2, #36864	; 0x9000
 c102f04:	e5832000 	str	r2, [r3]
			uart0int_putMenu();
 c102f08:	ebfffe57 	bl	c10286c <uart0int_putMenu>
			break;
 c102f0c:	ea000087 	b	c103130 <uart0int_isrRX+0x7d8>
		case '6':
			pasosPorMin = ( pasosPorMin != 0 && pasosPorMin <= 190 ? pasosPorMin+10 : pasosPorMin );
 c102f10:	e59f3240 	ldr	r3, [pc, #576]	; c103158 <uart0int_isrRX+0x800>
 c102f14:	e5d33000 	ldrb	r3, [r3]
 c102f18:	e20330ff 	and	r3, r3, #255	; 0xff
 c102f1c:	e3530000 	cmp	r3, #0
 c102f20:	0a00000a 	beq	c102f50 <uart0int_isrRX+0x5f8>
 c102f24:	e59f322c 	ldr	r3, [pc, #556]	; c103158 <uart0int_isrRX+0x800>
 c102f28:	e5d33000 	ldrb	r3, [r3]
 c102f2c:	e20330ff 	and	r3, r3, #255	; 0xff
 c102f30:	e35300be 	cmp	r3, #190	; 0xbe
 c102f34:	8a000005 	bhi	c102f50 <uart0int_isrRX+0x5f8>
 c102f38:	e59f3218 	ldr	r3, [pc, #536]	; c103158 <uart0int_isrRX+0x800>
 c102f3c:	e5d33000 	ldrb	r3, [r3]
 c102f40:	e20330ff 	and	r3, r3, #255	; 0xff
 c102f44:	e283300a 	add	r3, r3, #10
 c102f48:	e20330ff 	and	r3, r3, #255	; 0xff
 c102f4c:	ea000002 	b	c102f5c <uart0int_isrRX+0x604>
 c102f50:	e59f3200 	ldr	r3, [pc, #512]	; c103158 <uart0int_isrRX+0x800>
 c102f54:	e5d33000 	ldrb	r3, [r3]
 c102f58:	e20330ff 	and	r3, r3, #255	; 0xff
 c102f5c:	e59f21f4 	ldr	r2, [pc, #500]	; c103158 <uart0int_isrRX+0x800>
 c102f60:	e5c23000 	strb	r3, [r2]
		    TCNTB2  = cntb[pasosPorMin];                               // Carga T2
 c102f64:	e59f31f0 	ldr	r3, [pc, #496]	; c10315c <uart0int_isrRX+0x804>
 c102f68:	e59f21e8 	ldr	r2, [pc, #488]	; c103158 <uart0int_isrRX+0x800>
 c102f6c:	e5d22000 	ldrb	r2, [r2]
 c102f70:	e20220ff 	and	r2, r2, #255	; 0xff
 c102f74:	e59f11d4 	ldr	r1, [pc, #468]	; c103150 <uart0int_isrRX+0x7f8>
 c102f78:	e1a02082 	lsl	r2, r2, #1
 c102f7c:	e0812002 	add	r2, r1, r2
 c102f80:	e1d220b0 	ldrh	r2, [r2]
 c102f84:	e5832000 	str	r2, [r3]
		    TCON    = (TCON & ~(0xf << 12)) | (1 << 15) | (1 << 13);   // Modo interval, carga TCNT2, stop T2
 c102f88:	e59f31c4 	ldr	r3, [pc, #452]	; c103154 <uart0int_isrRX+0x7fc>
 c102f8c:	e59f21c0 	ldr	r2, [pc, #448]	; c103154 <uart0int_isrRX+0x7fc>
 c102f90:	e5922000 	ldr	r2, [r2]
 c102f94:	e3c22a0f 	bic	r2, r2, #61440	; 0xf000
 c102f98:	e3822a0a 	orr	r2, r2, #40960	; 0xa000
 c102f9c:	e5832000 	str	r2, [r3]
		    TCON    = (TCON & ~(0xf << 12)) | (1 << 15) | (1 << 12);   // Modo interval, no carga TCNT2, start T2
 c102fa0:	e59f31ac 	ldr	r3, [pc, #428]	; c103154 <uart0int_isrRX+0x7fc>
 c102fa4:	e59f21a8 	ldr	r2, [pc, #424]	; c103154 <uart0int_isrRX+0x7fc>
 c102fa8:	e5922000 	ldr	r2, [r2]
 c102fac:	e3c22a0f 	bic	r2, r2, #61440	; 0xf000
 c102fb0:	e3822a09 	orr	r2, r2, #36864	; 0x9000
 c102fb4:	e5832000 	str	r2, [r3]
		    uart0int_putMenu();
 c102fb8:	ebfffe2b 	bl	c10286c <uart0int_putMenu>
			break;
 c102fbc:	ea00005b 	b	c103130 <uart0int_isrRX+0x7d8>
		case '7':
			pasosPorMin = ( pasosPorMin != 0 && pasosPorMin > 10 ? pasosPorMin-1 : pasosPorMin );
 c102fc0:	e59f3190 	ldr	r3, [pc, #400]	; c103158 <uart0int_isrRX+0x800>
 c102fc4:	e5d33000 	ldrb	r3, [r3]
 c102fc8:	e20330ff 	and	r3, r3, #255	; 0xff
 c102fcc:	e3530000 	cmp	r3, #0
 c102fd0:	0a00000a 	beq	c103000 <uart0int_isrRX+0x6a8>
 c102fd4:	e59f317c 	ldr	r3, [pc, #380]	; c103158 <uart0int_isrRX+0x800>
 c102fd8:	e5d33000 	ldrb	r3, [r3]
 c102fdc:	e20330ff 	and	r3, r3, #255	; 0xff
 c102fe0:	e353000a 	cmp	r3, #10
 c102fe4:	9a000005 	bls	c103000 <uart0int_isrRX+0x6a8>
 c102fe8:	e59f3168 	ldr	r3, [pc, #360]	; c103158 <uart0int_isrRX+0x800>
 c102fec:	e5d33000 	ldrb	r3, [r3]
 c102ff0:	e20330ff 	and	r3, r3, #255	; 0xff
 c102ff4:	e2433001 	sub	r3, r3, #1
 c102ff8:	e20330ff 	and	r3, r3, #255	; 0xff
 c102ffc:	ea000002 	b	c10300c <uart0int_isrRX+0x6b4>
 c103000:	e59f3150 	ldr	r3, [pc, #336]	; c103158 <uart0int_isrRX+0x800>
 c103004:	e5d33000 	ldrb	r3, [r3]
 c103008:	e20330ff 	and	r3, r3, #255	; 0xff
 c10300c:	e59f2144 	ldr	r2, [pc, #324]	; c103158 <uart0int_isrRX+0x800>
 c103010:	e5c23000 	strb	r3, [r2]
		    TCNTB2  = cntb[pasosPorMin];                               // Carga T2
 c103014:	e59f3140 	ldr	r3, [pc, #320]	; c10315c <uart0int_isrRX+0x804>
 c103018:	e59f2138 	ldr	r2, [pc, #312]	; c103158 <uart0int_isrRX+0x800>
 c10301c:	e5d22000 	ldrb	r2, [r2]
 c103020:	e20220ff 	and	r2, r2, #255	; 0xff
 c103024:	e59f1124 	ldr	r1, [pc, #292]	; c103150 <uart0int_isrRX+0x7f8>
 c103028:	e1a02082 	lsl	r2, r2, #1
 c10302c:	e0812002 	add	r2, r1, r2
 c103030:	e1d220b0 	ldrh	r2, [r2]
 c103034:	e5832000 	str	r2, [r3]
		    TCON    = (TCON & ~(0xf << 12)) | (1 << 15) | (1 << 13);   // Modo interval, carga TCNT2, stop T2
 c103038:	e59f3114 	ldr	r3, [pc, #276]	; c103154 <uart0int_isrRX+0x7fc>
 c10303c:	e59f2110 	ldr	r2, [pc, #272]	; c103154 <uart0int_isrRX+0x7fc>
 c103040:	e5922000 	ldr	r2, [r2]
 c103044:	e3c22a0f 	bic	r2, r2, #61440	; 0xf000
 c103048:	e3822a0a 	orr	r2, r2, #40960	; 0xa000
 c10304c:	e5832000 	str	r2, [r3]
		    TCON    = (TCON & ~(0xf << 12)) | (1 << 15) | (1 << 12);   // Modo interval, no carga TCNT2, start T2
 c103050:	e59f30fc 	ldr	r3, [pc, #252]	; c103154 <uart0int_isrRX+0x7fc>
 c103054:	e59f20f8 	ldr	r2, [pc, #248]	; c103154 <uart0int_isrRX+0x7fc>
 c103058:	e5922000 	ldr	r2, [r2]
 c10305c:	e3c22a0f 	bic	r2, r2, #61440	; 0xf000
 c103060:	e3822a09 	orr	r2, r2, #36864	; 0x9000
 c103064:	e5832000 	str	r2, [r3]
			uart0int_putMenu();
 c103068:	ebfffdff 	bl	c10286c <uart0int_putMenu>
			break;
 c10306c:	ea00002f 	b	c103130 <uart0int_isrRX+0x7d8>
		case '8':
			pasosPorMin = ( pasosPorMin != 0 && pasosPorMin >= 20 ? pasosPorMin-10 : pasosPorMin );
 c103070:	e59f30e0 	ldr	r3, [pc, #224]	; c103158 <uart0int_isrRX+0x800>
 c103074:	e5d33000 	ldrb	r3, [r3]
 c103078:	e20330ff 	and	r3, r3, #255	; 0xff
 c10307c:	e3530000 	cmp	r3, #0
 c103080:	0a00000a 	beq	c1030b0 <uart0int_isrRX+0x758>
 c103084:	e59f30cc 	ldr	r3, [pc, #204]	; c103158 <uart0int_isrRX+0x800>
 c103088:	e5d33000 	ldrb	r3, [r3]
 c10308c:	e20330ff 	and	r3, r3, #255	; 0xff
 c103090:	e3530013 	cmp	r3, #19
 c103094:	9a000005 	bls	c1030b0 <uart0int_isrRX+0x758>
 c103098:	e59f30b8 	ldr	r3, [pc, #184]	; c103158 <uart0int_isrRX+0x800>
 c10309c:	e5d33000 	ldrb	r3, [r3]
 c1030a0:	e20330ff 	and	r3, r3, #255	; 0xff
 c1030a4:	e243300a 	sub	r3, r3, #10
 c1030a8:	e20330ff 	and	r3, r3, #255	; 0xff
 c1030ac:	ea000002 	b	c1030bc <uart0int_isrRX+0x764>
 c1030b0:	e59f30a0 	ldr	r3, [pc, #160]	; c103158 <uart0int_isrRX+0x800>
 c1030b4:	e5d33000 	ldrb	r3, [r3]
 c1030b8:	e20330ff 	and	r3, r3, #255	; 0xff
 c1030bc:	e59f2094 	ldr	r2, [pc, #148]	; c103158 <uart0int_isrRX+0x800>
 c1030c0:	e5c23000 	strb	r3, [r2]
		    TCNTB2  = cntb[pasosPorMin];                               // Carga T2
 c1030c4:	e59f3090 	ldr	r3, [pc, #144]	; c10315c <uart0int_isrRX+0x804>
 c1030c8:	e59f2088 	ldr	r2, [pc, #136]	; c103158 <uart0int_isrRX+0x800>
 c1030cc:	e5d22000 	ldrb	r2, [r2]
 c1030d0:	e20220ff 	and	r2, r2, #255	; 0xff
 c1030d4:	e59f1074 	ldr	r1, [pc, #116]	; c103150 <uart0int_isrRX+0x7f8>
 c1030d8:	e1a02082 	lsl	r2, r2, #1
 c1030dc:	e0812002 	add	r2, r1, r2
 c1030e0:	e1d220b0 	ldrh	r2, [r2]
 c1030e4:	e5832000 	str	r2, [r3]
		    TCON    = (TCON & ~(0xf << 12)) | (1 << 15) | (1 << 13);   // Modo interval, carga TCNT2, stop T2
 c1030e8:	e59f3064 	ldr	r3, [pc, #100]	; c103154 <uart0int_isrRX+0x7fc>
 c1030ec:	e59f2060 	ldr	r2, [pc, #96]	; c103154 <uart0int_isrRX+0x7fc>
 c1030f0:	e5922000 	ldr	r2, [r2]
 c1030f4:	e3c22a0f 	bic	r2, r2, #61440	; 0xf000
 c1030f8:	e3822a0a 	orr	r2, r2, #40960	; 0xa000
 c1030fc:	e5832000 	str	r2, [r3]
		    TCON    = (TCON & ~(0xf << 12)) | (1 << 15) | (1 << 12);   // Modo interval, no carga TCNT2, start T2
 c103100:	e59f304c 	ldr	r3, [pc, #76]	; c103154 <uart0int_isrRX+0x7fc>
 c103104:	e59f2048 	ldr	r2, [pc, #72]	; c103154 <uart0int_isrRX+0x7fc>
 c103108:	e5922000 	ldr	r2, [r2]
 c10310c:	e3c22a0f 	bic	r2, r2, #61440	; 0xf000
 c103110:	e3822a09 	orr	r2, r2, #36864	; 0x9000
 c103114:	e5832000 	str	r2, [r3]
			uart0int_putMenu();
 c103118:	ebfffdd3 	bl	c10286c <uart0int_putMenu>
			break;
 c10311c:	ea000003 	b	c103130 <uart0int_isrRX+0x7d8>
	    case '\n':
			break;
		default:
			uart0int_putMenu();
 c103120:	ebfffdd1 	bl	c10286c <uart0int_putMenu>
			break;
 c103124:	e1a00000 	nop			; (mov r0, r0)
 c103128:	ea000000 	b	c103130 <uart0int_isrRX+0x7d8>
		    TCON    = (TCON & ~(0xf << 12)) | (1 << 15) | (1 << 13);   // Modo interval, carga TCNT2, stop T2
		    TCON    = (TCON & ~(0xf << 12)) | (1 << 15) | (1 << 12);   // Modo interval, no carga TCNT2, start T2
			uart0int_putMenu();
			break;
	    case '\n':
			break;
 c10312c:	e1a00000 	nop			; (mov r0, r0)
		default:
			uart0int_putMenu();
			break;
	}

}
 c103130:	e24bd01c 	sub	sp, fp, #28
 c103134:	e89d680f 	ldm	sp, {r0, r1, r2, r3, fp, sp, lr}
 c103138:	e49dc004 	pop	{ip}		; (ldr ip, [sp], #4)
 c10313c:	e25ef004 	subs	pc, lr, #4
 c103140:	01e00024 	.word	0x01e00024
 c103144:	01d00024 	.word	0x01d00024
 c103148:	0c117a1e 	.word	0x0c117a1e
 c10314c:	01d50030 	.word	0x01d50030
 c103150:	0c10c264 	.word	0x0c10c264
 c103154:	01d50008 	.word	0x01d50008
 c103158:	0c117a1f 	.word	0x0c117a1f
 c10315c:	01d50024 	.word	0x01d50024
 c103160:	01e0000c 	.word	0x01e0000c

0c103164 <fifo_init>:

/*******************************************************************/

void fifo_init( fifo_t *pfifo )
{
 c103164:	e1a0c00d 	mov	ip, sp
 c103168:	e92dd800 	push	{fp, ip, lr, pc}
 c10316c:	e24cb004 	sub	fp, ip, #4
 c103170:	e24dd008 	sub	sp, sp, #8
 c103174:	e50b0010 	str	r0, [fp, #-16]
	pfifo->head = 0;
 c103178:	e51b3010 	ldr	r3, [fp, #-16]
 c10317c:	e3a02000 	mov	r2, #0
 c103180:	e1c320b0 	strh	r2, [r3]
	pfifo->tail = 0;
 c103184:	e51b3010 	ldr	r3, [fp, #-16]
 c103188:	e3a02000 	mov	r2, #0
 c10318c:	e1c320b2 	strh	r2, [r3, #2]
	pfifo->size = 0;
 c103190:	e51b3010 	ldr	r3, [fp, #-16]
 c103194:	e3a02000 	mov	r2, #0
 c103198:	e1c320b4 	strh	r2, [r3, #4]
}
 c10319c:	e24bd00c 	sub	sp, fp, #12
 c1031a0:	e89d6800 	ldm	sp, {fp, sp, lr}
 c1031a4:	e12fff1e 	bx	lr

0c1031a8 <fifo_enqueue>:

void fifo_enqueue( fifo_t *pfifo, uint8 data )
{
 c1031a8:	e1a0c00d 	mov	ip, sp
 c1031ac:	e92dd800 	push	{fp, ip, lr, pc}
 c1031b0:	e24cb004 	sub	fp, ip, #4
 c1031b4:	e24dd008 	sub	sp, sp, #8
 c1031b8:	e50b0010 	str	r0, [fp, #-16]
 c1031bc:	e1a03001 	mov	r3, r1
 c1031c0:	e54b3011 	strb	r3, [fp, #-17]	; 0xffffffef
	pfifo->buffer[pfifo->tail++] = data;
 c1031c4:	e51b3010 	ldr	r3, [fp, #-16]
 c1031c8:	e1d330b2 	ldrh	r3, [r3, #2]
 c1031cc:	e1a03803 	lsl	r3, r3, #16
 c1031d0:	e1a03823 	lsr	r3, r3, #16
 c1031d4:	e1a01003 	mov	r1, r3
 c1031d8:	e51b0010 	ldr	r0, [fp, #-16]
 c1031dc:	e3a02006 	mov	r2, #6
 c1031e0:	e0801001 	add	r1, r0, r1
 c1031e4:	e0812002 	add	r2, r1, r2
 c1031e8:	e55b1011 	ldrb	r1, [fp, #-17]	; 0xffffffef
 c1031ec:	e5c21000 	strb	r1, [r2]
 c1031f0:	e2833001 	add	r3, r3, #1
 c1031f4:	e1a03803 	lsl	r3, r3, #16
 c1031f8:	e1a02823 	lsr	r2, r3, #16
 c1031fc:	e51b3010 	ldr	r3, [fp, #-16]
 c103200:	e1c320b2 	strh	r2, [r3, #2]
	if( pfifo->tail == FIFO_SIZE )
 c103204:	e51b3010 	ldr	r3, [fp, #-16]
 c103208:	e1d330b2 	ldrh	r3, [r3, #2]
 c10320c:	e1a03803 	lsl	r3, r3, #16
 c103210:	e1a03823 	lsr	r3, r3, #16
 c103214:	e3530b01 	cmp	r3, #1024	; 0x400
 c103218:	1a000002 	bne	c103228 <fifo_enqueue+0x80>
		pfifo->tail = 0;
 c10321c:	e51b3010 	ldr	r3, [fp, #-16]
 c103220:	e3a02000 	mov	r2, #0
 c103224:	e1c320b2 	strh	r2, [r3, #2]
	INT_DISABLE;
 c103228:	e10f0000 	mrs	r0, CPSR
 c10322c:	e52d0004 	push	{r0}		; (str r0, [sp, #-4]!)
 c103230:	e38000c0 	orr	r0, r0, #192	; 0xc0
 c103234:	e121f000 	msr	CPSR_c, r0
	pfifo->size++;
 c103238:	e51b3010 	ldr	r3, [fp, #-16]
 c10323c:	e1d330b4 	ldrh	r3, [r3, #4]
 c103240:	e1a03803 	lsl	r3, r3, #16
 c103244:	e1a03823 	lsr	r3, r3, #16
 c103248:	e2833001 	add	r3, r3, #1
 c10324c:	e1a03803 	lsl	r3, r3, #16
 c103250:	e1a02823 	lsr	r2, r3, #16
 c103254:	e51b3010 	ldr	r3, [fp, #-16]
 c103258:	e1c320b4 	strh	r2, [r3, #4]
	INT_ENABLE;
 c10325c:	e49d0004 	pop	{r0}		; (ldr r0, [sp], #4)
 c103260:	e121f000 	msr	CPSR_c, r0
}
 c103264:	e24bd00c 	sub	sp, fp, #12
 c103268:	e89d6800 	ldm	sp, {fp, sp, lr}
 c10326c:	e12fff1e 	bx	lr

0c103270 <fifo_dequeue>:

void fifo_dequeue( fifo_t *pfifo, uint8 *data )
{
 c103270:	e1a0c00d 	mov	ip, sp
 c103274:	e92dd800 	push	{fp, ip, lr, pc}
 c103278:	e24cb004 	sub	fp, ip, #4
 c10327c:	e24dd008 	sub	sp, sp, #8
 c103280:	e50b0010 	str	r0, [fp, #-16]
 c103284:	e50b1014 	str	r1, [fp, #-20]	; 0xffffffec
	*data = pfifo->buffer[pfifo->head++];
 c103288:	e51b3010 	ldr	r3, [fp, #-16]
 c10328c:	e1d330b0 	ldrh	r3, [r3]
 c103290:	e1a03803 	lsl	r3, r3, #16
 c103294:	e1a03823 	lsr	r3, r3, #16
 c103298:	e1a01003 	mov	r1, r3
 c10329c:	e51b0010 	ldr	r0, [fp, #-16]
 c1032a0:	e3a02006 	mov	r2, #6
 c1032a4:	e0801001 	add	r1, r0, r1
 c1032a8:	e0812002 	add	r2, r1, r2
 c1032ac:	e5d21000 	ldrb	r1, [r2]
 c1032b0:	e51b2014 	ldr	r2, [fp, #-20]	; 0xffffffec
 c1032b4:	e5c21000 	strb	r1, [r2]
 c1032b8:	e2833001 	add	r3, r3, #1
 c1032bc:	e1a03803 	lsl	r3, r3, #16
 c1032c0:	e1a02823 	lsr	r2, r3, #16
 c1032c4:	e51b3010 	ldr	r3, [fp, #-16]
 c1032c8:	e1c320b0 	strh	r2, [r3]
	if( pfifo->head == FIFO_SIZE )
 c1032cc:	e51b3010 	ldr	r3, [fp, #-16]
 c1032d0:	e1d330b0 	ldrh	r3, [r3]
 c1032d4:	e1a03803 	lsl	r3, r3, #16
 c1032d8:	e1a03823 	lsr	r3, r3, #16
 c1032dc:	e3530b01 	cmp	r3, #1024	; 0x400
 c1032e0:	1a000002 	bne	c1032f0 <fifo_dequeue+0x80>
		pfifo->head = 0;
 c1032e4:	e51b3010 	ldr	r3, [fp, #-16]
 c1032e8:	e3a02000 	mov	r2, #0
 c1032ec:	e1c320b0 	strh	r2, [r3]
	INT_DISABLE;
 c1032f0:	e10f0000 	mrs	r0, CPSR
 c1032f4:	e52d0004 	push	{r0}		; (str r0, [sp, #-4]!)
 c1032f8:	e38000c0 	orr	r0, r0, #192	; 0xc0
 c1032fc:	e121f000 	msr	CPSR_c, r0
	pfifo->size--;
 c103300:	e51b3010 	ldr	r3, [fp, #-16]
 c103304:	e1d330b4 	ldrh	r3, [r3, #4]
 c103308:	e1a03803 	lsl	r3, r3, #16
 c10330c:	e1a03823 	lsr	r3, r3, #16
 c103310:	e2433001 	sub	r3, r3, #1
 c103314:	e1a03803 	lsl	r3, r3, #16
 c103318:	e1a02823 	lsr	r2, r3, #16
 c10331c:	e51b3010 	ldr	r3, [fp, #-16]
 c103320:	e1c320b4 	strh	r2, [r3, #4]
	INT_ENABLE;
 c103324:	e49d0004 	pop	{r0}		; (ldr r0, [sp], #4)
 c103328:	e121f000 	msr	CPSR_c, r0
}
 c10332c:	e24bd00c 	sub	sp, fp, #12
 c103330:	e89d6800 	ldm	sp, {fp, sp, lr}
 c103334:	e12fff1e 	bx	lr

0c103338 <fifo_is_empty>:

boolean fifo_is_empty( fifo_t *pfifo )
{
 c103338:	e1a0c00d 	mov	ip, sp
 c10333c:	e92dd800 	push	{fp, ip, lr, pc}
 c103340:	e24cb004 	sub	fp, ip, #4
 c103344:	e24dd008 	sub	sp, sp, #8
 c103348:	e50b0010 	str	r0, [fp, #-16]
	return (pfifo->size == 0);
 c10334c:	e51b3010 	ldr	r3, [fp, #-16]
 c103350:	e1d330b4 	ldrh	r3, [r3, #4]
 c103354:	e1a03803 	lsl	r3, r3, #16
 c103358:	e1a03823 	lsr	r3, r3, #16
 c10335c:	e3530000 	cmp	r3, #0
 c103360:	13a03000 	movne	r3, #0
 c103364:	03a03001 	moveq	r3, #1
 c103368:	e20330ff 	and	r3, r3, #255	; 0xff
}
 c10336c:	e1a00003 	mov	r0, r3
 c103370:	e24bd00c 	sub	sp, fp, #12
 c103374:	e89d6800 	ldm	sp, {fp, sp, lr}
 c103378:	e12fff1e 	bx	lr

0c10337c <fifo_is_full>:

boolean fifo_is_full( fifo_t *pfifo )
{
 c10337c:	e1a0c00d 	mov	ip, sp
 c103380:	e92dd800 	push	{fp, ip, lr, pc}
 c103384:	e24cb004 	sub	fp, ip, #4
 c103388:	e24dd008 	sub	sp, sp, #8
 c10338c:	e50b0010 	str	r0, [fp, #-16]
	return (pfifo->size == FIFO_SIZE-1);
 c103390:	e51b3010 	ldr	r3, [fp, #-16]
 c103394:	e1d330b4 	ldrh	r3, [r3, #4]
 c103398:	e1a03803 	lsl	r3, r3, #16
 c10339c:	e1a02823 	lsr	r2, r3, #16
 c1033a0:	e59f301c 	ldr	r3, [pc, #28]	; c1033c4 <fifo_is_full+0x48>
 c1033a4:	e1520003 	cmp	r2, r3
 c1033a8:	13a03000 	movne	r3, #0
 c1033ac:	03a03001 	moveq	r3, #1
 c1033b0:	e20330ff 	and	r3, r3, #255	; 0xff
}
 c1033b4:	e1a00003 	mov	r0, r3
 c1033b8:	e24bd00c 	sub	sp, fp, #12
 c1033bc:	e89d6800 	ldm	sp, {fp, sp, lr}
 c1033c0:	e12fff1e 	bx	lr
 c1033c4:	000003ff 	.word	0x000003ff

0c1033c8 <memcpy>:
 c1033c8:	e1a0c00d 	mov	ip, sp
 c1033cc:	e92dd800 	push	{fp, ip, lr, pc}
 c1033d0:	e24cb004 	sub	fp, ip, #4
 c1033d4:	e24dd010 	sub	sp, sp, #16
 c1033d8:	e50b0010 	str	r0, [fp, #-16]
 c1033dc:	e50b1014 	str	r1, [fp, #-20]	; 0xffffffec
 c1033e0:	e50b2018 	str	r2, [fp, #-24]	; 0xffffffe8
 c1033e4:	ea00000c 	b	c10341c <memcpy+0x54>
 c1033e8:	e51b3014 	ldr	r3, [fp, #-20]	; 0xffffffec
 c1033ec:	e5d32000 	ldrb	r2, [r3]
 c1033f0:	e51b3010 	ldr	r3, [fp, #-16]
 c1033f4:	e5c32000 	strb	r2, [r3]
 c1033f8:	e51b3010 	ldr	r3, [fp, #-16]
 c1033fc:	e2833001 	add	r3, r3, #1
 c103400:	e50b3010 	str	r3, [fp, #-16]
 c103404:	e51b3014 	ldr	r3, [fp, #-20]	; 0xffffffec
 c103408:	e2833001 	add	r3, r3, #1
 c10340c:	e50b3014 	str	r3, [fp, #-20]	; 0xffffffec
 c103410:	e51b3018 	ldr	r3, [fp, #-24]	; 0xffffffe8
 c103414:	e2433001 	sub	r3, r3, #1
 c103418:	e50b3018 	str	r3, [fp, #-24]	; 0xffffffe8
 c10341c:	e51b3018 	ldr	r3, [fp, #-24]	; 0xffffffe8
 c103420:	e3530000 	cmp	r3, #0
 c103424:	1affffef 	bne	c1033e8 <memcpy+0x20>
 c103428:	e24bd00c 	sub	sp, fp, #12
 c10342c:	e89d6800 	ldm	sp, {fp, sp, lr}
 c103430:	e12fff1e 	bx	lr

0c103434 <memset>:
 c103434:	e1a0c00d 	mov	ip, sp
 c103438:	e92dd800 	push	{fp, ip, lr, pc}
 c10343c:	e24cb004 	sub	fp, ip, #4
 c103440:	e24dd010 	sub	sp, sp, #16
 c103444:	e50b0010 	str	r0, [fp, #-16]
 c103448:	e1a03001 	mov	r3, r1
 c10344c:	e50b2018 	str	r2, [fp, #-24]	; 0xffffffe8
 c103450:	e54b3011 	strb	r3, [fp, #-17]	; 0xffffffef
 c103454:	ea000008 	b	c10347c <memset+0x48>
 c103458:	e51b3010 	ldr	r3, [fp, #-16]
 c10345c:	e55b2011 	ldrb	r2, [fp, #-17]	; 0xffffffef
 c103460:	e5c32000 	strb	r2, [r3]
 c103464:	e51b3010 	ldr	r3, [fp, #-16]
 c103468:	e2833001 	add	r3, r3, #1
 c10346c:	e50b3010 	str	r3, [fp, #-16]
 c103470:	e51b3018 	ldr	r3, [fp, #-24]	; 0xffffffe8
 c103474:	e2433001 	sub	r3, r3, #1
 c103478:	e50b3018 	str	r3, [fp, #-24]	; 0xffffffe8
 c10347c:	e51b3018 	ldr	r3, [fp, #-24]	; 0xffffffe8
 c103480:	e3530000 	cmp	r3, #0
 c103484:	1afffff3 	bne	c103458 <memset+0x24>
 c103488:	e24bd00c 	sub	sp, fp, #12
 c10348c:	e89d6800 	ldm	sp, {fp, sp, lr}
 c103490:	e12fff1e 	bx	lr

0c103494 <memcmp>:
 c103494:	e1a0c00d 	mov	ip, sp
 c103498:	e92dd800 	push	{fp, ip, lr, pc}
 c10349c:	e24cb004 	sub	fp, ip, #4
 c1034a0:	e24dd018 	sub	sp, sp, #24
 c1034a4:	e50b0018 	str	r0, [fp, #-24]	; 0xffffffe8
 c1034a8:	e50b101c 	str	r1, [fp, #-28]	; 0xffffffe4
 c1034ac:	e50b2020 	str	r2, [fp, #-32]	; 0xffffffe0
 c1034b0:	e3a03000 	mov	r3, #0
 c1034b4:	e54b300d 	strb	r3, [fp, #-13]
 c1034b8:	ea00000e 	b	c1034f8 <memcmp+0x64>
 c1034bc:	e51b3018 	ldr	r3, [fp, #-24]	; 0xffffffe8
 c1034c0:	e5d32000 	ldrb	r2, [r3]
 c1034c4:	e51b301c 	ldr	r3, [fp, #-28]	; 0xffffffe4
 c1034c8:	e5d33000 	ldrb	r3, [r3]
 c1034cc:	e0633002 	rsb	r3, r3, r2
 c1034d0:	e54b300d 	strb	r3, [fp, #-13]
 c1034d4:	e51b3018 	ldr	r3, [fp, #-24]	; 0xffffffe8
 c1034d8:	e2833001 	add	r3, r3, #1
 c1034dc:	e50b3018 	str	r3, [fp, #-24]	; 0xffffffe8
 c1034e0:	e51b301c 	ldr	r3, [fp, #-28]	; 0xffffffe4
 c1034e4:	e2833001 	add	r3, r3, #1
 c1034e8:	e50b301c 	str	r3, [fp, #-28]	; 0xffffffe4
 c1034ec:	e51b3020 	ldr	r3, [fp, #-32]	; 0xffffffe0
 c1034f0:	e2433001 	sub	r3, r3, #1
 c1034f4:	e50b3020 	str	r3, [fp, #-32]	; 0xffffffe0
 c1034f8:	e51b3020 	ldr	r3, [fp, #-32]	; 0xffffffe0
 c1034fc:	e3530000 	cmp	r3, #0
 c103500:	0a000002 	beq	c103510 <memcmp+0x7c>
 c103504:	e55b300d 	ldrb	r3, [fp, #-13]
 c103508:	e3530000 	cmp	r3, #0
 c10350c:	0affffea 	beq	c1034bc <memcmp+0x28>
 c103510:	e55b300d 	ldrb	r3, [fp, #-13]
 c103514:	e1a00003 	mov	r0, r3
 c103518:	e24bd00c 	sub	sp, fp, #12
 c10351c:	e89d6800 	ldm	sp, {fp, sp, lr}
 c103520:	e12fff1e 	bx	lr

0c103524 <random>:
 c103524:	e1a0c00d 	mov	ip, sp
 c103528:	e92dd800 	push	{fp, ip, lr, pc}
 c10352c:	e24cb004 	sub	fp, ip, #4
 c103530:	e24dd010 	sub	sp, sp, #16
 c103534:	e50b0018 	str	r0, [fp, #-24]	; 0xffffffe8
 c103538:	e51b3018 	ldr	r3, [fp, #-24]	; 0xffffffe8
 c10353c:	e3530000 	cmp	r3, #0
 c103540:	0a000002 	beq	c103550 <random+0x2c>
 c103544:	e59f3084 	ldr	r3, [pc, #132]	; c1035d0 <random+0xac>
 c103548:	e51b2018 	ldr	r2, [fp, #-24]	; 0xffffffe8
 c10354c:	e5832000 	str	r2, [r3]
 c103550:	e59f3078 	ldr	r3, [pc, #120]	; c1035d0 <random+0xac>
 c103554:	e5933000 	ldr	r3, [r3]
 c103558:	e1a02fa3 	lsr	r2, r3, #31
 c10355c:	e59f306c 	ldr	r3, [pc, #108]	; c1035d0 <random+0xac>
 c103560:	e5933000 	ldr	r3, [r3]
 c103564:	e1a03aa3 	lsr	r3, r3, #21
 c103568:	e0222003 	eor	r2, r2, r3
 c10356c:	e59f305c 	ldr	r3, [pc, #92]	; c1035d0 <random+0xac>
 c103570:	e5933000 	ldr	r3, [r3]
 c103574:	e1a030a3 	lsr	r3, r3, #1
 c103578:	e0222003 	eor	r2, r2, r3
 c10357c:	e59f304c 	ldr	r3, [pc, #76]	; c1035d0 <random+0xac>
 c103580:	e5933000 	ldr	r3, [r3]
 c103584:	e0223003 	eor	r3, r2, r3
 c103588:	e2033001 	and	r3, r3, #1
 c10358c:	e3530000 	cmp	r3, #0
 c103590:	13a03000 	movne	r3, #0
 c103594:	03a03001 	moveq	r3, #1
 c103598:	e50b3010 	str	r3, [fp, #-16]
 c10359c:	e59f302c 	ldr	r3, [pc, #44]	; c1035d0 <random+0xac>
 c1035a0:	e5933000 	ldr	r3, [r3]
 c1035a4:	e1a02083 	lsl	r2, r3, #1
 c1035a8:	e51b3010 	ldr	r3, [fp, #-16]
 c1035ac:	e1822003 	orr	r2, r2, r3
 c1035b0:	e59f3018 	ldr	r3, [pc, #24]	; c1035d0 <random+0xac>
 c1035b4:	e5832000 	str	r2, [r3]
 c1035b8:	e59f3010 	ldr	r3, [pc, #16]	; c1035d0 <random+0xac>
 c1035bc:	e5933000 	ldr	r3, [r3]
 c1035c0:	e1a00003 	mov	r0, r3
 c1035c4:	e24bd00c 	sub	sp, fp, #12
 c1035c8:	e89d6800 	ldm	sp, {fp, sp, lr}
 c1035cc:	e12fff1e 	bx	lr
 c1035d0:	0c117a20 	.word	0x0c117a20

0c1035d4 <checksum>:
 c1035d4:	e1a0c00d 	mov	ip, sp
 c1035d8:	e92dd800 	push	{fp, ip, lr, pc}
 c1035dc:	e24cb004 	sub	fp, ip, #4
 c1035e0:	e24dd018 	sub	sp, sp, #24
 c1035e4:	e50b0020 	str	r0, [fp, #-32]	; 0xffffffe0
 c1035e8:	e1a03001 	mov	r3, r1
 c1035ec:	e14b32b2 	strh	r3, [fp, #-34]	; 0xffffffde
 c1035f0:	e3a03000 	mov	r3, #0
 c1035f4:	e50b3014 	str	r3, [fp, #-20]	; 0xffffffec
 c1035f8:	e51b3020 	ldr	r3, [fp, #-32]	; 0xffffffe0
 c1035fc:	e50b3018 	str	r3, [fp, #-24]	; 0xffffffe8
 c103600:	e3a03000 	mov	r3, #0
 c103604:	e14b30be 	strh	r3, [fp, #-14]
 c103608:	ea000017 	b	c10366c <checksum+0x98>
 c10360c:	e15b30be 	ldrh	r3, [fp, #-14]
 c103610:	e1a03083 	lsl	r3, r3, #1
 c103614:	e51b2018 	ldr	r2, [fp, #-24]	; 0xffffffe8
 c103618:	e0823003 	add	r3, r2, r3
 c10361c:	e1d330b0 	ldrh	r3, [r3]
 c103620:	e1a03403 	lsl	r3, r3, #8
 c103624:	e1a03803 	lsl	r3, r3, #16
 c103628:	e1a03823 	lsr	r3, r3, #16
 c10362c:	e15b20be 	ldrh	r2, [fp, #-14]
 c103630:	e1a02082 	lsl	r2, r2, #1
 c103634:	e51b1018 	ldr	r1, [fp, #-24]	; 0xffffffe8
 c103638:	e0812002 	add	r2, r1, r2
 c10363c:	e1d220b0 	ldrh	r2, [r2]
 c103640:	e1a02422 	lsr	r2, r2, #8
 c103644:	e1a02802 	lsl	r2, r2, #16
 c103648:	e1a02822 	lsr	r2, r2, #16
 c10364c:	e20220ff 	and	r2, r2, #255	; 0xff
 c103650:	e1833002 	orr	r3, r3, r2
 c103654:	e51b2014 	ldr	r2, [fp, #-20]	; 0xffffffec
 c103658:	e0823003 	add	r3, r2, r3
 c10365c:	e50b3014 	str	r3, [fp, #-20]	; 0xffffffec
 c103660:	e15b30be 	ldrh	r3, [fp, #-14]
 c103664:	e2833001 	add	r3, r3, #1
 c103668:	e14b30be 	strh	r3, [fp, #-14]
 c10366c:	e15b32b2 	ldrh	r3, [fp, #-34]	; 0xffffffde
 c103670:	e1a030a3 	lsr	r3, r3, #1
 c103674:	e1a03803 	lsl	r3, r3, #16
 c103678:	e1a03823 	lsr	r3, r3, #16
 c10367c:	e15b20be 	ldrh	r2, [fp, #-14]
 c103680:	e1520003 	cmp	r2, r3
 c103684:	3affffe0 	bcc	c10360c <checksum+0x38>
 c103688:	e51b3014 	ldr	r3, [fp, #-20]	; 0xffffffec
 c10368c:	e1a03823 	lsr	r3, r3, #16
 c103690:	e1a03803 	lsl	r3, r3, #16
 c103694:	e1a02823 	lsr	r2, r3, #16
 c103698:	e51b3014 	ldr	r3, [fp, #-20]	; 0xffffffec
 c10369c:	e1a03803 	lsl	r3, r3, #16
 c1036a0:	e1a03823 	lsr	r3, r3, #16
 c1036a4:	e0823003 	add	r3, r2, r3
 c1036a8:	e1a03803 	lsl	r3, r3, #16
 c1036ac:	e1a03823 	lsr	r3, r3, #16
 c1036b0:	e1e03003 	mvn	r3, r3
 c1036b4:	e1a03803 	lsl	r3, r3, #16
 c1036b8:	e1a03823 	lsr	r3, r3, #16
 c1036bc:	e1a00003 	mov	r0, r3
 c1036c0:	e24bd00c 	sub	sp, fp, #12
 c1036c4:	e89d6800 	ldm	sp, {fp, sp, lr}
 c1036c8:	e12fff1e 	bx	lr

0c1036cc <uart0_putMac>:
 c1036cc:	e1a0c00d 	mov	ip, sp
 c1036d0:	e92dd800 	push	{fp, ip, lr, pc}
 c1036d4:	e24cb004 	sub	fp, ip, #4
 c1036d8:	e24dd010 	sub	sp, sp, #16
 c1036dc:	e50b0018 	str	r0, [fp, #-24]	; 0xffffffe8
 c1036e0:	e3a03000 	mov	r3, #0
 c1036e4:	e54b300d 	strb	r3, [fp, #-13]
 c1036e8:	ea000013 	b	c10373c <uart0_putMac+0x70>
 c1036ec:	e55b300d 	ldrb	r3, [fp, #-13]
 c1036f0:	e51b2018 	ldr	r2, [fp, #-24]	; 0xffffffe8
 c1036f4:	e0823003 	add	r3, r2, r3
 c1036f8:	e5d33000 	ldrb	r3, [r3]
 c1036fc:	e1a03223 	lsr	r3, r3, #4
 c103700:	e20330ff 	and	r3, r3, #255	; 0xff
 c103704:	e1a00003 	mov	r0, r3
 c103708:	eb001c71 	bl	c10a8d4 <uart0_puthex>
 c10370c:	e55b300d 	ldrb	r3, [fp, #-13]
 c103710:	e51b2018 	ldr	r2, [fp, #-24]	; 0xffffffe8
 c103714:	e0823003 	add	r3, r2, r3
 c103718:	e5d33000 	ldrb	r3, [r3]
 c10371c:	e203300f 	and	r3, r3, #15
 c103720:	e1a00003 	mov	r0, r3
 c103724:	eb001c6a 	bl	c10a8d4 <uart0_puthex>
 c103728:	e3a0003a 	mov	r0, #58	; 0x3a
 c10372c:	eb001bd7 	bl	c10a690 <uart0_putchar>
 c103730:	e55b300d 	ldrb	r3, [fp, #-13]
 c103734:	e2833001 	add	r3, r3, #1
 c103738:	e54b300d 	strb	r3, [fp, #-13]
 c10373c:	e55b300d 	ldrb	r3, [fp, #-13]
 c103740:	e3530004 	cmp	r3, #4
 c103744:	9affffe8 	bls	c1036ec <uart0_putMac+0x20>
 c103748:	e55b300d 	ldrb	r3, [fp, #-13]
 c10374c:	e51b2018 	ldr	r2, [fp, #-24]	; 0xffffffe8
 c103750:	e0823003 	add	r3, r2, r3
 c103754:	e5d33000 	ldrb	r3, [r3]
 c103758:	e1a03223 	lsr	r3, r3, #4
 c10375c:	e20330ff 	and	r3, r3, #255	; 0xff
 c103760:	e1a00003 	mov	r0, r3
 c103764:	eb001c5a 	bl	c10a8d4 <uart0_puthex>
 c103768:	e55b300d 	ldrb	r3, [fp, #-13]
 c10376c:	e51b2018 	ldr	r2, [fp, #-24]	; 0xffffffe8
 c103770:	e0823003 	add	r3, r2, r3
 c103774:	e5d33000 	ldrb	r3, [r3]
 c103778:	e203300f 	and	r3, r3, #15
 c10377c:	e1a00003 	mov	r0, r3
 c103780:	eb001c53 	bl	c10a8d4 <uart0_puthex>
 c103784:	e24bd00c 	sub	sp, fp, #12
 c103788:	e89d6800 	ldm	sp, {fp, sp, lr}
 c10378c:	e12fff1e 	bx	lr

0c103790 <uart0_putIp>:
 c103790:	e1a0c00d 	mov	ip, sp
 c103794:	e92dd800 	push	{fp, ip, lr, pc}
 c103798:	e24cb004 	sub	fp, ip, #4
 c10379c:	e24dd008 	sub	sp, sp, #8
 c1037a0:	e50b0010 	str	r0, [fp, #-16]
 c1037a4:	e51b3010 	ldr	r3, [fp, #-16]
 c1037a8:	e1a03c23 	lsr	r3, r3, #24
 c1037ac:	e1a00003 	mov	r0, r3
 c1037b0:	eb001bf2 	bl	c10a780 <uart0_putint>
 c1037b4:	e3a0002e 	mov	r0, #46	; 0x2e
 c1037b8:	eb001bb4 	bl	c10a690 <uart0_putchar>
 c1037bc:	e51b3010 	ldr	r3, [fp, #-16]
 c1037c0:	e20338ff 	and	r3, r3, #16711680	; 0xff0000
 c1037c4:	e1a03823 	lsr	r3, r3, #16
 c1037c8:	e1a00003 	mov	r0, r3
 c1037cc:	eb001beb 	bl	c10a780 <uart0_putint>
 c1037d0:	e3a0002e 	mov	r0, #46	; 0x2e
 c1037d4:	eb001bad 	bl	c10a690 <uart0_putchar>
 c1037d8:	e51b3010 	ldr	r3, [fp, #-16]
 c1037dc:	e2033cff 	and	r3, r3, #65280	; 0xff00
 c1037e0:	e1a03423 	lsr	r3, r3, #8
 c1037e4:	e1a00003 	mov	r0, r3
 c1037e8:	eb001be4 	bl	c10a780 <uart0_putint>
 c1037ec:	e3a0002e 	mov	r0, #46	; 0x2e
 c1037f0:	eb001ba6 	bl	c10a690 <uart0_putchar>
 c1037f4:	e51b3010 	ldr	r3, [fp, #-16]
 c1037f8:	e20330ff 	and	r3, r3, #255	; 0xff
 c1037fc:	e1a00003 	mov	r0, r3
 c103800:	eb001bde 	bl	c10a780 <uart0_putint>
 c103804:	e24bd00c 	sub	sp, fp, #12
 c103808:	e89d6800 	ldm	sp, {fp, sp, lr}
 c10380c:	e12fff1e 	bx	lr

0c103810 <uart0_putEthHeader>:
 c103810:	e1a0c00d 	mov	ip, sp
 c103814:	e92dd800 	push	{fp, ip, lr, pc}
 c103818:	e24cb004 	sub	fp, ip, #4
 c10381c:	e24dd010 	sub	sp, sp, #16
 c103820:	e50b0018 	str	r0, [fp, #-24]	; 0xffffffe8
 c103824:	e51b3018 	ldr	r3, [fp, #-24]	; 0xffffffe8
 c103828:	e50b3010 	str	r3, [fp, #-16]
 c10382c:	e59f006c 	ldr	r0, [pc, #108]	; c1038a0 <uart0_putEthHeader+0x90>
 c103830:	eb001bbe 	bl	c10a730 <uart0_puts>
 c103834:	e59f0068 	ldr	r0, [pc, #104]	; c1038a4 <uart0_putEthHeader+0x94>
 c103838:	eb001bbc 	bl	c10a730 <uart0_puts>
 c10383c:	e51b3010 	ldr	r3, [fp, #-16]
 c103840:	e5d3200c 	ldrb	r2, [r3, #12]
 c103844:	e5d3300d 	ldrb	r3, [r3, #13]
 c103848:	e1a03403 	lsl	r3, r3, #8
 c10384c:	e1833002 	orr	r3, r3, r2
 c103850:	e1a03803 	lsl	r3, r3, #16
 c103854:	e1a03823 	lsr	r3, r3, #16
 c103858:	e1a00003 	mov	r0, r3
 c10385c:	eb001c1c 	bl	c10a8d4 <uart0_puthex>
 c103860:	e59f0040 	ldr	r0, [pc, #64]	; c1038a8 <uart0_putEthHeader+0x98>
 c103864:	eb001bb1 	bl	c10a730 <uart0_puts>
 c103868:	e51b3010 	ldr	r3, [fp, #-16]
 c10386c:	e1a00003 	mov	r0, r3
 c103870:	ebffff95 	bl	c1036cc <uart0_putMac>
 c103874:	e59f0030 	ldr	r0, [pc, #48]	; c1038ac <uart0_putEthHeader+0x9c>
 c103878:	eb001bac 	bl	c10a730 <uart0_puts>
 c10387c:	e51b3010 	ldr	r3, [fp, #-16]
 c103880:	e2833006 	add	r3, r3, #6
 c103884:	e1a00003 	mov	r0, r3
 c103888:	ebffff8f 	bl	c1036cc <uart0_putMac>
 c10388c:	e3a0000a 	mov	r0, #10
 c103890:	eb001b7e 	bl	c10a690 <uart0_putchar>
 c103894:	e24bd00c 	sub	sp, fp, #12
 c103898:	e89d6800 	ldm	sp, {fp, sp, lr}
 c10389c:	e12fff1e 	bx	lr
 c1038a0:	0c10c680 	.word	0x0c10c680
 c1038a4:	0c10c694 	.word	0x0c10c694
 c1038a8:	0c10c69c 	.word	0x0c10c69c
 c1038ac:	0c10c6a4 	.word	0x0c10c6a4

0c1038b0 <uart0_putArpHeader>:
 c1038b0:	e1a0c00d 	mov	ip, sp
 c1038b4:	e92dd800 	push	{fp, ip, lr, pc}
 c1038b8:	e24cb004 	sub	fp, ip, #4
 c1038bc:	e24dd010 	sub	sp, sp, #16
 c1038c0:	e50b0018 	str	r0, [fp, #-24]	; 0xffffffe8
 c1038c4:	e51b3018 	ldr	r3, [fp, #-24]	; 0xffffffe8
 c1038c8:	e50b3010 	str	r3, [fp, #-16]
 c1038cc:	e59f029c 	ldr	r0, [pc, #668]	; c103b70 <uart0_putArpHeader+0x2c0>
 c1038d0:	eb001b96 	bl	c10a730 <uart0_puts>
 c1038d4:	e59f0298 	ldr	r0, [pc, #664]	; c103b74 <uart0_putArpHeader+0x2c4>
 c1038d8:	eb001b94 	bl	c10a730 <uart0_puts>
 c1038dc:	e51b3010 	ldr	r3, [fp, #-16]
 c1038e0:	e5d32006 	ldrb	r2, [r3, #6]
 c1038e4:	e5d33007 	ldrb	r3, [r3, #7]
 c1038e8:	e1a03403 	lsl	r3, r3, #8
 c1038ec:	e1833002 	orr	r3, r3, r2
 c1038f0:	e1a03803 	lsl	r3, r3, #16
 c1038f4:	e1a03823 	lsr	r3, r3, #16
 c1038f8:	e3530c01 	cmp	r3, #256	; 0x100
 c1038fc:	1a000002 	bne	c10390c <uart0_putArpHeader+0x5c>
 c103900:	e59f0270 	ldr	r0, [pc, #624]	; c103b78 <uart0_putArpHeader+0x2c8>
 c103904:	eb001b89 	bl	c10a730 <uart0_puts>
 c103908:	ea00000d 	b	c103944 <uart0_putArpHeader+0x94>
 c10390c:	e51b3010 	ldr	r3, [fp, #-16]
 c103910:	e5d32006 	ldrb	r2, [r3, #6]
 c103914:	e5d33007 	ldrb	r3, [r3, #7]
 c103918:	e1a03403 	lsl	r3, r3, #8
 c10391c:	e1833002 	orr	r3, r3, r2
 c103920:	e1a03803 	lsl	r3, r3, #16
 c103924:	e1a03823 	lsr	r3, r3, #16
 c103928:	e3530c02 	cmp	r3, #512	; 0x200
 c10392c:	1a000002 	bne	c10393c <uart0_putArpHeader+0x8c>
 c103930:	e59f0244 	ldr	r0, [pc, #580]	; c103b7c <uart0_putArpHeader+0x2cc>
 c103934:	eb001b7d 	bl	c10a730 <uart0_puts>
 c103938:	ea000001 	b	c103944 <uart0_putArpHeader+0x94>
 c10393c:	e59f023c 	ldr	r0, [pc, #572]	; c103b80 <uart0_putArpHeader+0x2d0>
 c103940:	eb001b7a 	bl	c10a730 <uart0_puts>
 c103944:	e3a0000a 	mov	r0, #10
 c103948:	eb001b50 	bl	c10a690 <uart0_putchar>
 c10394c:	e59f0230 	ldr	r0, [pc, #560]	; c103b84 <uart0_putArpHeader+0x2d4>
 c103950:	eb001b76 	bl	c10a730 <uart0_puts>
 c103954:	e51b3010 	ldr	r3, [fp, #-16]
 c103958:	e2833008 	add	r3, r3, #8
 c10395c:	e1a00003 	mov	r0, r3
 c103960:	ebffff59 	bl	c1036cc <uart0_putMac>
 c103964:	e3a0000a 	mov	r0, #10
 c103968:	eb001b48 	bl	c10a690 <uart0_putchar>
 c10396c:	e59f0214 	ldr	r0, [pc, #532]	; c103b88 <uart0_putArpHeader+0x2d8>
 c103970:	eb001b6e 	bl	c10a730 <uart0_puts>
 c103974:	e51b3010 	ldr	r3, [fp, #-16]
 c103978:	e5d3200e 	ldrb	r2, [r3, #14]
 c10397c:	e5d3100f 	ldrb	r1, [r3, #15]
 c103980:	e1a01401 	lsl	r1, r1, #8
 c103984:	e1812002 	orr	r2, r1, r2
 c103988:	e5d31010 	ldrb	r1, [r3, #16]
 c10398c:	e1a01801 	lsl	r1, r1, #16
 c103990:	e1812002 	orr	r2, r1, r2
 c103994:	e5d33011 	ldrb	r3, [r3, #17]
 c103998:	e1a03c03 	lsl	r3, r3, #24
 c10399c:	e1833002 	orr	r3, r3, r2
 c1039a0:	e1a02c03 	lsl	r2, r3, #24
 c1039a4:	e51b3010 	ldr	r3, [fp, #-16]
 c1039a8:	e5d3100e 	ldrb	r1, [r3, #14]
 c1039ac:	e5d3000f 	ldrb	r0, [r3, #15]
 c1039b0:	e1a00400 	lsl	r0, r0, #8
 c1039b4:	e1801001 	orr	r1, r0, r1
 c1039b8:	e5d30010 	ldrb	r0, [r3, #16]
 c1039bc:	e1a00800 	lsl	r0, r0, #16
 c1039c0:	e1801001 	orr	r1, r0, r1
 c1039c4:	e5d33011 	ldrb	r3, [r3, #17]
 c1039c8:	e1a03c03 	lsl	r3, r3, #24
 c1039cc:	e1833001 	orr	r3, r3, r1
 c1039d0:	e1a03403 	lsl	r3, r3, #8
 c1039d4:	e20338ff 	and	r3, r3, #16711680	; 0xff0000
 c1039d8:	e1822003 	orr	r2, r2, r3
 c1039dc:	e51b3010 	ldr	r3, [fp, #-16]
 c1039e0:	e5d3100e 	ldrb	r1, [r3, #14]
 c1039e4:	e5d3000f 	ldrb	r0, [r3, #15]
 c1039e8:	e1a00400 	lsl	r0, r0, #8
 c1039ec:	e1801001 	orr	r1, r0, r1
 c1039f0:	e5d30010 	ldrb	r0, [r3, #16]
 c1039f4:	e1a00800 	lsl	r0, r0, #16
 c1039f8:	e1801001 	orr	r1, r0, r1
 c1039fc:	e5d33011 	ldrb	r3, [r3, #17]
 c103a00:	e1a03c03 	lsl	r3, r3, #24
 c103a04:	e1833001 	orr	r3, r3, r1
 c103a08:	e1a03423 	lsr	r3, r3, #8
 c103a0c:	e2033cff 	and	r3, r3, #65280	; 0xff00
 c103a10:	e1822003 	orr	r2, r2, r3
 c103a14:	e51b3010 	ldr	r3, [fp, #-16]
 c103a18:	e5d3100e 	ldrb	r1, [r3, #14]
 c103a1c:	e5d3000f 	ldrb	r0, [r3, #15]
 c103a20:	e1a00400 	lsl	r0, r0, #8
 c103a24:	e1801001 	orr	r1, r0, r1
 c103a28:	e5d30010 	ldrb	r0, [r3, #16]
 c103a2c:	e1a00800 	lsl	r0, r0, #16
 c103a30:	e1801001 	orr	r1, r0, r1
 c103a34:	e5d33011 	ldrb	r3, [r3, #17]
 c103a38:	e1a03c03 	lsl	r3, r3, #24
 c103a3c:	e1833001 	orr	r3, r3, r1
 c103a40:	e1a03c23 	lsr	r3, r3, #24
 c103a44:	e1823003 	orr	r3, r2, r3
 c103a48:	e1a00003 	mov	r0, r3
 c103a4c:	ebffff4f 	bl	c103790 <uart0_putIp>
 c103a50:	e3a0000a 	mov	r0, #10
 c103a54:	eb001b0d 	bl	c10a690 <uart0_putchar>
 c103a58:	e59f012c 	ldr	r0, [pc, #300]	; c103b8c <uart0_putArpHeader+0x2dc>
 c103a5c:	eb001b33 	bl	c10a730 <uart0_puts>
 c103a60:	e51b3010 	ldr	r3, [fp, #-16]
 c103a64:	e2833012 	add	r3, r3, #18
 c103a68:	e1a00003 	mov	r0, r3
 c103a6c:	ebffff16 	bl	c1036cc <uart0_putMac>
 c103a70:	e3a0000a 	mov	r0, #10
 c103a74:	eb001b05 	bl	c10a690 <uart0_putchar>
 c103a78:	e59f0110 	ldr	r0, [pc, #272]	; c103b90 <uart0_putArpHeader+0x2e0>
 c103a7c:	eb001b2b 	bl	c10a730 <uart0_puts>
 c103a80:	e51b3010 	ldr	r3, [fp, #-16]
 c103a84:	e5d32018 	ldrb	r2, [r3, #24]
 c103a88:	e5d31019 	ldrb	r1, [r3, #25]
 c103a8c:	e1a01401 	lsl	r1, r1, #8
 c103a90:	e1812002 	orr	r2, r1, r2
 c103a94:	e5d3101a 	ldrb	r1, [r3, #26]
 c103a98:	e1a01801 	lsl	r1, r1, #16
 c103a9c:	e1812002 	orr	r2, r1, r2
 c103aa0:	e5d3301b 	ldrb	r3, [r3, #27]
 c103aa4:	e1a03c03 	lsl	r3, r3, #24
 c103aa8:	e1833002 	orr	r3, r3, r2
 c103aac:	e1a02c03 	lsl	r2, r3, #24
 c103ab0:	e51b3010 	ldr	r3, [fp, #-16]
 c103ab4:	e5d31018 	ldrb	r1, [r3, #24]
 c103ab8:	e5d30019 	ldrb	r0, [r3, #25]
 c103abc:	e1a00400 	lsl	r0, r0, #8
 c103ac0:	e1801001 	orr	r1, r0, r1
 c103ac4:	e5d3001a 	ldrb	r0, [r3, #26]
 c103ac8:	e1a00800 	lsl	r0, r0, #16
 c103acc:	e1801001 	orr	r1, r0, r1
 c103ad0:	e5d3301b 	ldrb	r3, [r3, #27]
 c103ad4:	e1a03c03 	lsl	r3, r3, #24
 c103ad8:	e1833001 	orr	r3, r3, r1
 c103adc:	e1a03403 	lsl	r3, r3, #8
 c103ae0:	e20338ff 	and	r3, r3, #16711680	; 0xff0000
 c103ae4:	e1822003 	orr	r2, r2, r3
 c103ae8:	e51b3010 	ldr	r3, [fp, #-16]
 c103aec:	e5d31018 	ldrb	r1, [r3, #24]
 c103af0:	e5d30019 	ldrb	r0, [r3, #25]
 c103af4:	e1a00400 	lsl	r0, r0, #8
 c103af8:	e1801001 	orr	r1, r0, r1
 c103afc:	e5d3001a 	ldrb	r0, [r3, #26]
 c103b00:	e1a00800 	lsl	r0, r0, #16
 c103b04:	e1801001 	orr	r1, r0, r1
 c103b08:	e5d3301b 	ldrb	r3, [r3, #27]
 c103b0c:	e1a03c03 	lsl	r3, r3, #24
 c103b10:	e1833001 	orr	r3, r3, r1
 c103b14:	e1a03423 	lsr	r3, r3, #8
 c103b18:	e2033cff 	and	r3, r3, #65280	; 0xff00
 c103b1c:	e1822003 	orr	r2, r2, r3
 c103b20:	e51b3010 	ldr	r3, [fp, #-16]
 c103b24:	e5d31018 	ldrb	r1, [r3, #24]
 c103b28:	e5d30019 	ldrb	r0, [r3, #25]
 c103b2c:	e1a00400 	lsl	r0, r0, #8
 c103b30:	e1801001 	orr	r1, r0, r1
 c103b34:	e5d3001a 	ldrb	r0, [r3, #26]
 c103b38:	e1a00800 	lsl	r0, r0, #16
 c103b3c:	e1801001 	orr	r1, r0, r1
 c103b40:	e5d3301b 	ldrb	r3, [r3, #27]
 c103b44:	e1a03c03 	lsl	r3, r3, #24
 c103b48:	e1833001 	orr	r3, r3, r1
 c103b4c:	e1a03c23 	lsr	r3, r3, #24
 c103b50:	e1823003 	orr	r3, r2, r3
 c103b54:	e1a00003 	mov	r0, r3
 c103b58:	ebffff0c 	bl	c103790 <uart0_putIp>
 c103b5c:	e3a0000a 	mov	r0, #10
 c103b60:	eb001aca 	bl	c10a690 <uart0_putchar>
 c103b64:	e24bd00c 	sub	sp, fp, #12
 c103b68:	e89d6800 	ldm	sp, {fp, sp, lr}
 c103b6c:	e12fff1e 	bx	lr
 c103b70:	0c10c6b0 	.word	0x0c10c6b0
 c103b74:	0c10c6c0 	.word	0x0c10c6c0
 c103b78:	0c10c6d0 	.word	0x0c10c6d0
 c103b7c:	0c10c6d8 	.word	0x0c10c6d8
 c103b80:	0c10c6e0 	.word	0x0c10c6e0
 c103b84:	0c10c6e8 	.word	0x0c10c6e8
 c103b88:	0c10c6f8 	.word	0x0c10c6f8
 c103b8c:	0c10c708 	.word	0x0c10c708
 c103b90:	0c10c718 	.word	0x0c10c718

0c103b94 <uart0_putIpHeader>:
 c103b94:	e1a0c00d 	mov	ip, sp
 c103b98:	e92dd800 	push	{fp, ip, lr, pc}
 c103b9c:	e24cb004 	sub	fp, ip, #4
 c103ba0:	e24dd010 	sub	sp, sp, #16
 c103ba4:	e50b0018 	str	r0, [fp, #-24]	; 0xffffffe8
 c103ba8:	e51b3018 	ldr	r3, [fp, #-24]	; 0xffffffe8
 c103bac:	e50b3010 	str	r3, [fp, #-16]
 c103bb0:	e59f048c 	ldr	r0, [pc, #1164]	; c104044 <uart0_putIpHeader+0x4b0>
 c103bb4:	eb001add 	bl	c10a730 <uart0_puts>
 c103bb8:	e59f0488 	ldr	r0, [pc, #1160]	; c104048 <uart0_putIpHeader+0x4b4>
 c103bbc:	eb001adb 	bl	c10a730 <uart0_puts>
 c103bc0:	e51b3010 	ldr	r3, [fp, #-16]
 c103bc4:	e5d33000 	ldrb	r3, [r3]
 c103bc8:	e1a03223 	lsr	r3, r3, #4
 c103bcc:	e20330ff 	and	r3, r3, #255	; 0xff
 c103bd0:	e1a03243 	asr	r3, r3, #4
 c103bd4:	e1a00003 	mov	r0, r3
 c103bd8:	eb001ae8 	bl	c10a780 <uart0_putint>
 c103bdc:	e3a0000a 	mov	r0, #10
 c103be0:	eb001aaa 	bl	c10a690 <uart0_putchar>
 c103be4:	e59f0460 	ldr	r0, [pc, #1120]	; c10404c <uart0_putIpHeader+0x4b8>
 c103be8:	eb001ad0 	bl	c10a730 <uart0_puts>
 c103bec:	e51b3010 	ldr	r3, [fp, #-16]
 c103bf0:	e5d33009 	ldrb	r3, [r3, #9]
 c103bf4:	e3530006 	cmp	r3, #6
 c103bf8:	0a000006 	beq	c103c18 <uart0_putIpHeader+0x84>
 c103bfc:	e3530011 	cmp	r3, #17
 c103c00:	0a000007 	beq	c103c24 <uart0_putIpHeader+0x90>
 c103c04:	e3530001 	cmp	r3, #1
 c103c08:	1a000008 	bne	c103c30 <uart0_putIpHeader+0x9c>
 c103c0c:	e59f043c 	ldr	r0, [pc, #1084]	; c104050 <uart0_putIpHeader+0x4bc>
 c103c10:	eb001ac6 	bl	c10a730 <uart0_puts>
 c103c14:	ea000008 	b	c103c3c <uart0_putIpHeader+0xa8>
 c103c18:	e59f0434 	ldr	r0, [pc, #1076]	; c104054 <uart0_putIpHeader+0x4c0>
 c103c1c:	eb001ac3 	bl	c10a730 <uart0_puts>
 c103c20:	ea000005 	b	c103c3c <uart0_putIpHeader+0xa8>
 c103c24:	e59f042c 	ldr	r0, [pc, #1068]	; c104058 <uart0_putIpHeader+0x4c4>
 c103c28:	eb001ac0 	bl	c10a730 <uart0_puts>
 c103c2c:	ea000002 	b	c103c3c <uart0_putIpHeader+0xa8>
 c103c30:	e59f0424 	ldr	r0, [pc, #1060]	; c10405c <uart0_putIpHeader+0x4c8>
 c103c34:	eb001abd 	bl	c10a730 <uart0_puts>
 c103c38:	e1a00000 	nop			; (mov r0, r0)
 c103c3c:	e3a0000a 	mov	r0, #10
 c103c40:	eb001a92 	bl	c10a690 <uart0_putchar>
 c103c44:	e59f0414 	ldr	r0, [pc, #1044]	; c104060 <uart0_putIpHeader+0x4cc>
 c103c48:	eb001ab8 	bl	c10a730 <uart0_puts>
 c103c4c:	e51b3010 	ldr	r3, [fp, #-16]
 c103c50:	e5d3200c 	ldrb	r2, [r3, #12]
 c103c54:	e5d3100d 	ldrb	r1, [r3, #13]
 c103c58:	e1a01401 	lsl	r1, r1, #8
 c103c5c:	e1812002 	orr	r2, r1, r2
 c103c60:	e5d3100e 	ldrb	r1, [r3, #14]
 c103c64:	e1a01801 	lsl	r1, r1, #16
 c103c68:	e1812002 	orr	r2, r1, r2
 c103c6c:	e5d3300f 	ldrb	r3, [r3, #15]
 c103c70:	e1a03c03 	lsl	r3, r3, #24
 c103c74:	e1833002 	orr	r3, r3, r2
 c103c78:	e1a02c03 	lsl	r2, r3, #24
 c103c7c:	e51b3010 	ldr	r3, [fp, #-16]
 c103c80:	e5d3100c 	ldrb	r1, [r3, #12]
 c103c84:	e5d3000d 	ldrb	r0, [r3, #13]
 c103c88:	e1a00400 	lsl	r0, r0, #8
 c103c8c:	e1801001 	orr	r1, r0, r1
 c103c90:	e5d3000e 	ldrb	r0, [r3, #14]
 c103c94:	e1a00800 	lsl	r0, r0, #16
 c103c98:	e1801001 	orr	r1, r0, r1
 c103c9c:	e5d3300f 	ldrb	r3, [r3, #15]
 c103ca0:	e1a03c03 	lsl	r3, r3, #24
 c103ca4:	e1833001 	orr	r3, r3, r1
 c103ca8:	e1a03403 	lsl	r3, r3, #8
 c103cac:	e20338ff 	and	r3, r3, #16711680	; 0xff0000
 c103cb0:	e1822003 	orr	r2, r2, r3
 c103cb4:	e51b3010 	ldr	r3, [fp, #-16]
 c103cb8:	e5d3100c 	ldrb	r1, [r3, #12]
 c103cbc:	e5d3000d 	ldrb	r0, [r3, #13]
 c103cc0:	e1a00400 	lsl	r0, r0, #8
 c103cc4:	e1801001 	orr	r1, r0, r1
 c103cc8:	e5d3000e 	ldrb	r0, [r3, #14]
 c103ccc:	e1a00800 	lsl	r0, r0, #16
 c103cd0:	e1801001 	orr	r1, r0, r1
 c103cd4:	e5d3300f 	ldrb	r3, [r3, #15]
 c103cd8:	e1a03c03 	lsl	r3, r3, #24
 c103cdc:	e1833001 	orr	r3, r3, r1
 c103ce0:	e1a03423 	lsr	r3, r3, #8
 c103ce4:	e2033cff 	and	r3, r3, #65280	; 0xff00
 c103ce8:	e1822003 	orr	r2, r2, r3
 c103cec:	e51b3010 	ldr	r3, [fp, #-16]
 c103cf0:	e5d3100c 	ldrb	r1, [r3, #12]
 c103cf4:	e5d3000d 	ldrb	r0, [r3, #13]
 c103cf8:	e1a00400 	lsl	r0, r0, #8
 c103cfc:	e1801001 	orr	r1, r0, r1
 c103d00:	e5d3000e 	ldrb	r0, [r3, #14]
 c103d04:	e1a00800 	lsl	r0, r0, #16
 c103d08:	e1801001 	orr	r1, r0, r1
 c103d0c:	e5d3300f 	ldrb	r3, [r3, #15]
 c103d10:	e1a03c03 	lsl	r3, r3, #24
 c103d14:	e1833001 	orr	r3, r3, r1
 c103d18:	e1a03c23 	lsr	r3, r3, #24
 c103d1c:	e1823003 	orr	r3, r2, r3
 c103d20:	e1a00003 	mov	r0, r3
 c103d24:	ebfffe99 	bl	c103790 <uart0_putIp>
 c103d28:	e3a0000a 	mov	r0, #10
 c103d2c:	eb001a57 	bl	c10a690 <uart0_putchar>
 c103d30:	e59f032c 	ldr	r0, [pc, #812]	; c104064 <uart0_putIpHeader+0x4d0>
 c103d34:	eb001a7d 	bl	c10a730 <uart0_puts>
 c103d38:	e51b3010 	ldr	r3, [fp, #-16]
 c103d3c:	e5d32010 	ldrb	r2, [r3, #16]
 c103d40:	e5d31011 	ldrb	r1, [r3, #17]
 c103d44:	e1a01401 	lsl	r1, r1, #8
 c103d48:	e1812002 	orr	r2, r1, r2
 c103d4c:	e5d31012 	ldrb	r1, [r3, #18]
 c103d50:	e1a01801 	lsl	r1, r1, #16
 c103d54:	e1812002 	orr	r2, r1, r2
 c103d58:	e5d33013 	ldrb	r3, [r3, #19]
 c103d5c:	e1a03c03 	lsl	r3, r3, #24
 c103d60:	e1833002 	orr	r3, r3, r2
 c103d64:	e1a02c03 	lsl	r2, r3, #24
 c103d68:	e51b3010 	ldr	r3, [fp, #-16]
 c103d6c:	e5d31010 	ldrb	r1, [r3, #16]
 c103d70:	e5d30011 	ldrb	r0, [r3, #17]
 c103d74:	e1a00400 	lsl	r0, r0, #8
 c103d78:	e1801001 	orr	r1, r0, r1
 c103d7c:	e5d30012 	ldrb	r0, [r3, #18]
 c103d80:	e1a00800 	lsl	r0, r0, #16
 c103d84:	e1801001 	orr	r1, r0, r1
 c103d88:	e5d33013 	ldrb	r3, [r3, #19]
 c103d8c:	e1a03c03 	lsl	r3, r3, #24
 c103d90:	e1833001 	orr	r3, r3, r1
 c103d94:	e1a03403 	lsl	r3, r3, #8
 c103d98:	e20338ff 	and	r3, r3, #16711680	; 0xff0000
 c103d9c:	e1822003 	orr	r2, r2, r3
 c103da0:	e51b3010 	ldr	r3, [fp, #-16]
 c103da4:	e5d31010 	ldrb	r1, [r3, #16]
 c103da8:	e5d30011 	ldrb	r0, [r3, #17]
 c103dac:	e1a00400 	lsl	r0, r0, #8
 c103db0:	e1801001 	orr	r1, r0, r1
 c103db4:	e5d30012 	ldrb	r0, [r3, #18]
 c103db8:	e1a00800 	lsl	r0, r0, #16
 c103dbc:	e1801001 	orr	r1, r0, r1
 c103dc0:	e5d33013 	ldrb	r3, [r3, #19]
 c103dc4:	e1a03c03 	lsl	r3, r3, #24
 c103dc8:	e1833001 	orr	r3, r3, r1
 c103dcc:	e1a03423 	lsr	r3, r3, #8
 c103dd0:	e2033cff 	and	r3, r3, #65280	; 0xff00
 c103dd4:	e1822003 	orr	r2, r2, r3
 c103dd8:	e51b3010 	ldr	r3, [fp, #-16]
 c103ddc:	e5d31010 	ldrb	r1, [r3, #16]
 c103de0:	e5d30011 	ldrb	r0, [r3, #17]
 c103de4:	e1a00400 	lsl	r0, r0, #8
 c103de8:	e1801001 	orr	r1, r0, r1
 c103dec:	e5d30012 	ldrb	r0, [r3, #18]
 c103df0:	e1a00800 	lsl	r0, r0, #16
 c103df4:	e1801001 	orr	r1, r0, r1
 c103df8:	e5d33013 	ldrb	r3, [r3, #19]
 c103dfc:	e1a03c03 	lsl	r3, r3, #24
 c103e00:	e1833001 	orr	r3, r3, r1
 c103e04:	e1a03c23 	lsr	r3, r3, #24
 c103e08:	e1823003 	orr	r3, r2, r3
 c103e0c:	e1a00003 	mov	r0, r3
 c103e10:	ebfffe5e 	bl	c103790 <uart0_putIp>
 c103e14:	e3a0000a 	mov	r0, #10
 c103e18:	eb001a1c 	bl	c10a690 <uart0_putchar>
 c103e1c:	e59f0244 	ldr	r0, [pc, #580]	; c104068 <uart0_putIpHeader+0x4d4>
 c103e20:	eb001a42 	bl	c10a730 <uart0_puts>
 c103e24:	e51b3010 	ldr	r3, [fp, #-16]
 c103e28:	e5d32002 	ldrb	r2, [r3, #2]
 c103e2c:	e5d33003 	ldrb	r3, [r3, #3]
 c103e30:	e1a03403 	lsl	r3, r3, #8
 c103e34:	e1833002 	orr	r3, r3, r2
 c103e38:	e1a03803 	lsl	r3, r3, #16
 c103e3c:	e1a03823 	lsr	r3, r3, #16
 c103e40:	e1a03c03 	lsl	r3, r3, #24
 c103e44:	e1a02003 	mov	r2, r3
 c103e48:	e51b3010 	ldr	r3, [fp, #-16]
 c103e4c:	e5d31002 	ldrb	r1, [r3, #2]
 c103e50:	e5d33003 	ldrb	r3, [r3, #3]
 c103e54:	e1a03403 	lsl	r3, r3, #8
 c103e58:	e1833001 	orr	r3, r3, r1
 c103e5c:	e1a03803 	lsl	r3, r3, #16
 c103e60:	e1a03823 	lsr	r3, r3, #16
 c103e64:	e1a03403 	lsl	r3, r3, #8
 c103e68:	e20338ff 	and	r3, r3, #16711680	; 0xff0000
 c103e6c:	e1822003 	orr	r2, r2, r3
 c103e70:	e51b3010 	ldr	r3, [fp, #-16]
 c103e74:	e5d31002 	ldrb	r1, [r3, #2]
 c103e78:	e5d33003 	ldrb	r3, [r3, #3]
 c103e7c:	e1a03403 	lsl	r3, r3, #8
 c103e80:	e1833001 	orr	r3, r3, r1
 c103e84:	e1a03803 	lsl	r3, r3, #16
 c103e88:	e1a03823 	lsr	r3, r3, #16
 c103e8c:	e1a03423 	lsr	r3, r3, #8
 c103e90:	e1a03803 	lsl	r3, r3, #16
 c103e94:	e1a03823 	lsr	r3, r3, #16
 c103e98:	e2033cff 	and	r3, r3, #65280	; 0xff00
 c103e9c:	e1822003 	orr	r2, r2, r3
 c103ea0:	e51b3010 	ldr	r3, [fp, #-16]
 c103ea4:	e5d31002 	ldrb	r1, [r3, #2]
 c103ea8:	e5d33003 	ldrb	r3, [r3, #3]
 c103eac:	e1a03403 	lsl	r3, r3, #8
 c103eb0:	e1833001 	orr	r3, r3, r1
 c103eb4:	e1a03803 	lsl	r3, r3, #16
 c103eb8:	e1a03823 	lsr	r3, r3, #16
 c103ebc:	e1a03c43 	asr	r3, r3, #24
 c103ec0:	e20330ff 	and	r3, r3, #255	; 0xff
 c103ec4:	e1823003 	orr	r3, r2, r3
 c103ec8:	e1a00003 	mov	r0, r3
 c103ecc:	ebfffe2f 	bl	c103790 <uart0_putIp>
 c103ed0:	e3a0000a 	mov	r0, #10
 c103ed4:	eb0019ed 	bl	c10a690 <uart0_putchar>
 c103ed8:	e59f018c 	ldr	r0, [pc, #396]	; c10406c <uart0_putIpHeader+0x4d8>
 c103edc:	eb001a13 	bl	c10a730 <uart0_puts>
 c103ee0:	e51b3010 	ldr	r3, [fp, #-16]
 c103ee4:	e5d32006 	ldrb	r2, [r3, #6]
 c103ee8:	e5d33007 	ldrb	r3, [r3, #7]
 c103eec:	e1a03403 	lsl	r3, r3, #8
 c103ef0:	e1833002 	orr	r3, r3, r2
 c103ef4:	e1a03803 	lsl	r3, r3, #16
 c103ef8:	e1a03823 	lsr	r3, r3, #16
 c103efc:	e1a03403 	lsl	r3, r3, #8
 c103f00:	e1a03803 	lsl	r3, r3, #16
 c103f04:	e1a03823 	lsr	r3, r3, #16
 c103f08:	e51b2010 	ldr	r2, [fp, #-16]
 c103f0c:	e5d21006 	ldrb	r1, [r2, #6]
 c103f10:	e5d22007 	ldrb	r2, [r2, #7]
 c103f14:	e1a02402 	lsl	r2, r2, #8
 c103f18:	e1822001 	orr	r2, r2, r1
 c103f1c:	e1a02802 	lsl	r2, r2, #16
 c103f20:	e1a02822 	lsr	r2, r2, #16
 c103f24:	e1a02422 	lsr	r2, r2, #8
 c103f28:	e1a02802 	lsl	r2, r2, #16
 c103f2c:	e1a02822 	lsr	r2, r2, #16
 c103f30:	e20220ff 	and	r2, r2, #255	; 0xff
 c103f34:	e1833002 	orr	r3, r3, r2
 c103f38:	e1a03983 	lsl	r3, r3, #19
 c103f3c:	e1a039a3 	lsr	r3, r3, #19
 c103f40:	e1a00003 	mov	r0, r3
 c103f44:	ebfffe11 	bl	c103790 <uart0_putIp>
 c103f48:	e3a0000a 	mov	r0, #10
 c103f4c:	eb0019cf 	bl	c10a690 <uart0_putchar>
 c103f50:	e59f0118 	ldr	r0, [pc, #280]	; c104070 <uart0_putIpHeader+0x4dc>
 c103f54:	eb0019f5 	bl	c10a730 <uart0_puts>
 c103f58:	e51b3010 	ldr	r3, [fp, #-16]
 c103f5c:	e5d32006 	ldrb	r2, [r3, #6]
 c103f60:	e5d33007 	ldrb	r3, [r3, #7]
 c103f64:	e1a03403 	lsl	r3, r3, #8
 c103f68:	e1833002 	orr	r3, r3, r2
 c103f6c:	e1a03803 	lsl	r3, r3, #16
 c103f70:	e1a03823 	lsr	r3, r3, #16
 c103f74:	e1a03403 	lsl	r3, r3, #8
 c103f78:	e1a03803 	lsl	r3, r3, #16
 c103f7c:	e1a03823 	lsr	r3, r3, #16
 c103f80:	e51b2010 	ldr	r2, [fp, #-16]
 c103f84:	e5d21006 	ldrb	r1, [r2, #6]
 c103f88:	e5d22007 	ldrb	r2, [r2, #7]
 c103f8c:	e1a02402 	lsl	r2, r2, #8
 c103f90:	e1822001 	orr	r2, r2, r1
 c103f94:	e1a02802 	lsl	r2, r2, #16
 c103f98:	e1a02822 	lsr	r2, r2, #16
 c103f9c:	e1a02422 	lsr	r2, r2, #8
 c103fa0:	e1a02802 	lsl	r2, r2, #16
 c103fa4:	e1a02822 	lsr	r2, r2, #16
 c103fa8:	e20220ff 	and	r2, r2, #255	; 0xff
 c103fac:	e1833002 	orr	r3, r3, r2
 c103fb0:	e2033901 	and	r3, r3, #16384	; 0x4000
 c103fb4:	e3530000 	cmp	r3, #0
 c103fb8:	0a000001 	beq	c103fc4 <uart0_putIpHeader+0x430>
 c103fbc:	e59f00b0 	ldr	r0, [pc, #176]	; c104074 <uart0_putIpHeader+0x4e0>
 c103fc0:	eb0019da 	bl	c10a730 <uart0_puts>
 c103fc4:	e51b3010 	ldr	r3, [fp, #-16]
 c103fc8:	e5d32006 	ldrb	r2, [r3, #6]
 c103fcc:	e5d33007 	ldrb	r3, [r3, #7]
 c103fd0:	e1a03403 	lsl	r3, r3, #8
 c103fd4:	e1833002 	orr	r3, r3, r2
 c103fd8:	e1a03803 	lsl	r3, r3, #16
 c103fdc:	e1a03823 	lsr	r3, r3, #16
 c103fe0:	e1a03403 	lsl	r3, r3, #8
 c103fe4:	e1a03803 	lsl	r3, r3, #16
 c103fe8:	e1a03823 	lsr	r3, r3, #16
 c103fec:	e51b2010 	ldr	r2, [fp, #-16]
 c103ff0:	e5d21006 	ldrb	r1, [r2, #6]
 c103ff4:	e5d22007 	ldrb	r2, [r2, #7]
 c103ff8:	e1a02402 	lsl	r2, r2, #8
 c103ffc:	e1822001 	orr	r2, r2, r1
 c104000:	e1a02802 	lsl	r2, r2, #16
 c104004:	e1a02822 	lsr	r2, r2, #16
 c104008:	e1a02422 	lsr	r2, r2, #8
 c10400c:	e1a02802 	lsl	r2, r2, #16
 c104010:	e1a02822 	lsr	r2, r2, #16
 c104014:	e20220ff 	and	r2, r2, #255	; 0xff
 c104018:	e1833002 	orr	r3, r3, r2
 c10401c:	e2033a02 	and	r3, r3, #8192	; 0x2000
 c104020:	e3530000 	cmp	r3, #0
 c104024:	0a000001 	beq	c104030 <uart0_putIpHeader+0x49c>
 c104028:	e59f0048 	ldr	r0, [pc, #72]	; c104078 <uart0_putIpHeader+0x4e4>
 c10402c:	eb0019bf 	bl	c10a730 <uart0_puts>
 c104030:	e3a0000a 	mov	r0, #10
 c104034:	eb001995 	bl	c10a690 <uart0_putchar>
 c104038:	e24bd00c 	sub	sp, fp, #12
 c10403c:	e89d6800 	ldm	sp, {fp, sp, lr}
 c104040:	e12fff1e 	bx	lr
 c104044:	0c10c728 	.word	0x0c10c728
 c104048:	0c10c738 	.word	0x0c10c738
 c10404c:	0c10c748 	.word	0x0c10c748
 c104050:	0c10c758 	.word	0x0c10c758
 c104054:	0c10c760 	.word	0x0c10c760
 c104058:	0c10c764 	.word	0x0c10c764
 c10405c:	0c10c6e0 	.word	0x0c10c6e0
 c104060:	0c10c768 	.word	0x0c10c768
 c104064:	0c10c778 	.word	0x0c10c778
 c104068:	0c10c788 	.word	0x0c10c788
 c10406c:	0c10c798 	.word	0x0c10c798
 c104070:	0c10c7a8 	.word	0x0c10c7a8
 c104074:	0c10c7b8 	.word	0x0c10c7b8
 c104078:	0c10c7bc 	.word	0x0c10c7bc

0c10407c <uart0_putIcmpHeader>:
 c10407c:	e1a0c00d 	mov	ip, sp
 c104080:	e92dd800 	push	{fp, ip, lr, pc}
 c104084:	e24cb004 	sub	fp, ip, #4
 c104088:	e24dd010 	sub	sp, sp, #16
 c10408c:	e50b0018 	str	r0, [fp, #-24]	; 0xffffffe8
 c104090:	e51b3018 	ldr	r3, [fp, #-24]	; 0xffffffe8
 c104094:	e50b3010 	str	r3, [fp, #-16]
 c104098:	e59f0078 	ldr	r0, [pc, #120]	; c104118 <uart0_putIcmpHeader+0x9c>
 c10409c:	eb0019a3 	bl	c10a730 <uart0_puts>
 c1040a0:	e59f0074 	ldr	r0, [pc, #116]	; c10411c <uart0_putIcmpHeader+0xa0>
 c1040a4:	eb0019a1 	bl	c10a730 <uart0_puts>
 c1040a8:	e51b3010 	ldr	r3, [fp, #-16]
 c1040ac:	e5d33000 	ldrb	r3, [r3]
 c1040b0:	e3530000 	cmp	r3, #0
 c1040b4:	0a000004 	beq	c1040cc <uart0_putIcmpHeader+0x50>
 c1040b8:	e3530008 	cmp	r3, #8
 c1040bc:	1a000005 	bne	c1040d8 <uart0_putIcmpHeader+0x5c>
 c1040c0:	e59f0058 	ldr	r0, [pc, #88]	; c104120 <uart0_putIcmpHeader+0xa4>
 c1040c4:	eb001999 	bl	c10a730 <uart0_puts>
 c1040c8:	ea000005 	b	c1040e4 <uart0_putIcmpHeader+0x68>
 c1040cc:	e59f0050 	ldr	r0, [pc, #80]	; c104124 <uart0_putIcmpHeader+0xa8>
 c1040d0:	eb001996 	bl	c10a730 <uart0_puts>
 c1040d4:	ea000002 	b	c1040e4 <uart0_putIcmpHeader+0x68>
 c1040d8:	e59f0048 	ldr	r0, [pc, #72]	; c104128 <uart0_putIcmpHeader+0xac>
 c1040dc:	eb001993 	bl	c10a730 <uart0_puts>
 c1040e0:	e1a00000 	nop			; (mov r0, r0)
 c1040e4:	e3a0000a 	mov	r0, #10
 c1040e8:	eb001968 	bl	c10a690 <uart0_putchar>
 c1040ec:	e59f0038 	ldr	r0, [pc, #56]	; c10412c <uart0_putIcmpHeader+0xb0>
 c1040f0:	eb00198e 	bl	c10a730 <uart0_puts>
 c1040f4:	e51b3010 	ldr	r3, [fp, #-16]
 c1040f8:	e5d33001 	ldrb	r3, [r3, #1]
 c1040fc:	e1a00003 	mov	r0, r3
 c104100:	eb0019f3 	bl	c10a8d4 <uart0_puthex>
 c104104:	e3a0000a 	mov	r0, #10
 c104108:	eb001960 	bl	c10a690 <uart0_putchar>
 c10410c:	e24bd00c 	sub	sp, fp, #12
 c104110:	e89d6800 	ldm	sp, {fp, sp, lr}
 c104114:	e12fff1e 	bx	lr
 c104118:	0c10c7c0 	.word	0x0c10c7c0
 c10411c:	0c10c7d0 	.word	0x0c10c7d0
 c104120:	0c10c7dc 	.word	0x0c10c7dc
 c104124:	0c10c7ec 	.word	0x0c10c7ec
 c104128:	0c10c6e0 	.word	0x0c10c6e0
 c10412c:	0c10c7f8 	.word	0x0c10c7f8

0c104130 <uart0_putUdpHeader>:
 c104130:	e1a0c00d 	mov	ip, sp
 c104134:	e92dd800 	push	{fp, ip, lr, pc}
 c104138:	e24cb004 	sub	fp, ip, #4
 c10413c:	e24dd010 	sub	sp, sp, #16
 c104140:	e50b0018 	str	r0, [fp, #-24]	; 0xffffffe8
 c104144:	e51b3018 	ldr	r3, [fp, #-24]	; 0xffffffe8
 c104148:	e50b3010 	str	r3, [fp, #-16]
 c10414c:	e59f015c 	ldr	r0, [pc, #348]	; c1042b0 <uart0_putUdpHeader+0x180>
 c104150:	eb001976 	bl	c10a730 <uart0_puts>
 c104154:	e59f0158 	ldr	r0, [pc, #344]	; c1042b4 <uart0_putUdpHeader+0x184>
 c104158:	eb001974 	bl	c10a730 <uart0_puts>
 c10415c:	e51b3010 	ldr	r3, [fp, #-16]
 c104160:	e5d32000 	ldrb	r2, [r3]
 c104164:	e5d33001 	ldrb	r3, [r3, #1]
 c104168:	e1a03403 	lsl	r3, r3, #8
 c10416c:	e1833002 	orr	r3, r3, r2
 c104170:	e1a03803 	lsl	r3, r3, #16
 c104174:	e1a03823 	lsr	r3, r3, #16
 c104178:	e1a03403 	lsl	r3, r3, #8
 c10417c:	e1a03803 	lsl	r3, r3, #16
 c104180:	e1a03823 	lsr	r3, r3, #16
 c104184:	e51b2010 	ldr	r2, [fp, #-16]
 c104188:	e5d21000 	ldrb	r1, [r2]
 c10418c:	e5d22001 	ldrb	r2, [r2, #1]
 c104190:	e1a02402 	lsl	r2, r2, #8
 c104194:	e1822001 	orr	r2, r2, r1
 c104198:	e1a02802 	lsl	r2, r2, #16
 c10419c:	e1a02822 	lsr	r2, r2, #16
 c1041a0:	e1a02422 	lsr	r2, r2, #8
 c1041a4:	e1a02802 	lsl	r2, r2, #16
 c1041a8:	e1a02822 	lsr	r2, r2, #16
 c1041ac:	e20220ff 	and	r2, r2, #255	; 0xff
 c1041b0:	e1833002 	orr	r3, r3, r2
 c1041b4:	e1a00003 	mov	r0, r3
 c1041b8:	ebfffd74 	bl	c103790 <uart0_putIp>
 c1041bc:	e3a0000a 	mov	r0, #10
 c1041c0:	eb001932 	bl	c10a690 <uart0_putchar>
 c1041c4:	e59f00ec 	ldr	r0, [pc, #236]	; c1042b8 <uart0_putUdpHeader+0x188>
 c1041c8:	eb001958 	bl	c10a730 <uart0_puts>
 c1041cc:	e51b3010 	ldr	r3, [fp, #-16]
 c1041d0:	e5d32002 	ldrb	r2, [r3, #2]
 c1041d4:	e5d33003 	ldrb	r3, [r3, #3]
 c1041d8:	e1a03403 	lsl	r3, r3, #8
 c1041dc:	e1833002 	orr	r3, r3, r2
 c1041e0:	e1a03803 	lsl	r3, r3, #16
 c1041e4:	e1a03823 	lsr	r3, r3, #16
 c1041e8:	e1a03403 	lsl	r3, r3, #8
 c1041ec:	e1a03803 	lsl	r3, r3, #16
 c1041f0:	e1a03823 	lsr	r3, r3, #16
 c1041f4:	e51b2010 	ldr	r2, [fp, #-16]
 c1041f8:	e5d21002 	ldrb	r1, [r2, #2]
 c1041fc:	e5d22003 	ldrb	r2, [r2, #3]
 c104200:	e1a02402 	lsl	r2, r2, #8
 c104204:	e1822001 	orr	r2, r2, r1
 c104208:	e1a02802 	lsl	r2, r2, #16
 c10420c:	e1a02822 	lsr	r2, r2, #16
 c104210:	e1a02422 	lsr	r2, r2, #8
 c104214:	e1a02802 	lsl	r2, r2, #16
 c104218:	e1a02822 	lsr	r2, r2, #16
 c10421c:	e20220ff 	and	r2, r2, #255	; 0xff
 c104220:	e1833002 	orr	r3, r3, r2
 c104224:	e1a00003 	mov	r0, r3
 c104228:	ebfffd58 	bl	c103790 <uart0_putIp>
 c10422c:	e3a0000a 	mov	r0, #10
 c104230:	eb001916 	bl	c10a690 <uart0_putchar>
 c104234:	e59f0080 	ldr	r0, [pc, #128]	; c1042bc <uart0_putUdpHeader+0x18c>
 c104238:	eb00193c 	bl	c10a730 <uart0_puts>
 c10423c:	e51b3010 	ldr	r3, [fp, #-16]
 c104240:	e5d32004 	ldrb	r2, [r3, #4]
 c104244:	e5d33005 	ldrb	r3, [r3, #5]
 c104248:	e1a03403 	lsl	r3, r3, #8
 c10424c:	e1833002 	orr	r3, r3, r2
 c104250:	e1a03803 	lsl	r3, r3, #16
 c104254:	e1a03823 	lsr	r3, r3, #16
 c104258:	e1a03403 	lsl	r3, r3, #8
 c10425c:	e1a03803 	lsl	r3, r3, #16
 c104260:	e1a03823 	lsr	r3, r3, #16
 c104264:	e51b2010 	ldr	r2, [fp, #-16]
 c104268:	e5d21004 	ldrb	r1, [r2, #4]
 c10426c:	e5d22005 	ldrb	r2, [r2, #5]
 c104270:	e1a02402 	lsl	r2, r2, #8
 c104274:	e1822001 	orr	r2, r2, r1
 c104278:	e1a02802 	lsl	r2, r2, #16
 c10427c:	e1a02822 	lsr	r2, r2, #16
 c104280:	e1a02422 	lsr	r2, r2, #8
 c104284:	e1a02802 	lsl	r2, r2, #16
 c104288:	e1a02822 	lsr	r2, r2, #16
 c10428c:	e20220ff 	and	r2, r2, #255	; 0xff
 c104290:	e1833002 	orr	r3, r3, r2
 c104294:	e1a00003 	mov	r0, r3
 c104298:	ebfffd3c 	bl	c103790 <uart0_putIp>
 c10429c:	e3a0000a 	mov	r0, #10
 c1042a0:	eb0018fa 	bl	c10a690 <uart0_putchar>
 c1042a4:	e24bd00c 	sub	sp, fp, #12
 c1042a8:	e89d6800 	ldm	sp, {fp, sp, lr}
 c1042ac:	e12fff1e 	bx	lr
 c1042b0:	0c10c804 	.word	0x0c10c804
 c1042b4:	0c10c814 	.word	0x0c10c814
 c1042b8:	0c10c828 	.word	0x0c10c828
 c1042bc:	0c10c83c 	.word	0x0c10c83c

0c1042c0 <uart0_putFrame>:
 c1042c0:	e1a0c00d 	mov	ip, sp
 c1042c4:	e92dd800 	push	{fp, ip, lr, pc}
 c1042c8:	e24cb004 	sub	fp, ip, #4
 c1042cc:	e24dd010 	sub	sp, sp, #16
 c1042d0:	e50b0018 	str	r0, [fp, #-24]	; 0xffffffe8
 c1042d4:	e1a03001 	mov	r3, r1
 c1042d8:	e14b31ba 	strh	r3, [fp, #-26]	; 0xffffffe6
 c1042dc:	e3a03000 	mov	r3, #0
 c1042e0:	e14b31b0 	strh	r3, [fp, #-16]
 c1042e4:	e3a03000 	mov	r3, #0
 c1042e8:	e14b31b2 	strh	r3, [fp, #-18]	; 0xffffffee
 c1042ec:	ea000054 	b	c104444 <uart0_putFrame+0x184>
 c1042f0:	e59f0324 	ldr	r0, [pc, #804]	; c10461c <uart0_putFrame+0x35c>
 c1042f4:	eb00190d 	bl	c10a730 <uart0_puts>
 c1042f8:	e15b21b0 	ldrh	r2, [fp, #-16]
 c1042fc:	e1a03002 	mov	r3, r2
 c104300:	e1a03103 	lsl	r3, r3, #2
 c104304:	e0833002 	add	r3, r3, r2
 c104308:	e1a03083 	lsl	r3, r3, #1
 c10430c:	e1a02003 	mov	r2, r3
 c104310:	e59f3308 	ldr	r3, [pc, #776]	; c104620 <uart0_putFrame+0x360>
 c104314:	e1520003 	cmp	r2, r3
 c104318:	ca000001 	bgt	c104324 <uart0_putFrame+0x64>
 c10431c:	e3a00030 	mov	r0, #48	; 0x30
 c104320:	eb0018da 	bl	c10a690 <uart0_putchar>
 c104324:	e15b21b0 	ldrh	r2, [fp, #-16]
 c104328:	e1a03002 	mov	r3, r2
 c10432c:	e1a03103 	lsl	r3, r3, #2
 c104330:	e0833002 	add	r3, r3, r2
 c104334:	e1a03083 	lsl	r3, r3, #1
 c104338:	e1a02003 	mov	r2, r3
 c10433c:	e59f32e0 	ldr	r3, [pc, #736]	; c104624 <uart0_putFrame+0x364>
 c104340:	e1520003 	cmp	r2, r3
 c104344:	ca000001 	bgt	c104350 <uart0_putFrame+0x90>
 c104348:	e3a00030 	mov	r0, #48	; 0x30
 c10434c:	eb0018cf 	bl	c10a690 <uart0_putchar>
 c104350:	e15b21b0 	ldrh	r2, [fp, #-16]
 c104354:	e1a03002 	mov	r3, r2
 c104358:	e1a03103 	lsl	r3, r3, #2
 c10435c:	e0833002 	add	r3, r3, r2
 c104360:	e1a03083 	lsl	r3, r3, #1
 c104364:	e3530063 	cmp	r3, #99	; 0x63
 c104368:	ca000001 	bgt	c104374 <uart0_putFrame+0xb4>
 c10436c:	e3a00030 	mov	r0, #48	; 0x30
 c104370:	eb0018c6 	bl	c10a690 <uart0_putchar>
 c104374:	e15b21b0 	ldrh	r2, [fp, #-16]
 c104378:	e1a03002 	mov	r3, r2
 c10437c:	e1a03103 	lsl	r3, r3, #2
 c104380:	e0833002 	add	r3, r3, r2
 c104384:	e1a03083 	lsl	r3, r3, #1
 c104388:	e3530009 	cmp	r3, #9
 c10438c:	ca000001 	bgt	c104398 <uart0_putFrame+0xd8>
 c104390:	e3a00030 	mov	r0, #48	; 0x30
 c104394:	eb0018bd 	bl	c10a690 <uart0_putchar>
 c104398:	e15b21b0 	ldrh	r2, [fp, #-16]
 c10439c:	e1a03002 	mov	r3, r2
 c1043a0:	e1a03103 	lsl	r3, r3, #2
 c1043a4:	e0833002 	add	r3, r3, r2
 c1043a8:	e1a03083 	lsl	r3, r3, #1
 c1043ac:	e1a00003 	mov	r0, r3
 c1043b0:	eb0018f2 	bl	c10a780 <uart0_putint>
 c1043b4:	e59f026c 	ldr	r0, [pc, #620]	; c104628 <uart0_putFrame+0x368>
 c1043b8:	eb0018dc 	bl	c10a730 <uart0_puts>
 c1043bc:	e3a03000 	mov	r3, #0
 c1043c0:	e14b30be 	strh	r3, [fp, #-14]
 c1043c4:	ea000016 	b	c104424 <uart0_putFrame+0x164>
 c1043c8:	e15b31b2 	ldrh	r3, [fp, #-18]	; 0xffffffee
 c1043cc:	e51b2018 	ldr	r2, [fp, #-24]	; 0xffffffe8
 c1043d0:	e0823003 	add	r3, r2, r3
 c1043d4:	e5d33000 	ldrb	r3, [r3]
 c1043d8:	e1a03223 	lsr	r3, r3, #4
 c1043dc:	e20330ff 	and	r3, r3, #255	; 0xff
 c1043e0:	e1a00003 	mov	r0, r3
 c1043e4:	eb00193a 	bl	c10a8d4 <uart0_puthex>
 c1043e8:	e15b31b2 	ldrh	r3, [fp, #-18]	; 0xffffffee
 c1043ec:	e51b2018 	ldr	r2, [fp, #-24]	; 0xffffffe8
 c1043f0:	e0823003 	add	r3, r2, r3
 c1043f4:	e5d33000 	ldrb	r3, [r3]
 c1043f8:	e203300f 	and	r3, r3, #15
 c1043fc:	e15b21b2 	ldrh	r2, [fp, #-18]	; 0xffffffee
 c104400:	e2822001 	add	r2, r2, #1
 c104404:	e14b21b2 	strh	r2, [fp, #-18]	; 0xffffffee
 c104408:	e1a00003 	mov	r0, r3
 c10440c:	eb001930 	bl	c10a8d4 <uart0_puthex>
 c104410:	e3a0003a 	mov	r0, #58	; 0x3a
 c104414:	eb00189d 	bl	c10a690 <uart0_putchar>
 c104418:	e15b30be 	ldrh	r3, [fp, #-14]
 c10441c:	e2833001 	add	r3, r3, #1
 c104420:	e14b30be 	strh	r3, [fp, #-14]
 c104424:	e15b30be 	ldrh	r3, [fp, #-14]
 c104428:	e3530009 	cmp	r3, #9
 c10442c:	9affffe5 	bls	c1043c8 <uart0_putFrame+0x108>
 c104430:	e3a0000a 	mov	r0, #10
 c104434:	eb001895 	bl	c10a690 <uart0_putchar>
 c104438:	e15b31b0 	ldrh	r3, [fp, #-16]
 c10443c:	e2833001 	add	r3, r3, #1
 c104440:	e14b31b0 	strh	r3, [fp, #-16]
 c104444:	e15b21ba 	ldrh	r2, [fp, #-26]	; 0xffffffe6
 c104448:	e59f31dc 	ldr	r3, [pc, #476]	; c10462c <uart0_putFrame+0x36c>
 c10444c:	e0831392 	umull	r1, r3, r2, r3
 c104450:	e1a031a3 	lsr	r3, r3, #3
 c104454:	e1a03803 	lsl	r3, r3, #16
 c104458:	e1a03823 	lsr	r3, r3, #16
 c10445c:	e15b21b0 	ldrh	r2, [fp, #-16]
 c104460:	e1520003 	cmp	r2, r3
 c104464:	3affffa1 	bcc	c1042f0 <uart0_putFrame+0x30>
 c104468:	e15b21ba 	ldrh	r2, [fp, #-26]	; 0xffffffe6
 c10446c:	e59f31b8 	ldr	r3, [pc, #440]	; c10462c <uart0_putFrame+0x36c>
 c104470:	e0831392 	umull	r1, r3, r2, r3
 c104474:	e1a011a3 	lsr	r1, r3, #3
 c104478:	e1a03001 	mov	r3, r1
 c10447c:	e1a03103 	lsl	r3, r3, #2
 c104480:	e0833001 	add	r3, r3, r1
 c104484:	e1a03083 	lsl	r3, r3, #1
 c104488:	e0633002 	rsb	r3, r3, r2
 c10448c:	e1a03803 	lsl	r3, r3, #16
 c104490:	e1a03823 	lsr	r3, r3, #16
 c104494:	e3530000 	cmp	r3, #0
 c104498:	0a00005c 	beq	c104610 <uart0_putFrame+0x350>
 c10449c:	e59f0178 	ldr	r0, [pc, #376]	; c10461c <uart0_putFrame+0x35c>
 c1044a0:	eb0018a2 	bl	c10a730 <uart0_puts>
 c1044a4:	e15b21b0 	ldrh	r2, [fp, #-16]
 c1044a8:	e1a03002 	mov	r3, r2
 c1044ac:	e1a03103 	lsl	r3, r3, #2
 c1044b0:	e0833002 	add	r3, r3, r2
 c1044b4:	e1a03083 	lsl	r3, r3, #1
 c1044b8:	e1a02003 	mov	r2, r3
 c1044bc:	e59f315c 	ldr	r3, [pc, #348]	; c104620 <uart0_putFrame+0x360>
 c1044c0:	e1520003 	cmp	r2, r3
 c1044c4:	ca000001 	bgt	c1044d0 <uart0_putFrame+0x210>
 c1044c8:	e3a00030 	mov	r0, #48	; 0x30
 c1044cc:	eb00186f 	bl	c10a690 <uart0_putchar>
 c1044d0:	e15b21b0 	ldrh	r2, [fp, #-16]
 c1044d4:	e1a03002 	mov	r3, r2
 c1044d8:	e1a03103 	lsl	r3, r3, #2
 c1044dc:	e0833002 	add	r3, r3, r2
 c1044e0:	e1a03083 	lsl	r3, r3, #1
 c1044e4:	e1a02003 	mov	r2, r3
 c1044e8:	e59f3134 	ldr	r3, [pc, #308]	; c104624 <uart0_putFrame+0x364>
 c1044ec:	e1520003 	cmp	r2, r3
 c1044f0:	ca000001 	bgt	c1044fc <uart0_putFrame+0x23c>
 c1044f4:	e3a00030 	mov	r0, #48	; 0x30
 c1044f8:	eb001864 	bl	c10a690 <uart0_putchar>
 c1044fc:	e15b21b0 	ldrh	r2, [fp, #-16]
 c104500:	e1a03002 	mov	r3, r2
 c104504:	e1a03103 	lsl	r3, r3, #2
 c104508:	e0833002 	add	r3, r3, r2
 c10450c:	e1a03083 	lsl	r3, r3, #1
 c104510:	e3530063 	cmp	r3, #99	; 0x63
 c104514:	ca000001 	bgt	c104520 <uart0_putFrame+0x260>
 c104518:	e3a00030 	mov	r0, #48	; 0x30
 c10451c:	eb00185b 	bl	c10a690 <uart0_putchar>
 c104520:	e15b21b0 	ldrh	r2, [fp, #-16]
 c104524:	e1a03002 	mov	r3, r2
 c104528:	e1a03103 	lsl	r3, r3, #2
 c10452c:	e0833002 	add	r3, r3, r2
 c104530:	e1a03083 	lsl	r3, r3, #1
 c104534:	e3530009 	cmp	r3, #9
 c104538:	ca000001 	bgt	c104544 <uart0_putFrame+0x284>
 c10453c:	e3a00030 	mov	r0, #48	; 0x30
 c104540:	eb001852 	bl	c10a690 <uart0_putchar>
 c104544:	e15b21b0 	ldrh	r2, [fp, #-16]
 c104548:	e1a03002 	mov	r3, r2
 c10454c:	e1a03103 	lsl	r3, r3, #2
 c104550:	e0833002 	add	r3, r3, r2
 c104554:	e1a03083 	lsl	r3, r3, #1
 c104558:	e1a00003 	mov	r0, r3
 c10455c:	eb001887 	bl	c10a780 <uart0_putint>
 c104560:	e59f00c0 	ldr	r0, [pc, #192]	; c104628 <uart0_putFrame+0x368>
 c104564:	eb001871 	bl	c10a730 <uart0_puts>
 c104568:	e3a03000 	mov	r3, #0
 c10456c:	e14b30be 	strh	r3, [fp, #-14]
 c104570:	ea000016 	b	c1045d0 <uart0_putFrame+0x310>
 c104574:	e15b31b2 	ldrh	r3, [fp, #-18]	; 0xffffffee
 c104578:	e51b2018 	ldr	r2, [fp, #-24]	; 0xffffffe8
 c10457c:	e0823003 	add	r3, r2, r3
 c104580:	e5d33000 	ldrb	r3, [r3]
 c104584:	e1a03223 	lsr	r3, r3, #4
 c104588:	e20330ff 	and	r3, r3, #255	; 0xff
 c10458c:	e1a00003 	mov	r0, r3
 c104590:	eb0018cf 	bl	c10a8d4 <uart0_puthex>
 c104594:	e15b31b2 	ldrh	r3, [fp, #-18]	; 0xffffffee
 c104598:	e51b2018 	ldr	r2, [fp, #-24]	; 0xffffffe8
 c10459c:	e0823003 	add	r3, r2, r3
 c1045a0:	e5d33000 	ldrb	r3, [r3]
 c1045a4:	e203300f 	and	r3, r3, #15
 c1045a8:	e15b21b2 	ldrh	r2, [fp, #-18]	; 0xffffffee
 c1045ac:	e2822001 	add	r2, r2, #1
 c1045b0:	e14b21b2 	strh	r2, [fp, #-18]	; 0xffffffee
 c1045b4:	e1a00003 	mov	r0, r3
 c1045b8:	eb0018c5 	bl	c10a8d4 <uart0_puthex>
 c1045bc:	e3a0003a 	mov	r0, #58	; 0x3a
 c1045c0:	eb001832 	bl	c10a690 <uart0_putchar>
 c1045c4:	e15b30be 	ldrh	r3, [fp, #-14]
 c1045c8:	e2833001 	add	r3, r3, #1
 c1045cc:	e14b30be 	strh	r3, [fp, #-14]
 c1045d0:	e15b21ba 	ldrh	r2, [fp, #-26]	; 0xffffffe6
 c1045d4:	e59f3050 	ldr	r3, [pc, #80]	; c10462c <uart0_putFrame+0x36c>
 c1045d8:	e0831392 	umull	r1, r3, r2, r3
 c1045dc:	e1a011a3 	lsr	r1, r3, #3
 c1045e0:	e1a03001 	mov	r3, r1
 c1045e4:	e1a03103 	lsl	r3, r3, #2
 c1045e8:	e0833001 	add	r3, r3, r1
 c1045ec:	e1a03083 	lsl	r3, r3, #1
 c1045f0:	e0633002 	rsb	r3, r3, r2
 c1045f4:	e1a03803 	lsl	r3, r3, #16
 c1045f8:	e1a03823 	lsr	r3, r3, #16
 c1045fc:	e15b20be 	ldrh	r2, [fp, #-14]
 c104600:	e1520003 	cmp	r2, r3
 c104604:	3affffda 	bcc	c104574 <uart0_putFrame+0x2b4>
 c104608:	e3a0000a 	mov	r0, #10
 c10460c:	eb00181f 	bl	c10a690 <uart0_putchar>
 c104610:	e24bd00c 	sub	sp, fp, #12
 c104614:	e89d6800 	ldm	sp, {fp, sp, lr}
 c104618:	e12fff1e 	bx	lr
 c10461c:	0c10c850 	.word	0x0c10c850
 c104620:	0000270f 	.word	0x0000270f
 c104624:	000003e7 	.word	0x000003e7
 c104628:	0c10c858 	.word	0x0c10c858
 c10462c:	cccccccd 	.word	0xcccccccd

0c104630 <iis_init>:
 c104630:	e1a0c00d 	mov	ip, sp
 c104634:	e92dd800 	push	{fp, ip, lr, pc}
 c104638:	e24cb004 	sub	fp, ip, #4
 c10463c:	e24dd008 	sub	sp, sp, #8
 c104640:	e1a03000 	mov	r3, r0
 c104644:	e54b300d 	strb	r3, [fp, #-13]
 c104648:	e3a0000e 	mov	r0, #14
 c10464c:	eb000971 	bl	c106c18 <power_on>
 c104650:	e59f30f4 	ldr	r3, [pc, #244]	; c10474c <iis_init+0x11c>
 c104654:	e59f20f0 	ldr	r2, [pc, #240]	; c10474c <iis_init+0x11c>
 c104658:	e5922000 	ldr	r2, [r2]
 c10465c:	e38220ff 	orr	r2, r2, #255	; 0xff
 c104660:	e5832000 	str	r2, [r3]
 c104664:	e59f30e4 	ldr	r3, [pc, #228]	; c104750 <iis_init+0x120>
 c104668:	e59f20e0 	ldr	r2, [pc, #224]	; c104750 <iis_init+0x120>
 c10466c:	e5922000 	ldr	r2, [r2]
 c104670:	e3c2200f 	bic	r2, r2, #15
 c104674:	e382200b 	orr	r2, r2, #11
 c104678:	e5832000 	str	r2, [r3]
 c10467c:	e59f30d0 	ldr	r3, [pc, #208]	; c104754 <iis_init+0x124>
 c104680:	e59f20cc 	ldr	r2, [pc, #204]	; c104754 <iis_init+0x124>
 c104684:	e5922000 	ldr	r2, [r2]
 c104688:	e3c22803 	bic	r2, r2, #196608	; 0x30000
 c10468c:	e3822802 	orr	r2, r2, #131072	; 0x20000
 c104690:	e5832000 	str	r2, [r3]
 c104694:	e59f30bc 	ldr	r3, [pc, #188]	; c104758 <iis_init+0x128>
 c104698:	e59f20b8 	ldr	r2, [pc, #184]	; c104758 <iis_init+0x128>
 c10469c:	e5922000 	ldr	r2, [r2]
 c1046a0:	e3822c01 	orr	r2, r2, #256	; 0x100
 c1046a4:	e5832000 	str	r2, [r3]
 c1046a8:	e55b300d 	ldrb	r3, [fp, #-13]
 c1046ac:	e3530001 	cmp	r3, #1
 c1046b0:	0a000002 	beq	c1046c0 <iis_init+0x90>
 c1046b4:	e3530002 	cmp	r3, #2
 c1046b8:	0a000010 	beq	c104700 <iis_init+0xd0>
 c1046bc:	ea00001c 	b	c104734 <iis_init+0x104>
 c1046c0:	e59f3094 	ldr	r3, [pc, #148]	; c10475c <iis_init+0x12c>
 c1046c4:	e3a02077 	mov	r2, #119	; 0x77
 c1046c8:	e5832000 	str	r2, [r3]
 c1046cc:	e59f308c 	ldr	r3, [pc, #140]	; c104760 <iis_init+0x130>
 c1046d0:	e3a02009 	mov	r2, #9
 c1046d4:	e5832000 	str	r2, [r3]
 c1046d8:	e59f3084 	ldr	r3, [pc, #132]	; c104764 <iis_init+0x134>
 c1046dc:	e3a02c0f 	mov	r2, #3840	; 0xf00
 c1046e0:	e5832000 	str	r2, [r3]
 c1046e4:	e59f307c 	ldr	r3, [pc, #124]	; c104768 <iis_init+0x138>
 c1046e8:	e3a02032 	mov	r2, #50	; 0x32
 c1046ec:	e5832000 	str	r2, [r3]
 c1046f0:	eb001a86 	bl	c10b110 <bdma0_init>
 c1046f4:	e59f0070 	ldr	r0, [pc, #112]	; c10476c <iis_init+0x13c>
 c1046f8:	eb001a9b 	bl	c10b16c <bdma0_open>
 c1046fc:	ea00000c 	b	c104734 <iis_init+0x104>
 c104700:	e59f3054 	ldr	r3, [pc, #84]	; c10475c <iis_init+0x12c>
 c104704:	e3a02077 	mov	r2, #119	; 0x77
 c104708:	e5832000 	str	r2, [r3]
 c10470c:	e59f304c 	ldr	r3, [pc, #76]	; c104760 <iis_init+0x130>
 c104710:	e3a020c9 	mov	r2, #201	; 0xc9
 c104714:	e5832000 	str	r2, [r3]
 c104718:	e59f3044 	ldr	r3, [pc, #68]	; c104764 <iis_init+0x134>
 c10471c:	e3a02c03 	mov	r2, #768	; 0x300
 c104720:	e5832000 	str	r2, [r3]
 c104724:	e59f303c 	ldr	r3, [pc, #60]	; c104768 <iis_init+0x138>
 c104728:	e3a02003 	mov	r2, #3
 c10472c:	e5832000 	str	r2, [r3]
 c104730:	e1a00000 	nop			; (mov r0, r0)
 c104734:	e59f3034 	ldr	r3, [pc, #52]	; c104770 <iis_init+0x140>
 c104738:	e55b200d 	ldrb	r2, [fp, #-13]
 c10473c:	e5c32000 	strb	r2, [r3]
 c104740:	e24bd00c 	sub	sp, fp, #12
 c104744:	e89d6800 	ldm	sp, {fp, sp, lr}
 c104748:	e12fff1e 	bx	lr
 c10474c:	01d20010 	.word	0x01d20010
 c104750:	01d20018 	.word	0x01d20018
 c104754:	01d20028 	.word	0x01d20028
 c104758:	01d20030 	.word	0x01d20030
 c10475c:	01d18008 	.word	0x01d18008
 c104760:	01d18004 	.word	0x01d18004
 c104764:	01d1800c 	.word	0x01d1800c
 c104768:	01d18000 	.word	0x01d18000
 c10476c:	0c104774 	.word	0x0c104774
 c104770:	0c117a24 	.word	0x0c117a24

0c104774 <isr_bdma0>:
 c104774:	e52dc004 	push	{ip}		; (str ip, [sp, #-4]!)
 c104778:	e1a0c00d 	mov	ip, sp
 c10477c:	e92dd80c 	push	{r2, r3, fp, ip, lr, pc}
 c104780:	e24cb004 	sub	fp, ip, #4
 c104784:	e59f3028 	ldr	r3, [pc, #40]	; c1047b4 <isr_bdma0+0x40>
 c104788:	e59f2024 	ldr	r2, [pc, #36]	; c1047b4 <isr_bdma0+0x40>
 c10478c:	e5922000 	ldr	r2, [r2]
 c104790:	e3c22001 	bic	r2, r2, #1
 c104794:	e5832000 	str	r2, [r3]
 c104798:	e59f3018 	ldr	r3, [pc, #24]	; c1047b8 <isr_bdma0+0x44>
 c10479c:	e3a02802 	mov	r2, #131072	; 0x20000
 c1047a0:	e5832000 	str	r2, [r3]
 c1047a4:	e24bd014 	sub	sp, fp, #20
 c1047a8:	e89d680c 	ldm	sp, {r2, r3, fp, sp, lr}
 c1047ac:	e49dc004 	pop	{ip}		; (ldr ip, [sp], #4)
 c1047b0:	e25ef004 	subs	pc, lr, #4
 c1047b4:	01d18000 	.word	0x01d18000
 c1047b8:	01e00024 	.word	0x01e00024

0c1047bc <iis_putSample>:
 c1047bc:	e1a0c00d 	mov	ip, sp
 c1047c0:	e92dd800 	push	{fp, ip, lr, pc}
 c1047c4:	e24cb004 	sub	fp, ip, #4
 c1047c8:	e24dd008 	sub	sp, sp, #8
 c1047cc:	e1a02000 	mov	r2, r0
 c1047d0:	e1a03001 	mov	r3, r1
 c1047d4:	e14b20be 	strh	r2, [fp, #-14]
 c1047d8:	e14b31b0 	strh	r3, [fp, #-16]
 c1047dc:	e1a00000 	nop			; (mov r0, r0)
 c1047e0:	e59f3034 	ldr	r3, [pc, #52]	; c10481c <iis_putSample+0x60>
 c1047e4:	e5933000 	ldr	r3, [r3]
 c1047e8:	e20330f0 	and	r3, r3, #240	; 0xf0
 c1047ec:	e1a03223 	lsr	r3, r3, #4
 c1047f0:	e3530006 	cmp	r3, #6
 c1047f4:	8afffff9 	bhi	c1047e0 <iis_putSample+0x24>
 c1047f8:	e59f3020 	ldr	r3, [pc, #32]	; c104820 <iis_putSample+0x64>
 c1047fc:	e15b20fe 	ldrsh	r2, [fp, #-14]
 c104800:	e5832000 	str	r2, [r3]
 c104804:	e59f3014 	ldr	r3, [pc, #20]	; c104820 <iis_putSample+0x64>
 c104808:	e15b21f0 	ldrsh	r2, [fp, #-16]
 c10480c:	e5832000 	str	r2, [r3]
 c104810:	e24bd00c 	sub	sp, fp, #12
 c104814:	e89d6800 	ldm	sp, {fp, sp, lr}
 c104818:	e12fff1e 	bx	lr
 c10481c:	01d1800c 	.word	0x01d1800c
 c104820:	01d18010 	.word	0x01d18010

0c104824 <iis_getSample>:
 c104824:	e1a0c00d 	mov	ip, sp
 c104828:	e92dd800 	push	{fp, ip, lr, pc}
 c10482c:	e24cb004 	sub	fp, ip, #4
 c104830:	e24dd008 	sub	sp, sp, #8
 c104834:	e50b0010 	str	r0, [fp, #-16]
 c104838:	e50b1014 	str	r1, [fp, #-20]	; 0xffffffec
 c10483c:	e1a00000 	nop			; (mov r0, r0)
 c104840:	e59f3048 	ldr	r3, [pc, #72]	; c104890 <iis_getSample+0x6c>
 c104844:	e5933000 	ldr	r3, [r3]
 c104848:	e203300f 	and	r3, r3, #15
 c10484c:	e3530001 	cmp	r3, #1
 c104850:	9afffffa 	bls	c104840 <iis_getSample+0x1c>
 c104854:	e59f3038 	ldr	r3, [pc, #56]	; c104894 <iis_getSample+0x70>
 c104858:	e5933000 	ldr	r3, [r3]
 c10485c:	e1a03803 	lsl	r3, r3, #16
 c104860:	e1a02823 	lsr	r2, r3, #16
 c104864:	e51b3010 	ldr	r3, [fp, #-16]
 c104868:	e1c320b0 	strh	r2, [r3]
 c10486c:	e59f3020 	ldr	r3, [pc, #32]	; c104894 <iis_getSample+0x70>
 c104870:	e5933000 	ldr	r3, [r3]
 c104874:	e1a03803 	lsl	r3, r3, #16
 c104878:	e1a02823 	lsr	r2, r3, #16
 c10487c:	e51b3014 	ldr	r3, [fp, #-20]	; 0xffffffec
 c104880:	e1c320b0 	strh	r2, [r3]
 c104884:	e24bd00c 	sub	sp, fp, #12
 c104888:	e89d6800 	ldm	sp, {fp, sp, lr}
 c10488c:	e12fff1e 	bx	lr
 c104890:	01d1800c 	.word	0x01d1800c
 c104894:	01d18010 	.word	0x01d18010

0c104898 <iis_play>:
 c104898:	e1a0c00d 	mov	ip, sp
 c10489c:	e92dd800 	push	{fp, ip, lr, pc}
 c1048a0:	e24cb004 	sub	fp, ip, #4
 c1048a4:	e24dd018 	sub	sp, sp, #24
 c1048a8:	e50b0018 	str	r0, [fp, #-24]	; 0xffffffe8
 c1048ac:	e50b101c 	str	r1, [fp, #-28]	; 0xffffffe4
 c1048b0:	e1a03002 	mov	r3, r2
 c1048b4:	e54b301d 	strb	r3, [fp, #-29]	; 0xffffffe3
 c1048b8:	e59f316c 	ldr	r3, [pc, #364]	; c104a2c <iis_play+0x194>
 c1048bc:	e5d33000 	ldrb	r3, [r3]
 c1048c0:	e3530001 	cmp	r3, #1
 c1048c4:	0a000002 	beq	c1048d4 <iis_play+0x3c>
 c1048c8:	e3530002 	cmp	r3, #2
 c1048cc:	0a000034 	beq	c1049a4 <iis_play+0x10c>
 c1048d0:	ea000052 	b	c104a20 <iis_play+0x188>
 c1048d4:	e1a00000 	nop			; (mov r0, r0)
 c1048d8:	e59f3150 	ldr	r3, [pc, #336]	; c104a30 <iis_play+0x198>
 c1048dc:	e5933000 	ldr	r3, [r3]
 c1048e0:	e2033001 	and	r3, r3, #1
 c1048e4:	e20330ff 	and	r3, r3, #255	; 0xff
 c1048e8:	e3530000 	cmp	r3, #0
 c1048ec:	1afffff9 	bne	c1048d8 <iis_play+0x40>
 c1048f0:	e59f313c 	ldr	r3, [pc, #316]	; c104a34 <iis_play+0x19c>
 c1048f4:	e51b2018 	ldr	r2, [fp, #-24]	; 0xffffffe8
 c1048f8:	e3822205 	orr	r2, r2, #1342177280	; 0x50000000
 c1048fc:	e5832000 	str	r2, [r3]
 c104900:	e59f3130 	ldr	r3, [pc, #304]	; c104a38 <iis_play+0x1a0>
 c104904:	e59f2130 	ldr	r2, [pc, #304]	; c104a3c <iis_play+0x1a4>
 c104908:	e5832000 	str	r2, [r3]
 c10490c:	e3a0377e 	mov	r3, #33030144	; 0x1f80000
 c104910:	e3a02000 	mov	r2, #0
 c104914:	e5832000 	str	r2, [r3]
 c104918:	e55b301d 	ldrb	r3, [fp, #-29]	; 0xffffffe3
 c10491c:	e3530000 	cmp	r3, #0
 c104920:	0a000007 	beq	c104944 <iis_play+0xac>
 c104924:	e59f2114 	ldr	r2, [pc, #276]	; c104a40 <iis_play+0x1a8>
 c104928:	e51b301c 	ldr	r3, [fp, #-28]	; 0xffffffe4
 c10492c:	e3c334ff 	bic	r3, r3, #-16777216	; 0xff000000
 c104930:	e3c3360f 	bic	r3, r3, #15728640	; 0xf00000
 c104934:	e3833311 	orr	r3, r3, #1140850688	; 0x44000000
 c104938:	e3833602 	orr	r3, r3, #2097152	; 0x200000
 c10493c:	e5823000 	str	r3, [r2]
 c104940:	ea000006 	b	c104960 <iis_play+0xc8>
 c104944:	e59f20f4 	ldr	r2, [pc, #244]	; c104a40 <iis_play+0x1a8>
 c104948:	e51b301c 	ldr	r3, [fp, #-28]	; 0xffffffe4
 c10494c:	e3c334ff 	bic	r3, r3, #-16777216	; 0xff000000
 c104950:	e3c3360f 	bic	r3, r3, #15728640	; 0xf00000
 c104954:	e3833311 	orr	r3, r3, #1140850688	; 0x44000000
 c104958:	e3833503 	orr	r3, r3, #12582912	; 0xc00000
 c10495c:	e5823000 	str	r3, [r2]
 c104960:	e59f30d8 	ldr	r3, [pc, #216]	; c104a40 <iis_play+0x1a8>
 c104964:	e59f20d4 	ldr	r2, [pc, #212]	; c104a40 <iis_play+0x1a8>
 c104968:	e5922000 	ldr	r2, [r2]
 c10496c:	e3822601 	orr	r2, r2, #1048576	; 0x100000
 c104970:	e5832000 	str	r2, [r3]
 c104974:	e59f30c8 	ldr	r3, [pc, #200]	; c104a44 <iis_play+0x1ac>
 c104978:	e59f20c4 	ldr	r2, [pc, #196]	; c104a44 <iis_play+0x1ac>
 c10497c:	e5922000 	ldr	r2, [r2]
 c104980:	e3c220c0 	bic	r2, r2, #192	; 0xc0
 c104984:	e3822080 	orr	r2, r2, #128	; 0x80
 c104988:	e5832000 	str	r2, [r3]
 c10498c:	e59f309c 	ldr	r3, [pc, #156]	; c104a30 <iis_play+0x198>
 c104990:	e59f2098 	ldr	r2, [pc, #152]	; c104a30 <iis_play+0x198>
 c104994:	e5922000 	ldr	r2, [r2]
 c104998:	e3822001 	orr	r2, r2, #1
 c10499c:	e5832000 	str	r2, [r3]
 c1049a0:	ea00001e 	b	c104a20 <iis_play+0x188>
 c1049a4:	e3a03000 	mov	r3, #0
 c1049a8:	e50b3010 	str	r3, [fp, #-16]
 c1049ac:	ea000016 	b	c104a0c <iis_play+0x174>
 c1049b0:	e51b3010 	ldr	r3, [fp, #-16]
 c1049b4:	e1a03083 	lsl	r3, r3, #1
 c1049b8:	e51b2018 	ldr	r2, [fp, #-24]	; 0xffffffe8
 c1049bc:	e0823003 	add	r3, r2, r3
 c1049c0:	e1d330b0 	ldrh	r3, [r3]
 c1049c4:	e14b31b2 	strh	r3, [fp, #-18]	; 0xffffffee
 c1049c8:	e51b3010 	ldr	r3, [fp, #-16]
 c1049cc:	e2833001 	add	r3, r3, #1
 c1049d0:	e50b3010 	str	r3, [fp, #-16]
 c1049d4:	e51b3010 	ldr	r3, [fp, #-16]
 c1049d8:	e1a03083 	lsl	r3, r3, #1
 c1049dc:	e51b2018 	ldr	r2, [fp, #-24]	; 0xffffffe8
 c1049e0:	e0823003 	add	r3, r2, r3
 c1049e4:	e1d330b0 	ldrh	r3, [r3]
 c1049e8:	e14b31b4 	strh	r3, [fp, #-20]	; 0xffffffec
 c1049ec:	e51b3010 	ldr	r3, [fp, #-16]
 c1049f0:	e2833001 	add	r3, r3, #1
 c1049f4:	e50b3010 	str	r3, [fp, #-16]
 c1049f8:	e15b21f2 	ldrsh	r2, [fp, #-18]	; 0xffffffee
 c1049fc:	e15b31f4 	ldrsh	r3, [fp, #-20]	; 0xffffffec
 c104a00:	e1a00002 	mov	r0, r2
 c104a04:	e1a01003 	mov	r1, r3
 c104a08:	ebffff6b 	bl	c1047bc <iis_putSample>
 c104a0c:	e51b301c 	ldr	r3, [fp, #-28]	; 0xffffffe4
 c104a10:	e1a020a3 	lsr	r2, r3, #1
 c104a14:	e51b3010 	ldr	r3, [fp, #-16]
 c104a18:	e1520003 	cmp	r2, r3
 c104a1c:	8affffe3 	bhi	c1049b0 <iis_play+0x118>
 c104a20:	e24bd00c 	sub	sp, fp, #12
 c104a24:	e89d6800 	ldm	sp, {fp, sp, lr}
 c104a28:	e12fff1e 	bx	lr
 c104a2c:	0c117a24 	.word	0x0c117a24
 c104a30:	01d18000 	.word	0x01d18000
 c104a34:	01f80004 	.word	0x01f80004
 c104a38:	01f80008 	.word	0x01f80008
 c104a3c:	71d18010 	.word	0x71d18010
 c104a40:	01f8000c 	.word	0x01f8000c
 c104a44:	01d18004 	.word	0x01d18004

0c104a48 <iis_rec>:
 c104a48:	e1a0c00d 	mov	ip, sp
 c104a4c:	e92dd800 	push	{fp, ip, lr, pc}
 c104a50:	e24cb004 	sub	fp, ip, #4
 c104a54:	e24dd010 	sub	sp, sp, #16
 c104a58:	e50b0018 	str	r0, [fp, #-24]	; 0xffffffe8
 c104a5c:	e50b101c 	str	r1, [fp, #-28]	; 0xffffffe4
 c104a60:	e59f3140 	ldr	r3, [pc, #320]	; c104ba8 <iis_rec+0x160>
 c104a64:	e5d33000 	ldrb	r3, [r3]
 c104a68:	e3530001 	cmp	r3, #1
 c104a6c:	0a000002 	beq	c104a7c <iis_rec+0x34>
 c104a70:	e3530002 	cmp	r3, #2
 c104a74:	0a000029 	beq	c104b20 <iis_rec+0xd8>
 c104a78:	ea000047 	b	c104b9c <iis_rec+0x154>
 c104a7c:	e1a00000 	nop			; (mov r0, r0)
 c104a80:	e59f3124 	ldr	r3, [pc, #292]	; c104bac <iis_rec+0x164>
 c104a84:	e5933000 	ldr	r3, [r3]
 c104a88:	e2033001 	and	r3, r3, #1
 c104a8c:	e20330ff 	and	r3, r3, #255	; 0xff
 c104a90:	e3530000 	cmp	r3, #0
 c104a94:	1afffff9 	bne	c104a80 <iis_rec+0x38>
 c104a98:	e59f3110 	ldr	r3, [pc, #272]	; c104bb0 <iis_rec+0x168>
 c104a9c:	e59f2110 	ldr	r2, [pc, #272]	; c104bb4 <iis_rec+0x16c>
 c104aa0:	e5832000 	str	r2, [r3]
 c104aa4:	e59f310c 	ldr	r3, [pc, #268]	; c104bb8 <iis_rec+0x170>
 c104aa8:	e51b2018 	ldr	r2, [fp, #-24]	; 0xffffffe8
 c104aac:	e3822209 	orr	r2, r2, #-1879048192	; 0x90000000
 c104ab0:	e5832000 	str	r2, [r3]
 c104ab4:	e3a0377e 	mov	r3, #33030144	; 0x1f80000
 c104ab8:	e3a02000 	mov	r2, #0
 c104abc:	e5832000 	str	r2, [r3]
 c104ac0:	e59f20f4 	ldr	r2, [pc, #244]	; c104bbc <iis_rec+0x174>
 c104ac4:	e51b301c 	ldr	r3, [fp, #-28]	; 0xffffffe4
 c104ac8:	e3c334ff 	bic	r3, r3, #-16777216	; 0xff000000
 c104acc:	e3c3360f 	bic	r3, r3, #15728640	; 0xf00000
 c104ad0:	e3833311 	orr	r3, r3, #1140850688	; 0x44000000
 c104ad4:	e3833503 	orr	r3, r3, #12582912	; 0xc00000
 c104ad8:	e5823000 	str	r3, [r2]
 c104adc:	e59f30d8 	ldr	r3, [pc, #216]	; c104bbc <iis_rec+0x174>
 c104ae0:	e59f20d4 	ldr	r2, [pc, #212]	; c104bbc <iis_rec+0x174>
 c104ae4:	e5922000 	ldr	r2, [r2]
 c104ae8:	e3822601 	orr	r2, r2, #1048576	; 0x100000
 c104aec:	e5832000 	str	r2, [r3]
 c104af0:	e59f30c8 	ldr	r3, [pc, #200]	; c104bc0 <iis_rec+0x178>
 c104af4:	e59f20c4 	ldr	r2, [pc, #196]	; c104bc0 <iis_rec+0x178>
 c104af8:	e5922000 	ldr	r2, [r2]
 c104afc:	e3c220c0 	bic	r2, r2, #192	; 0xc0
 c104b00:	e3822040 	orr	r2, r2, #64	; 0x40
 c104b04:	e5832000 	str	r2, [r3]
 c104b08:	e59f309c 	ldr	r3, [pc, #156]	; c104bac <iis_rec+0x164>
 c104b0c:	e59f2098 	ldr	r2, [pc, #152]	; c104bac <iis_rec+0x164>
 c104b10:	e5922000 	ldr	r2, [r2]
 c104b14:	e3822001 	orr	r2, r2, #1
 c104b18:	e5832000 	str	r2, [r3]
 c104b1c:	ea00001e 	b	c104b9c <iis_rec+0x154>
 c104b20:	e3a03000 	mov	r3, #0
 c104b24:	e50b3010 	str	r3, [fp, #-16]
 c104b28:	ea000016 	b	c104b88 <iis_rec+0x140>
 c104b2c:	e24b2012 	sub	r2, fp, #18
 c104b30:	e24b3014 	sub	r3, fp, #20
 c104b34:	e1a00002 	mov	r0, r2
 c104b38:	e1a01003 	mov	r1, r3
 c104b3c:	ebffff38 	bl	c104824 <iis_getSample>
 c104b40:	e51b3010 	ldr	r3, [fp, #-16]
 c104b44:	e1a03083 	lsl	r3, r3, #1
 c104b48:	e51b2018 	ldr	r2, [fp, #-24]	; 0xffffffe8
 c104b4c:	e0823003 	add	r3, r2, r3
 c104b50:	e15b21b2 	ldrh	r2, [fp, #-18]	; 0xffffffee
 c104b54:	e1c320b0 	strh	r2, [r3]
 c104b58:	e51b3010 	ldr	r3, [fp, #-16]
 c104b5c:	e2833001 	add	r3, r3, #1
 c104b60:	e50b3010 	str	r3, [fp, #-16]
 c104b64:	e51b3010 	ldr	r3, [fp, #-16]
 c104b68:	e1a03083 	lsl	r3, r3, #1
 c104b6c:	e51b2018 	ldr	r2, [fp, #-24]	; 0xffffffe8
 c104b70:	e0823003 	add	r3, r2, r3
 c104b74:	e15b21b4 	ldrh	r2, [fp, #-20]	; 0xffffffec
 c104b78:	e1c320b0 	strh	r2, [r3]
 c104b7c:	e51b3010 	ldr	r3, [fp, #-16]
 c104b80:	e2833001 	add	r3, r3, #1
 c104b84:	e50b3010 	str	r3, [fp, #-16]
 c104b88:	e51b301c 	ldr	r3, [fp, #-28]	; 0xffffffe4
 c104b8c:	e1a020a3 	lsr	r2, r3, #1
 c104b90:	e51b3010 	ldr	r3, [fp, #-16]
 c104b94:	e1520003 	cmp	r2, r3
 c104b98:	8affffe3 	bhi	c104b2c <iis_rec+0xe4>
 c104b9c:	e24bd00c 	sub	sp, fp, #12
 c104ba0:	e89d6800 	ldm	sp, {fp, sp, lr}
 c104ba4:	e12fff1e 	bx	lr
 c104ba8:	0c117a24 	.word	0x0c117a24
 c104bac:	01d18000 	.word	0x01d18000
 c104bb0:	01f80004 	.word	0x01f80004
 c104bb4:	71d18010 	.word	0x71d18010
 c104bb8:	01f80008 	.word	0x01f80008
 c104bbc:	01f8000c 	.word	0x01f8000c
 c104bc0:	01d18004 	.word	0x01d18004

0c104bc4 <iis_pause>:
 c104bc4:	e1a0c00d 	mov	ip, sp
 c104bc8:	e92dd800 	push	{fp, ip, lr, pc}
 c104bcc:	e24cb004 	sub	fp, ip, #4
 c104bd0:	e59f3018 	ldr	r3, [pc, #24]	; c104bf0 <iis_pause+0x2c>
 c104bd4:	e59f2014 	ldr	r2, [pc, #20]	; c104bf0 <iis_pause+0x2c>
 c104bd8:	e5922000 	ldr	r2, [r2]
 c104bdc:	e3c22001 	bic	r2, r2, #1
 c104be0:	e5832000 	str	r2, [r3]
 c104be4:	e24bd00c 	sub	sp, fp, #12
 c104be8:	e89d6800 	ldm	sp, {fp, sp, lr}
 c104bec:	e12fff1e 	bx	lr
 c104bf0:	01d18000 	.word	0x01d18000

0c104bf4 <iis_continue>:
 c104bf4:	e1a0c00d 	mov	ip, sp
 c104bf8:	e92dd800 	push	{fp, ip, lr, pc}
 c104bfc:	e24cb004 	sub	fp, ip, #4
 c104c00:	e59f3018 	ldr	r3, [pc, #24]	; c104c20 <iis_continue+0x2c>
 c104c04:	e59f2014 	ldr	r2, [pc, #20]	; c104c20 <iis_continue+0x2c>
 c104c08:	e5922000 	ldr	r2, [r2]
 c104c0c:	e3822001 	orr	r2, r2, #1
 c104c10:	e5832000 	str	r2, [r3]
 c104c14:	e24bd00c 	sub	sp, fp, #12
 c104c18:	e89d6800 	ldm	sp, {fp, sp, lr}
 c104c1c:	e12fff1e 	bx	lr
 c104c20:	01d18000 	.word	0x01d18000

0c104c24 <iis_status>:
 c104c24:	e1a0c00d 	mov	ip, sp
 c104c28:	e92dd800 	push	{fp, ip, lr, pc}
 c104c2c:	e24cb004 	sub	fp, ip, #4
 c104c30:	e59f301c 	ldr	r3, [pc, #28]	; c104c54 <iis_status+0x30>
 c104c34:	e5933000 	ldr	r3, [r3]
 c104c38:	e20330ff 	and	r3, r3, #255	; 0xff
 c104c3c:	e2033001 	and	r3, r3, #1
 c104c40:	e20330ff 	and	r3, r3, #255	; 0xff
 c104c44:	e1a00003 	mov	r0, r3
 c104c48:	e24bd00c 	sub	sp, fp, #12
 c104c4c:	e89d6800 	ldm	sp, {fp, sp, lr}
 c104c50:	e12fff1e 	bx	lr
 c104c54:	01d18000 	.word	0x01d18000

0c104c58 <iis_playWawFile>:
 c104c58:	e1a0c00d 	mov	ip, sp
 c104c5c:	e92dd800 	push	{fp, ip, lr, pc}
 c104c60:	e24cb004 	sub	fp, ip, #4
 c104c64:	e24dd010 	sub	sp, sp, #16
 c104c68:	e50b0018 	str	r0, [fp, #-24]	; 0xffffffe8
 c104c6c:	e1a03001 	mov	r3, r1
 c104c70:	e54b3019 	strb	r3, [fp, #-25]	; 0xffffffe7
 c104c74:	e51b3018 	ldr	r3, [fp, #-24]	; 0xffffffe8
 c104c78:	e50b3010 	str	r3, [fp, #-16]
 c104c7c:	ea000002 	b	c104c8c <iis_playWawFile+0x34>
 c104c80:	e51b3010 	ldr	r3, [fp, #-16]
 c104c84:	e2833001 	add	r3, r3, #1
 c104c88:	e50b3010 	str	r3, [fp, #-16]
 c104c8c:	e51b3010 	ldr	r3, [fp, #-16]
 c104c90:	e5d33000 	ldrb	r3, [r3]
 c104c94:	e3530064 	cmp	r3, #100	; 0x64
 c104c98:	1afffff8 	bne	c104c80 <iis_playWawFile+0x28>
 c104c9c:	e51b3010 	ldr	r3, [fp, #-16]
 c104ca0:	e2833001 	add	r3, r3, #1
 c104ca4:	e5d33000 	ldrb	r3, [r3]
 c104ca8:	e3530061 	cmp	r3, #97	; 0x61
 c104cac:	1afffff3 	bne	c104c80 <iis_playWawFile+0x28>
 c104cb0:	e51b3010 	ldr	r3, [fp, #-16]
 c104cb4:	e2833002 	add	r3, r3, #2
 c104cb8:	e5d33000 	ldrb	r3, [r3]
 c104cbc:	e3530074 	cmp	r3, #116	; 0x74
 c104cc0:	1affffee 	bne	c104c80 <iis_playWawFile+0x28>
 c104cc4:	e51b3010 	ldr	r3, [fp, #-16]
 c104cc8:	e2833003 	add	r3, r3, #3
 c104ccc:	e5d33000 	ldrb	r3, [r3]
 c104cd0:	e3530061 	cmp	r3, #97	; 0x61
 c104cd4:	1affffe9 	bne	c104c80 <iis_playWawFile+0x28>
 c104cd8:	e51b3010 	ldr	r3, [fp, #-16]
 c104cdc:	e2833004 	add	r3, r3, #4
 c104ce0:	e50b3010 	str	r3, [fp, #-16]
 c104ce4:	e51b3010 	ldr	r3, [fp, #-16]
 c104ce8:	e5d33000 	ldrb	r3, [r3]
 c104cec:	e1a02003 	mov	r2, r3
 c104cf0:	e51b3010 	ldr	r3, [fp, #-16]
 c104cf4:	e2833001 	add	r3, r3, #1
 c104cf8:	e5d33000 	ldrb	r3, [r3]
 c104cfc:	e1a03403 	lsl	r3, r3, #8
 c104d00:	e0822003 	add	r2, r2, r3
 c104d04:	e51b3010 	ldr	r3, [fp, #-16]
 c104d08:	e2833002 	add	r3, r3, #2
 c104d0c:	e5d33000 	ldrb	r3, [r3]
 c104d10:	e1a03803 	lsl	r3, r3, #16
 c104d14:	e0822003 	add	r2, r2, r3
 c104d18:	e51b3010 	ldr	r3, [fp, #-16]
 c104d1c:	e2833003 	add	r3, r3, #3
 c104d20:	e5d33000 	ldrb	r3, [r3]
 c104d24:	e1a03c03 	lsl	r3, r3, #24
 c104d28:	e0823003 	add	r3, r2, r3
 c104d2c:	e50b3014 	str	r3, [fp, #-20]	; 0xffffffec
 c104d30:	e51b3010 	ldr	r3, [fp, #-16]
 c104d34:	e2833004 	add	r3, r3, #4
 c104d38:	e50b3010 	str	r3, [fp, #-16]
 c104d3c:	e51b2010 	ldr	r2, [fp, #-16]
 c104d40:	e55b3019 	ldrb	r3, [fp, #-25]	; 0xffffffe7
 c104d44:	e1a00002 	mov	r0, r2
 c104d48:	e51b1014 	ldr	r1, [fp, #-20]	; 0xffffffec
 c104d4c:	e1a02003 	mov	r2, r3
 c104d50:	ebfffed0 	bl	c104898 <iis_play>
 c104d54:	e24bd00c 	sub	sp, fp, #12
 c104d58:	e89d6800 	ldm	sp, {fp, sp, lr}
 c104d5c:	e12fff1e 	bx	lr

0c104d60 <keypad_scan>:
 c104d60:	e1a0c00d 	mov	ip, sp
 c104d64:	e92dd800 	push	{fp, ip, lr, pc}
 c104d68:	e24cb004 	sub	fp, ip, #4
 c104d6c:	e24dd008 	sub	sp, sp, #8
 c104d70:	e59f31fc 	ldr	r3, [pc, #508]	; c104f74 <keypad_scan+0x214>
 c104d74:	e5d33000 	ldrb	r3, [r3]
 c104d78:	e54b300d 	strb	r3, [fp, #-13]
 c104d7c:	e55b300d 	ldrb	r3, [fp, #-13]
 c104d80:	e203300f 	and	r3, r3, #15
 c104d84:	e353000f 	cmp	r3, #15
 c104d88:	0a000017 	beq	c104dec <keypad_scan+0x8c>
 c104d8c:	e55b300d 	ldrb	r3, [fp, #-13]
 c104d90:	e2033008 	and	r3, r3, #8
 c104d94:	e3530000 	cmp	r3, #0
 c104d98:	1a000001 	bne	c104da4 <keypad_scan+0x44>
 c104d9c:	e3a03000 	mov	r3, #0
 c104da0:	ea00006f 	b	c104f64 <keypad_scan+0x204>
 c104da4:	e55b300d 	ldrb	r3, [fp, #-13]
 c104da8:	e2033004 	and	r3, r3, #4
 c104dac:	e3530000 	cmp	r3, #0
 c104db0:	1a000001 	bne	c104dbc <keypad_scan+0x5c>
 c104db4:	e3a03001 	mov	r3, #1
 c104db8:	ea000069 	b	c104f64 <keypad_scan+0x204>
 c104dbc:	e55b300d 	ldrb	r3, [fp, #-13]
 c104dc0:	e2033002 	and	r3, r3, #2
 c104dc4:	e3530000 	cmp	r3, #0
 c104dc8:	1a000001 	bne	c104dd4 <keypad_scan+0x74>
 c104dcc:	e3a03002 	mov	r3, #2
 c104dd0:	ea000063 	b	c104f64 <keypad_scan+0x204>
 c104dd4:	e55b300d 	ldrb	r3, [fp, #-13]
 c104dd8:	e2033001 	and	r3, r3, #1
 c104ddc:	e3530000 	cmp	r3, #0
 c104de0:	1a000001 	bne	c104dec <keypad_scan+0x8c>
 c104de4:	e3a03003 	mov	r3, #3
 c104de8:	ea00005d 	b	c104f64 <keypad_scan+0x204>
 c104dec:	e59f3184 	ldr	r3, [pc, #388]	; c104f78 <keypad_scan+0x218>
 c104df0:	e5d33000 	ldrb	r3, [r3]
 c104df4:	e54b300d 	strb	r3, [fp, #-13]
 c104df8:	e55b300d 	ldrb	r3, [fp, #-13]
 c104dfc:	e203300f 	and	r3, r3, #15
 c104e00:	e353000f 	cmp	r3, #15
 c104e04:	0a000017 	beq	c104e68 <keypad_scan+0x108>
 c104e08:	e55b300d 	ldrb	r3, [fp, #-13]
 c104e0c:	e2033008 	and	r3, r3, #8
 c104e10:	e3530000 	cmp	r3, #0
 c104e14:	1a000001 	bne	c104e20 <keypad_scan+0xc0>
 c104e18:	e3a03004 	mov	r3, #4
 c104e1c:	ea000050 	b	c104f64 <keypad_scan+0x204>
 c104e20:	e55b300d 	ldrb	r3, [fp, #-13]
 c104e24:	e2033004 	and	r3, r3, #4
 c104e28:	e3530000 	cmp	r3, #0
 c104e2c:	1a000001 	bne	c104e38 <keypad_scan+0xd8>
 c104e30:	e3a03005 	mov	r3, #5
 c104e34:	ea00004a 	b	c104f64 <keypad_scan+0x204>
 c104e38:	e55b300d 	ldrb	r3, [fp, #-13]
 c104e3c:	e2033002 	and	r3, r3, #2
 c104e40:	e3530000 	cmp	r3, #0
 c104e44:	1a000001 	bne	c104e50 <keypad_scan+0xf0>
 c104e48:	e3a03006 	mov	r3, #6
 c104e4c:	ea000044 	b	c104f64 <keypad_scan+0x204>
 c104e50:	e55b300d 	ldrb	r3, [fp, #-13]
 c104e54:	e2033001 	and	r3, r3, #1
 c104e58:	e3530000 	cmp	r3, #0
 c104e5c:	1a000001 	bne	c104e68 <keypad_scan+0x108>
 c104e60:	e3a03007 	mov	r3, #7
 c104e64:	ea00003e 	b	c104f64 <keypad_scan+0x204>
 c104e68:	e59f310c 	ldr	r3, [pc, #268]	; c104f7c <keypad_scan+0x21c>
 c104e6c:	e5d33000 	ldrb	r3, [r3]
 c104e70:	e54b300d 	strb	r3, [fp, #-13]
 c104e74:	e55b300d 	ldrb	r3, [fp, #-13]
 c104e78:	e203300f 	and	r3, r3, #15
 c104e7c:	e353000f 	cmp	r3, #15
 c104e80:	0a000017 	beq	c104ee4 <keypad_scan+0x184>
 c104e84:	e55b300d 	ldrb	r3, [fp, #-13]
 c104e88:	e2033008 	and	r3, r3, #8
 c104e8c:	e3530000 	cmp	r3, #0
 c104e90:	1a000001 	bne	c104e9c <keypad_scan+0x13c>
 c104e94:	e3a03008 	mov	r3, #8
 c104e98:	ea000031 	b	c104f64 <keypad_scan+0x204>
 c104e9c:	e55b300d 	ldrb	r3, [fp, #-13]
 c104ea0:	e2033004 	and	r3, r3, #4
 c104ea4:	e3530000 	cmp	r3, #0
 c104ea8:	1a000001 	bne	c104eb4 <keypad_scan+0x154>
 c104eac:	e3a03009 	mov	r3, #9
 c104eb0:	ea00002b 	b	c104f64 <keypad_scan+0x204>
 c104eb4:	e55b300d 	ldrb	r3, [fp, #-13]
 c104eb8:	e2033002 	and	r3, r3, #2
 c104ebc:	e3530000 	cmp	r3, #0
 c104ec0:	1a000001 	bne	c104ecc <keypad_scan+0x16c>
 c104ec4:	e3a0300a 	mov	r3, #10
 c104ec8:	ea000025 	b	c104f64 <keypad_scan+0x204>
 c104ecc:	e55b300d 	ldrb	r3, [fp, #-13]
 c104ed0:	e2033001 	and	r3, r3, #1
 c104ed4:	e3530000 	cmp	r3, #0
 c104ed8:	1a000001 	bne	c104ee4 <keypad_scan+0x184>
 c104edc:	e3a0300b 	mov	r3, #11
 c104ee0:	ea00001f 	b	c104f64 <keypad_scan+0x204>
 c104ee4:	e59f3094 	ldr	r3, [pc, #148]	; c104f80 <keypad_scan+0x220>
 c104ee8:	e5d33000 	ldrb	r3, [r3]
 c104eec:	e54b300d 	strb	r3, [fp, #-13]
 c104ef0:	e55b300d 	ldrb	r3, [fp, #-13]
 c104ef4:	e203300f 	and	r3, r3, #15
 c104ef8:	e353000f 	cmp	r3, #15
 c104efc:	0a000017 	beq	c104f60 <keypad_scan+0x200>
 c104f00:	e55b300d 	ldrb	r3, [fp, #-13]
 c104f04:	e2033008 	and	r3, r3, #8
 c104f08:	e3530000 	cmp	r3, #0
 c104f0c:	1a000001 	bne	c104f18 <keypad_scan+0x1b8>
 c104f10:	e3a0300c 	mov	r3, #12
 c104f14:	ea000012 	b	c104f64 <keypad_scan+0x204>
 c104f18:	e55b300d 	ldrb	r3, [fp, #-13]
 c104f1c:	e2033004 	and	r3, r3, #4
 c104f20:	e3530000 	cmp	r3, #0
 c104f24:	1a000001 	bne	c104f30 <keypad_scan+0x1d0>
 c104f28:	e3a0300d 	mov	r3, #13
 c104f2c:	ea00000c 	b	c104f64 <keypad_scan+0x204>
 c104f30:	e55b300d 	ldrb	r3, [fp, #-13]
 c104f34:	e2033002 	and	r3, r3, #2
 c104f38:	e3530000 	cmp	r3, #0
 c104f3c:	1a000001 	bne	c104f48 <keypad_scan+0x1e8>
 c104f40:	e3a0300e 	mov	r3, #14
 c104f44:	ea000006 	b	c104f64 <keypad_scan+0x204>
 c104f48:	e55b300d 	ldrb	r3, [fp, #-13]
 c104f4c:	e2033001 	and	r3, r3, #1
 c104f50:	e3530000 	cmp	r3, #0
 c104f54:	1a000001 	bne	c104f60 <keypad_scan+0x200>
 c104f58:	e3a0300f 	mov	r3, #15
 c104f5c:	ea000000 	b	c104f64 <keypad_scan+0x204>
 c104f60:	e3a030ff 	mov	r3, #255	; 0xff
 c104f64:	e1a00003 	mov	r0, r3
 c104f68:	e24bd00c 	sub	sp, fp, #12
 c104f6c:	e89d6800 	ldm	sp, {fp, sp, lr}
 c104f70:	e12fff1e 	bx	lr
 c104f74:	0600001c 	.word	0x0600001c
 c104f78:	0600001a 	.word	0x0600001a
 c104f7c:	06000016 	.word	0x06000016
 c104f80:	0600000e 	.word	0x0600000e

0c104f84 <keypad_pressed>:
 c104f84:	e1a0c00d 	mov	ip, sp
 c104f88:	e92dd800 	push	{fp, ip, lr, pc}
 c104f8c:	e24cb004 	sub	fp, ip, #4
 c104f90:	e59f3024 	ldr	r3, [pc, #36]	; c104fbc <keypad_pressed+0x38>
 c104f94:	e5933000 	ldr	r3, [r3]
 c104f98:	e2033002 	and	r3, r3, #2
 c104f9c:	e3530000 	cmp	r3, #0
 c104fa0:	13a03000 	movne	r3, #0
 c104fa4:	03a03001 	moveq	r3, #1
 c104fa8:	e20330ff 	and	r3, r3, #255	; 0xff
 c104fac:	e1a00003 	mov	r0, r3
 c104fb0:	e24bd00c 	sub	sp, fp, #12
 c104fb4:	e89d6800 	ldm	sp, {fp, sp, lr}
 c104fb8:	e12fff1e 	bx	lr
 c104fbc:	01d20044 	.word	0x01d20044

0c104fc0 <keypad_getchartime>:
 c104fc0:	e1a0c00d 	mov	ip, sp
 c104fc4:	e92dd800 	push	{fp, ip, lr, pc}
 c104fc8:	e24cb004 	sub	fp, ip, #4
 c104fcc:	e24dd010 	sub	sp, sp, #16
 c104fd0:	e50b0018 	str	r0, [fp, #-24]	; 0xffffffe8
 c104fd4:	e1a00000 	nop			; (mov r0, r0)
 c104fd8:	e59f3080 	ldr	r3, [pc, #128]	; c105060 <keypad_getchartime+0xa0>
 c104fdc:	e5933000 	ldr	r3, [r3]
 c104fe0:	e2033002 	and	r3, r3, #2
 c104fe4:	e3530000 	cmp	r3, #0
 c104fe8:	1afffffa 	bne	c104fd8 <keypad_getchartime+0x18>
 c104fec:	eb001139 	bl	c1094d8 <timer3_start>
 c104ff0:	e3a0001e 	mov	r0, #30
 c104ff4:	eb0010cc 	bl	c10932c <sw_delay_ms>
 c104ff8:	ebffff58 	bl	c104d60 <keypad_scan>
 c104ffc:	e1a03000 	mov	r3, r0
 c105000:	e54b300d 	strb	r3, [fp, #-13]
 c105004:	e1a00000 	nop			; (mov r0, r0)
 c105008:	e59f3050 	ldr	r3, [pc, #80]	; c105060 <keypad_getchartime+0xa0>
 c10500c:	e5933000 	ldr	r3, [r3]
 c105010:	e2033002 	and	r3, r3, #2
 c105014:	e3530000 	cmp	r3, #0
 c105018:	0afffffa 	beq	c105008 <keypad_getchartime+0x48>
 c10501c:	eb001164 	bl	c1095b4 <timer3_stop>
 c105020:	e1a03000 	mov	r3, r0
 c105024:	e1a02003 	mov	r2, r3
 c105028:	e59f3034 	ldr	r3, [pc, #52]	; c105064 <keypad_getchartime+0xa4>
 c10502c:	e0831392 	umull	r1, r3, r2, r3
 c105030:	e1a031a3 	lsr	r3, r3, #3
 c105034:	e1a03803 	lsl	r3, r3, #16
 c105038:	e1a02823 	lsr	r2, r3, #16
 c10503c:	e51b3018 	ldr	r3, [fp, #-24]	; 0xffffffe8
 c105040:	e1c320b0 	strh	r2, [r3]
 c105044:	e3a00064 	mov	r0, #100	; 0x64
 c105048:	eb0010b7 	bl	c10932c <sw_delay_ms>
 c10504c:	e55b300d 	ldrb	r3, [fp, #-13]
 c105050:	e1a00003 	mov	r0, r3
 c105054:	e24bd00c 	sub	sp, fp, #12
 c105058:	e89d6800 	ldm	sp, {fp, sp, lr}
 c10505c:	e12fff1e 	bx	lr
 c105060:	01d20044 	.word	0x01d20044
 c105064:	cccccccd 	.word	0xcccccccd

0c105068 <keypad_timeout_getchar>:
 c105068:	e1a0c00d 	mov	ip, sp
 c10506c:	e92dd800 	push	{fp, ip, lr, pc}
 c105070:	e24cb004 	sub	fp, ip, #4
 c105074:	e24dd010 	sub	sp, sp, #16
 c105078:	e1a03000 	mov	r3, r0
 c10507c:	e14b31b6 	strh	r3, [fp, #-22]	; 0xffffffea
 c105080:	e15b31b6 	ldrh	r3, [fp, #-22]	; 0xffffffea
 c105084:	e1a02003 	mov	r2, r3
 c105088:	e1a02102 	lsl	r2, r2, #2
 c10508c:	e0823003 	add	r3, r2, r3
 c105090:	e1a03083 	lsl	r3, r3, #1
 c105094:	e1a03803 	lsl	r3, r3, #16
 c105098:	e1a03823 	lsr	r3, r3, #16
 c10509c:	e1a00003 	mov	r0, r3
 c1050a0:	eb001158 	bl	c109608 <timer3_start_timeout>
 c1050a4:	e1a00000 	nop			; (mov r0, r0)
 c1050a8:	e59f30a4 	ldr	r3, [pc, #164]	; c105154 <keypad_timeout_getchar+0xec>
 c1050ac:	e5933000 	ldr	r3, [r3]
 c1050b0:	e2033002 	and	r3, r3, #2
 c1050b4:	e3530000 	cmp	r3, #0
 c1050b8:	0a000003 	beq	c1050cc <keypad_timeout_getchar+0x64>
 c1050bc:	eb00118a 	bl	c1096ec <timer3_timeout>
 c1050c0:	e1a03000 	mov	r3, r0
 c1050c4:	e3530000 	cmp	r3, #0
 c1050c8:	0afffff6 	beq	c1050a8 <keypad_timeout_getchar+0x40>
 c1050cc:	eb001186 	bl	c1096ec <timer3_timeout>
 c1050d0:	e1a03000 	mov	r3, r0
 c1050d4:	e3530000 	cmp	r3, #0
 c1050d8:	0a000001 	beq	c1050e4 <keypad_timeout_getchar+0x7c>
 c1050dc:	e3a030fe 	mov	r3, #254	; 0xfe
 c1050e0:	ea000017 	b	c105144 <keypad_timeout_getchar+0xdc>
 c1050e4:	e3a0001e 	mov	r0, #30
 c1050e8:	eb00108f 	bl	c10932c <sw_delay_ms>
 c1050ec:	ebffff1b 	bl	c104d60 <keypad_scan>
 c1050f0:	e1a03000 	mov	r3, r0
 c1050f4:	e54b300d 	strb	r3, [fp, #-13]
 c1050f8:	e1a00000 	nop			; (mov r0, r0)
 c1050fc:	e59f3050 	ldr	r3, [pc, #80]	; c105154 <keypad_timeout_getchar+0xec>
 c105100:	e5933000 	ldr	r3, [r3]
 c105104:	e2033002 	and	r3, r3, #2
 c105108:	e3530000 	cmp	r3, #0
 c10510c:	1a000003 	bne	c105120 <keypad_timeout_getchar+0xb8>
 c105110:	eb001175 	bl	c1096ec <timer3_timeout>
 c105114:	e1a03000 	mov	r3, r0
 c105118:	e3530000 	cmp	r3, #0
 c10511c:	0afffff6 	beq	c1050fc <keypad_timeout_getchar+0x94>
 c105120:	eb001171 	bl	c1096ec <timer3_timeout>
 c105124:	e1a03000 	mov	r3, r0
 c105128:	e3530000 	cmp	r3, #0
 c10512c:	0a000001 	beq	c105138 <keypad_timeout_getchar+0xd0>
 c105130:	e3a030fe 	mov	r3, #254	; 0xfe
 c105134:	ea000002 	b	c105144 <keypad_timeout_getchar+0xdc>
 c105138:	e3a00064 	mov	r0, #100	; 0x64
 c10513c:	eb00107a 	bl	c10932c <sw_delay_ms>
 c105140:	e55b300d 	ldrb	r3, [fp, #-13]
 c105144:	e1a00003 	mov	r0, r3
 c105148:	e24bd00c 	sub	sp, fp, #12
 c10514c:	e89d6800 	ldm	sp, {fp, sp, lr}
 c105150:	e12fff1e 	bx	lr
 c105154:	01d20044 	.word	0x01d20044

0c105158 <keypad_open>:
 c105158:	e1a0c00d 	mov	ip, sp
 c10515c:	e92dd800 	push	{fp, ip, lr, pc}
 c105160:	e24cb004 	sub	fp, ip, #4
 c105164:	e24dd008 	sub	sp, sp, #8
 c105168:	e50b0010 	str	r0, [fp, #-16]
 c10516c:	e59f3030 	ldr	r3, [pc, #48]	; c1051a4 <keypad_open+0x4c>
 c105170:	e51b2010 	ldr	r2, [fp, #-16]
 c105174:	e5832000 	str	r2, [r3]
 c105178:	e59f3028 	ldr	r3, [pc, #40]	; c1051a8 <keypad_open+0x50>
 c10517c:	e3a02401 	mov	r2, #16777216	; 0x1000000
 c105180:	e5832000 	str	r2, [r3]
 c105184:	e59f3020 	ldr	r3, [pc, #32]	; c1051ac <keypad_open+0x54>
 c105188:	e59f201c 	ldr	r2, [pc, #28]	; c1051ac <keypad_open+0x54>
 c10518c:	e5922000 	ldr	r2, [r2]
 c105190:	e3c22405 	bic	r2, r2, #83886080	; 0x5000000
 c105194:	e5832000 	str	r2, [r3]
 c105198:	e24bd00c 	sub	sp, fp, #12
 c10519c:	e89d6800 	ldm	sp, {fp, sp, lr}
 c1051a0:	e12fff1e 	bx	lr
 c1051a4:	0c7fff80 	.word	0x0c7fff80
 c1051a8:	01e00024 	.word	0x01e00024
 c1051ac:	01e0000c 	.word	0x01e0000c

0c1051b0 <keypad_close>:
 c1051b0:	e1a0c00d 	mov	ip, sp
 c1051b4:	e92dd800 	push	{fp, ip, lr, pc}
 c1051b8:	e24cb004 	sub	fp, ip, #4
 c1051bc:	e59f3024 	ldr	r3, [pc, #36]	; c1051e8 <keypad_close+0x38>
 c1051c0:	e59f2020 	ldr	r2, [pc, #32]	; c1051e8 <keypad_close+0x38>
 c1051c4:	e5922000 	ldr	r2, [r2]
 c1051c8:	e3822401 	orr	r2, r2, #16777216	; 0x1000000
 c1051cc:	e5832000 	str	r2, [r3]
 c1051d0:	e59f3014 	ldr	r3, [pc, #20]	; c1051ec <keypad_close+0x3c>
 c1051d4:	e59f2014 	ldr	r2, [pc, #20]	; c1051f0 <keypad_close+0x40>
 c1051d8:	e5832000 	str	r2, [r3]
 c1051dc:	e24bd00c 	sub	sp, fp, #12
 c1051e0:	e89d6800 	ldm	sp, {fp, sp, lr}
 c1051e4:	e12fff1e 	bx	lr
 c1051e8:	01e0000c 	.word	0x01e0000c
 c1051ec:	0c7fff70 	.word	0x0c7fff70
 c1051f0:	0c108988 	.word	0x0c108988

0c1051f4 <keypad_init>:
 c1051f4:	e1a0c00d 	mov	ip, sp
 c1051f8:	e92dd800 	push	{fp, ip, lr, pc}
 c1051fc:	e24cb004 	sub	fp, ip, #4
 c105200:	e3a0000a 	mov	r0, #10
 c105204:	eb000683 	bl	c106c18 <power_on>
 c105208:	e59f305c 	ldr	r3, [pc, #92]	; c10526c <keypad_init+0x78>
 c10520c:	e59f2058 	ldr	r2, [pc, #88]	; c10526c <keypad_init+0x78>
 c105210:	e5922000 	ldr	r2, [r2]
 c105214:	e3822c01 	orr	r2, r2, #256	; 0x100
 c105218:	e5832000 	str	r2, [r3]
 c10521c:	e59f304c 	ldr	r3, [pc, #76]	; c105270 <keypad_init+0x7c>
 c105220:	e59f2048 	ldr	r2, [pc, #72]	; c105270 <keypad_init+0x7c>
 c105224:	e5922000 	ldr	r2, [r2]
 c105228:	e382200c 	orr	r2, r2, #12
 c10522c:	e5832000 	str	r2, [r3]
 c105230:	e59f303c 	ldr	r3, [pc, #60]	; c105274 <keypad_init+0x80>
 c105234:	e59f2038 	ldr	r2, [pc, #56]	; c105274 <keypad_init+0x80>
 c105238:	e5922000 	ldr	r2, [r2]
 c10523c:	e3c22002 	bic	r2, r2, #2
 c105240:	e5832000 	str	r2, [r3]
 c105244:	e59f302c 	ldr	r3, [pc, #44]	; c105278 <keypad_init+0x84>
 c105248:	e59f2028 	ldr	r2, [pc, #40]	; c105278 <keypad_init+0x84>
 c10524c:	e5922000 	ldr	r2, [r2]
 c105250:	e3c220f0 	bic	r2, r2, #240	; 0xf0
 c105254:	e3822020 	orr	r2, r2, #32
 c105258:	e5832000 	str	r2, [r3]
 c10525c:	eb000f80 	bl	c109064 <timers_init>
 c105260:	e24bd00c 	sub	sp, fp, #12
 c105264:	e89d6800 	ldm	sp, {fp, sp, lr}
 c105268:	e12fff1e 	bx	lr
 c10526c:	01d20008 	.word	0x01d20008
 c105270:	01d20040 	.word	0x01d20040
 c105274:	01d20048 	.word	0x01d20048
 c105278:	01d20050 	.word	0x01d20050

0c10527c <keypad_getchar>:
 c10527c:	e1a0c00d 	mov	ip, sp
 c105280:	e92dd800 	push	{fp, ip, lr, pc}
 c105284:	e24cb004 	sub	fp, ip, #4
 c105288:	e24dd008 	sub	sp, sp, #8
 c10528c:	e1a00000 	nop			; (mov r0, r0)
 c105290:	e59f3054 	ldr	r3, [pc, #84]	; c1052ec <keypad_getchar+0x70>
 c105294:	e5933000 	ldr	r3, [r3]
 c105298:	e2033002 	and	r3, r3, #2
 c10529c:	e3530000 	cmp	r3, #0
 c1052a0:	1afffffa 	bne	c105290 <keypad_getchar+0x14>
 c1052a4:	e3a0001e 	mov	r0, #30
 c1052a8:	eb00101f 	bl	c10932c <sw_delay_ms>
 c1052ac:	ebfffeab 	bl	c104d60 <keypad_scan>
 c1052b0:	e1a03000 	mov	r3, r0
 c1052b4:	e54b300d 	strb	r3, [fp, #-13]
 c1052b8:	e1a00000 	nop			; (mov r0, r0)
 c1052bc:	e59f3028 	ldr	r3, [pc, #40]	; c1052ec <keypad_getchar+0x70>
 c1052c0:	e5933000 	ldr	r3, [r3]
 c1052c4:	e2033002 	and	r3, r3, #2
 c1052c8:	e3530000 	cmp	r3, #0
 c1052cc:	0afffffa 	beq	c1052bc <keypad_getchar+0x40>
 c1052d0:	e3a00064 	mov	r0, #100	; 0x64
 c1052d4:	eb001014 	bl	c10932c <sw_delay_ms>
 c1052d8:	e55b300d 	ldrb	r3, [fp, #-13]
 c1052dc:	e1a00003 	mov	r0, r3
 c1052e0:	e24bd00c 	sub	sp, fp, #12
 c1052e4:	e89d6800 	ldm	sp, {fp, sp, lr}
 c1052e8:	e12fff1e 	bx	lr
 c1052ec:	01d20044 	.word	0x01d20044

0c1052f0 <lcd_init>:
 c1052f0:	e1a0c00d 	mov	ip, sp
 c1052f4:	e92dd800 	push	{fp, ip, lr, pc}
 c1052f8:	e24cb004 	sub	fp, ip, #4
 c1052fc:	e3a00006 	mov	r0, #6
 c105300:	eb000644 	bl	c106c18 <power_on>
 c105304:	e59f3114 	ldr	r3, [pc, #276]	; c105420 <lcd_init+0x130>
 c105308:	e59f2114 	ldr	r2, [pc, #276]	; c105424 <lcd_init+0x134>
 c10530c:	e5832000 	str	r2, [r3]
 c105310:	e59f3110 	ldr	r3, [pc, #272]	; c105428 <lcd_init+0x138>
 c105314:	e3a020ff 	mov	r2, #255	; 0xff
 c105318:	e5832000 	str	r2, [r3]
 c10531c:	e59f3108 	ldr	r3, [pc, #264]	; c10542c <lcd_init+0x13c>
 c105320:	e59f2108 	ldr	r2, [pc, #264]	; c105430 <lcd_init+0x140>
 c105324:	e5832000 	str	r2, [r3]
 c105328:	e59f3104 	ldr	r3, [pc, #260]	; c105434 <lcd_init+0x144>
 c10532c:	e59f2104 	ldr	r2, [pc, #260]	; c105438 <lcd_init+0x148>
 c105330:	e5832000 	str	r2, [r3]
 c105334:	e59f3100 	ldr	r3, [pc, #256]	; c10543c <lcd_init+0x14c>
 c105338:	e59f2100 	ldr	r2, [pc, #256]	; c105440 <lcd_init+0x150>
 c10533c:	e5832000 	str	r2, [r3]
 c105340:	e59f30fc 	ldr	r3, [pc, #252]	; c105444 <lcd_init+0x154>
 c105344:	e59f20fc 	ldr	r2, [pc, #252]	; c105448 <lcd_init+0x158>
 c105348:	e5832000 	str	r2, [r3]
 c10534c:	e59f30f8 	ldr	r3, [pc, #248]	; c10544c <lcd_init+0x15c>
 c105350:	e59f20f8 	ldr	r2, [pc, #248]	; c105450 <lcd_init+0x160>
 c105354:	e5832000 	str	r2, [r3]
 c105358:	e59f30f4 	ldr	r3, [pc, #244]	; c105454 <lcd_init+0x164>
 c10535c:	e59f20f4 	ldr	r2, [pc, #244]	; c105458 <lcd_init+0x168>
 c105360:	e5832000 	str	r2, [r3]
 c105364:	e59f30f0 	ldr	r3, [pc, #240]	; c10545c <lcd_init+0x16c>
 c105368:	e59f20f0 	ldr	r2, [pc, #240]	; c105460 <lcd_init+0x170>
 c10536c:	e5832000 	str	r2, [r3]
 c105370:	e59f30ec 	ldr	r3, [pc, #236]	; c105464 <lcd_init+0x174>
 c105374:	e59f20ec 	ldr	r2, [pc, #236]	; c105468 <lcd_init+0x178>
 c105378:	e5832000 	str	r2, [r3]
 c10537c:	e59f30e8 	ldr	r3, [pc, #232]	; c10546c <lcd_init+0x17c>
 c105380:	e59f20e8 	ldr	r2, [pc, #232]	; c105470 <lcd_init+0x180>
 c105384:	e5832000 	str	r2, [r3]
 c105388:	e59f30e4 	ldr	r3, [pc, #228]	; c105474 <lcd_init+0x184>
 c10538c:	e3a02000 	mov	r2, #0
 c105390:	e5832000 	str	r2, [r3]
 c105394:	e59f30dc 	ldr	r3, [pc, #220]	; c105478 <lcd_init+0x188>
 c105398:	e3a02000 	mov	r2, #0
 c10539c:	e5832000 	str	r2, [r3]
 c1053a0:	e59f30d4 	ldr	r3, [pc, #212]	; c10547c <lcd_init+0x18c>
 c1053a4:	e3a02000 	mov	r2, #0
 c1053a8:	e5832000 	str	r2, [r3]
 c1053ac:	e59f30cc 	ldr	r3, [pc, #204]	; c105480 <lcd_init+0x190>
 c1053b0:	e59f20cc 	ldr	r2, [pc, #204]	; c105484 <lcd_init+0x194>
 c1053b4:	e5832000 	str	r2, [r3]
 c1053b8:	e59f30c8 	ldr	r3, [pc, #200]	; c105488 <lcd_init+0x198>
 c1053bc:	e3a02000 	mov	r2, #0
 c1053c0:	e5832000 	str	r2, [r3]
 c1053c4:	e59f30c0 	ldr	r3, [pc, #192]	; c10548c <lcd_init+0x19c>
 c1053c8:	e59f20c0 	ldr	r2, [pc, #192]	; c105490 <lcd_init+0x1a0>
 c1053cc:	e1a020a2 	lsr	r2, r2, #1
 c1053d0:	e3822201 	orr	r2, r2, #268435456	; 0x10000000
 c1053d4:	e5832000 	str	r2, [r3]
 c1053d8:	e59f20b4 	ldr	r2, [pc, #180]	; c105494 <lcd_init+0x1a4>
 c1053dc:	e59f30ac 	ldr	r3, [pc, #172]	; c105490 <lcd_init+0x1a0>
 c1053e0:	e2833c96 	add	r3, r3, #38400	; 0x9600
 c1053e4:	e3c334ff 	bic	r3, r3, #-16777216	; 0xff000000
 c1053e8:	e3c33503 	bic	r3, r3, #12582912	; 0xc00000
 c1053ec:	e1a030a3 	lsr	r3, r3, #1
 c1053f0:	e3833202 	orr	r3, r3, #536870912	; 0x20000000
 c1053f4:	e5823000 	str	r3, [r2]
 c1053f8:	e59f3098 	ldr	r3, [pc, #152]	; c105498 <lcd_init+0x1a8>
 c1053fc:	e3a02050 	mov	r2, #80	; 0x50
 c105400:	e5832000 	str	r2, [r3]
 c105404:	e3a0361f 	mov	r3, #32505856	; 0x1f00000
 c105408:	e59f208c 	ldr	r2, [pc, #140]	; c10549c <lcd_init+0x1ac>
 c10540c:	e5832000 	str	r2, [r3]
 c105410:	eb000031 	bl	c1054dc <lcd_off>
 c105414:	e24bd00c 	sub	sp, fp, #12
 c105418:	e89d6800 	ldm	sp, {fp, sp, lr}
 c10541c:	e12fff1e 	bx	lr
 c105420:	01d2001c 	.word	0x01d2001c
 c105424:	0000aaaa 	.word	0x0000aaaa
 c105428:	01d20024 	.word	0x01d20024
 c10542c:	01f00044 	.word	0x01f00044
 c105430:	00012210 	.word	0x00012210
 c105434:	01f00020 	.word	0x01f00020
 c105438:	0000a5a5 	.word	0x0000a5a5
 c10543c:	01f00024 	.word	0x01f00024
 c105440:	0ba5da65 	.word	0x0ba5da65
 c105444:	01f00028 	.word	0x01f00028
 c105448:	000a5a5f 	.word	0x000a5a5f
 c10544c:	01f0002c 	.word	0x01f0002c
 c105450:	00000d6b 	.word	0x00000d6b
 c105454:	01f00030 	.word	0x01f00030
 c105458:	0eb7b5ed 	.word	0x0eb7b5ed
 c10545c:	01f00034 	.word	0x01f00034
 c105460:	00007dbe 	.word	0x00007dbe
 c105464:	01f00038 	.word	0x01f00038
 c105468:	0007ebdf 	.word	0x0007ebdf
 c10546c:	01f0003c 	.word	0x01f0003c
 c105470:	07fdfbfe 	.word	0x07fdfbfe
 c105474:	01f00014 	.word	0x01f00014
 c105478:	01f00018 	.word	0x01f00018
 c10547c:	01f0001c 	.word	0x01f0001c
 c105480:	01f00004 	.word	0x01f00004
 c105484:	00013cef 	.word	0x00013cef
 c105488:	01f00040 	.word	0x01f00040
 c10548c:	01f00008 	.word	0x01f00008
 c105490:	0c10e014 	.word	0x0c10e014
 c105494:	01f0000c 	.word	0x01f0000c
 c105498:	01f00010 	.word	0x01f00010
 c10549c:	0001c020 	.word	0x0001c020

0c1054a0 <lcd_on>:
 c1054a0:	e1a0c00d 	mov	ip, sp
 c1054a4:	e92dd800 	push	{fp, ip, lr, pc}
 c1054a8:	e24cb004 	sub	fp, ip, #4
 c1054ac:	e3a0361f 	mov	r3, #32505856	; 0x1f00000
 c1054b0:	e3a0261f 	mov	r2, #32505856	; 0x1f00000
 c1054b4:	e5922000 	ldr	r2, [r2]
 c1054b8:	e3822001 	orr	r2, r2, #1
 c1054bc:	e5832000 	str	r2, [r3]
 c1054c0:	e59f3010 	ldr	r3, [pc, #16]	; c1054d8 <lcd_on+0x38>
 c1054c4:	e3a02001 	mov	r2, #1
 c1054c8:	e5c32000 	strb	r2, [r3]
 c1054cc:	e24bd00c 	sub	sp, fp, #12
 c1054d0:	e89d6800 	ldm	sp, {fp, sp, lr}
 c1054d4:	e12fff1e 	bx	lr
 c1054d8:	0c117a28 	.word	0x0c117a28

0c1054dc <lcd_off>:
 c1054dc:	e1a0c00d 	mov	ip, sp
 c1054e0:	e92dd800 	push	{fp, ip, lr, pc}
 c1054e4:	e24cb004 	sub	fp, ip, #4
 c1054e8:	e3a0361f 	mov	r3, #32505856	; 0x1f00000
 c1054ec:	e3a0261f 	mov	r2, #32505856	; 0x1f00000
 c1054f0:	e5922000 	ldr	r2, [r2]
 c1054f4:	e3c22001 	bic	r2, r2, #1
 c1054f8:	e5832000 	str	r2, [r3]
 c1054fc:	e59f3010 	ldr	r3, [pc, #16]	; c105514 <lcd_off+0x38>
 c105500:	e3a02000 	mov	r2, #0
 c105504:	e5c32000 	strb	r2, [r3]
 c105508:	e24bd00c 	sub	sp, fp, #12
 c10550c:	e89d6800 	ldm	sp, {fp, sp, lr}
 c105510:	e12fff1e 	bx	lr
 c105514:	0c117a28 	.word	0x0c117a28

0c105518 <lcd_status>:
 c105518:	e1a0c00d 	mov	ip, sp
 c10551c:	e92dd800 	push	{fp, ip, lr, pc}
 c105520:	e24cb004 	sub	fp, ip, #4
 c105524:	e59f3010 	ldr	r3, [pc, #16]	; c10553c <lcd_status+0x24>
 c105528:	e5d33000 	ldrb	r3, [r3]
 c10552c:	e1a00003 	mov	r0, r3
 c105530:	e24bd00c 	sub	sp, fp, #12
 c105534:	e89d6800 	ldm	sp, {fp, sp, lr}
 c105538:	e12fff1e 	bx	lr
 c10553c:	0c117a28 	.word	0x0c117a28

0c105540 <lcd_clear>:
 c105540:	e1a0c00d 	mov	ip, sp
 c105544:	e92dd800 	push	{fp, ip, lr, pc}
 c105548:	e24cb004 	sub	fp, ip, #4
 c10554c:	e24dd008 	sub	sp, sp, #8
 c105550:	e3a03000 	mov	r3, #0
 c105554:	e50b3010 	str	r3, [fp, #-16]
 c105558:	ea000007 	b	c10557c <lcd_clear+0x3c>
 c10555c:	e59f2034 	ldr	r2, [pc, #52]	; c105598 <lcd_clear+0x58>
 c105560:	e51b3010 	ldr	r3, [fp, #-16]
 c105564:	e0823003 	add	r3, r2, r3
 c105568:	e3a02000 	mov	r2, #0
 c10556c:	e5c32000 	strb	r2, [r3]
 c105570:	e51b3010 	ldr	r3, [fp, #-16]
 c105574:	e2833001 	add	r3, r3, #1
 c105578:	e50b3010 	str	r3, [fp, #-16]
 c10557c:	e51b2010 	ldr	r2, [fp, #-16]
 c105580:	e59f3014 	ldr	r3, [pc, #20]	; c10559c <lcd_clear+0x5c>
 c105584:	e1520003 	cmp	r2, r3
 c105588:	9afffff3 	bls	c10555c <lcd_clear+0x1c>
 c10558c:	e24bd00c 	sub	sp, fp, #12
 c105590:	e89d6800 	ldm	sp, {fp, sp, lr}
 c105594:	e12fff1e 	bx	lr
 c105598:	0c10e014 	.word	0x0c10e014
 c10559c:	000095ff 	.word	0x000095ff

0c1055a0 <lcd_putpixel>:
 c1055a0:	e1a0c00d 	mov	ip, sp
 c1055a4:	e92dd800 	push	{fp, ip, lr, pc}
 c1055a8:	e24cb004 	sub	fp, ip, #4
 c1055ac:	e24dd010 	sub	sp, sp, #16
 c1055b0:	e1a03002 	mov	r3, r2
 c1055b4:	e14b01b6 	strh	r0, [fp, #-22]	; 0xffffffea
 c1055b8:	e14b11b8 	strh	r1, [fp, #-24]	; 0xffffffe8
 c1055bc:	e54b3019 	strb	r3, [fp, #-25]	; 0xffffffe7
 c1055c0:	e15b31b6 	ldrh	r3, [fp, #-22]	; 0xffffffea
 c1055c4:	e1a030a3 	lsr	r3, r3, #1
 c1055c8:	e1a03803 	lsl	r3, r3, #16
 c1055cc:	e1a02823 	lsr	r2, r3, #16
 c1055d0:	e15b31b8 	ldrh	r3, [fp, #-24]	; 0xffffffe8
 c1055d4:	e1a01003 	mov	r1, r3
 c1055d8:	e1a01101 	lsl	r1, r1, #2
 c1055dc:	e0813003 	add	r3, r1, r3
 c1055e0:	e1a03283 	lsl	r3, r3, #5
 c1055e4:	e1a03803 	lsl	r3, r3, #16
 c1055e8:	e1a03823 	lsr	r3, r3, #16
 c1055ec:	e0823003 	add	r3, r2, r3
 c1055f0:	e14b30be 	strh	r3, [fp, #-14]
 c1055f4:	e15b31b6 	ldrh	r3, [fp, #-22]	; 0xffffffea
 c1055f8:	e2033001 	and	r3, r3, #1
 c1055fc:	e3530000 	cmp	r3, #0
 c105600:	1a000001 	bne	c10560c <lcd_putpixel+0x6c>
 c105604:	e3a03004 	mov	r3, #4
 c105608:	ea000000 	b	c105610 <lcd_putpixel+0x70>
 c10560c:	e3a03000 	mov	r3, #0
 c105610:	e54b300f 	strb	r3, [fp, #-15]
 c105614:	e15b30be 	ldrh	r3, [fp, #-14]
 c105618:	e59f2068 	ldr	r2, [pc, #104]	; c105688 <lcd_putpixel+0xe8>
 c10561c:	e7d23003 	ldrb	r3, [r2, r3]
 c105620:	e54b3010 	strb	r3, [fp, #-16]
 c105624:	e55b300f 	ldrb	r3, [fp, #-15]
 c105628:	e3a0200f 	mov	r2, #15
 c10562c:	e1a03312 	lsl	r3, r2, r3
 c105630:	e20330ff 	and	r3, r3, #255	; 0xff
 c105634:	e1e03003 	mvn	r3, r3
 c105638:	e20320ff 	and	r2, r3, #255	; 0xff
 c10563c:	e55b3010 	ldrb	r3, [fp, #-16]
 c105640:	e0023003 	and	r3, r2, r3
 c105644:	e20330ff 	and	r3, r3, #255	; 0xff
 c105648:	e54b3010 	strb	r3, [fp, #-16]
 c10564c:	e55b2019 	ldrb	r2, [fp, #-25]	; 0xffffffe7
 c105650:	e55b300f 	ldrb	r3, [fp, #-15]
 c105654:	e1a03312 	lsl	r3, r2, r3
 c105658:	e20320ff 	and	r2, r3, #255	; 0xff
 c10565c:	e55b3010 	ldrb	r3, [fp, #-16]
 c105660:	e1823003 	orr	r3, r2, r3
 c105664:	e20330ff 	and	r3, r3, #255	; 0xff
 c105668:	e54b3010 	strb	r3, [fp, #-16]
 c10566c:	e15b30be 	ldrh	r3, [fp, #-14]
 c105670:	e59f2010 	ldr	r2, [pc, #16]	; c105688 <lcd_putpixel+0xe8>
 c105674:	e55b1010 	ldrb	r1, [fp, #-16]
 c105678:	e7c21003 	strb	r1, [r2, r3]
 c10567c:	e24bd00c 	sub	sp, fp, #12
 c105680:	e89d6800 	ldm	sp, {fp, sp, lr}
 c105684:	e12fff1e 	bx	lr
 c105688:	0c10e014 	.word	0x0c10e014

0c10568c <lcd_getpixel>:
 c10568c:	e1a0c00d 	mov	ip, sp
 c105690:	e92dd800 	push	{fp, ip, lr, pc}
 c105694:	e24cb004 	sub	fp, ip, #4
 c105698:	e24dd010 	sub	sp, sp, #16
 c10569c:	e1a02000 	mov	r2, r0
 c1056a0:	e1a03001 	mov	r3, r1
 c1056a4:	e14b21b6 	strh	r2, [fp, #-22]	; 0xffffffea
 c1056a8:	e14b31b8 	strh	r3, [fp, #-24]	; 0xffffffe8
 c1056ac:	e15b31b6 	ldrh	r3, [fp, #-22]	; 0xffffffea
 c1056b0:	e1a030a3 	lsr	r3, r3, #1
 c1056b4:	e1a03803 	lsl	r3, r3, #16
 c1056b8:	e1a03823 	lsr	r3, r3, #16
 c1056bc:	e1a01003 	mov	r1, r3
 c1056c0:	e15b21b8 	ldrh	r2, [fp, #-24]	; 0xffffffe8
 c1056c4:	e1a03002 	mov	r3, r2
 c1056c8:	e1a03103 	lsl	r3, r3, #2
 c1056cc:	e0833002 	add	r3, r3, r2
 c1056d0:	e1a03283 	lsl	r3, r3, #5
 c1056d4:	e0813003 	add	r3, r1, r3
 c1056d8:	e59f2044 	ldr	r2, [pc, #68]	; c105724 <lcd_getpixel+0x98>
 c1056dc:	e7d23003 	ldrb	r3, [r2, r3]
 c1056e0:	e54b300d 	strb	r3, [fp, #-13]
 c1056e4:	e55b200d 	ldrb	r2, [fp, #-13]
 c1056e8:	e15b31b6 	ldrh	r3, [fp, #-22]	; 0xffffffea
 c1056ec:	e2033001 	and	r3, r3, #1
 c1056f0:	e3530000 	cmp	r3, #0
 c1056f4:	1a000001 	bne	c105700 <lcd_getpixel+0x74>
 c1056f8:	e3a03004 	mov	r3, #4
 c1056fc:	ea000000 	b	c105704 <lcd_getpixel+0x78>
 c105700:	e3a03000 	mov	r3, #0
 c105704:	e1a03352 	asr	r3, r2, r3
 c105708:	e20330ff 	and	r3, r3, #255	; 0xff
 c10570c:	e203300f 	and	r3, r3, #15
 c105710:	e20330ff 	and	r3, r3, #255	; 0xff
 c105714:	e1a00003 	mov	r0, r3
 c105718:	e24bd00c 	sub	sp, fp, #12
 c10571c:	e89d6800 	ldm	sp, {fp, sp, lr}
 c105720:	e12fff1e 	bx	lr
 c105724:	0c10e014 	.word	0x0c10e014

0c105728 <lcd_draw_hline>:
 c105728:	e1a0c00d 	mov	ip, sp
 c10572c:	e92dd800 	push	{fp, ip, lr, pc}
 c105730:	e24cb004 	sub	fp, ip, #4
 c105734:	e24dd010 	sub	sp, sp, #16
 c105738:	e14b01b6 	strh	r0, [fp, #-22]	; 0xffffffea
 c10573c:	e14b11b8 	strh	r1, [fp, #-24]	; 0xffffffe8
 c105740:	e14b21ba 	strh	r2, [fp, #-26]	; 0xffffffe6
 c105744:	e54b301b 	strb	r3, [fp, #-27]	; 0xffffffe5
 c105748:	ea00003e 	b	c105848 <lcd_draw_hline+0x120>
 c10574c:	e15b31b6 	ldrh	r3, [fp, #-22]	; 0xffffffea
 c105750:	e14b30be 	strh	r3, [fp, #-14]
 c105754:	ea000034 	b	c10582c <lcd_draw_hline+0x104>
 c105758:	e15b30be 	ldrh	r3, [fp, #-14]
 c10575c:	e1a030a3 	lsr	r3, r3, #1
 c105760:	e1a03803 	lsl	r3, r3, #16
 c105764:	e1a03823 	lsr	r3, r3, #16
 c105768:	e1a01003 	mov	r1, r3
 c10576c:	e15b21ba 	ldrh	r2, [fp, #-26]	; 0xffffffe6
 c105770:	e1a03002 	mov	r3, r2
 c105774:	e1a03103 	lsl	r3, r3, #2
 c105778:	e0833002 	add	r3, r3, r2
 c10577c:	e1a03283 	lsl	r3, r3, #5
 c105780:	e0811003 	add	r1, r1, r3
 c105784:	e15b30be 	ldrh	r3, [fp, #-14]
 c105788:	e1a030a3 	lsr	r3, r3, #1
 c10578c:	e1a03803 	lsl	r3, r3, #16
 c105790:	e1a03823 	lsr	r3, r3, #16
 c105794:	e1a00003 	mov	r0, r3
 c105798:	e15b21ba 	ldrh	r2, [fp, #-26]	; 0xffffffe6
 c10579c:	e1a03002 	mov	r3, r2
 c1057a0:	e1a03103 	lsl	r3, r3, #2
 c1057a4:	e0833002 	add	r3, r3, r2
 c1057a8:	e1a03283 	lsl	r3, r3, #5
 c1057ac:	e0803003 	add	r3, r0, r3
 c1057b0:	e59f20c4 	ldr	r2, [pc, #196]	; c10587c <lcd_draw_hline+0x154>
 c1057b4:	e7d23003 	ldrb	r3, [r2, r3]
 c1057b8:	e20320ff 	and	r2, r3, #255	; 0xff
 c1057bc:	e15b30be 	ldrh	r3, [fp, #-14]
 c1057c0:	e2033001 	and	r3, r3, #1
 c1057c4:	e1a03103 	lsl	r3, r3, #2
 c1057c8:	e3a000f0 	mov	r0, #240	; 0xf0
 c1057cc:	e1a03350 	asr	r3, r0, r3
 c1057d0:	e20330ff 	and	r3, r3, #255	; 0xff
 c1057d4:	e1e03003 	mvn	r3, r3
 c1057d8:	e20330ff 	and	r3, r3, #255	; 0xff
 c1057dc:	e0023003 	and	r3, r2, r3
 c1057e0:	e20320ff 	and	r2, r3, #255	; 0xff
 c1057e4:	e55b001b 	ldrb	r0, [fp, #-27]	; 0xffffffe5
 c1057e8:	e15b30be 	ldrh	r3, [fp, #-14]
 c1057ec:	e2033001 	and	r3, r3, #1
 c1057f0:	e3530000 	cmp	r3, #0
 c1057f4:	1a000001 	bne	c105800 <lcd_draw_hline+0xd8>
 c1057f8:	e3a03004 	mov	r3, #4
 c1057fc:	ea000000 	b	c105804 <lcd_draw_hline+0xdc>
 c105800:	e3a03000 	mov	r3, #0
 c105804:	e1a03310 	lsl	r3, r0, r3
 c105808:	e20330ff 	and	r3, r3, #255	; 0xff
 c10580c:	e1823003 	orr	r3, r2, r3
 c105810:	e20330ff 	and	r3, r3, #255	; 0xff
 c105814:	e20320ff 	and	r2, r3, #255	; 0xff
 c105818:	e59f305c 	ldr	r3, [pc, #92]	; c10587c <lcd_draw_hline+0x154>
 c10581c:	e7c32001 	strb	r2, [r3, r1]
 c105820:	e15b30be 	ldrh	r3, [fp, #-14]
 c105824:	e2833001 	add	r3, r3, #1
 c105828:	e14b30be 	strh	r3, [fp, #-14]
 c10582c:	e15b20be 	ldrh	r2, [fp, #-14]
 c105830:	e15b31b8 	ldrh	r3, [fp, #-24]	; 0xffffffe8
 c105834:	e1520003 	cmp	r2, r3
 c105838:	9affffc6 	bls	c105758 <lcd_draw_hline+0x30>
 c10583c:	e15b31ba 	ldrh	r3, [fp, #-26]	; 0xffffffe6
 c105840:	e2833001 	add	r3, r3, #1
 c105844:	e14b31ba 	strh	r3, [fp, #-26]	; 0xffffffe6
 c105848:	e1db30b4 	ldrh	r3, [fp, #4]
 c10584c:	e3530000 	cmp	r3, #0
 c105850:	03a03000 	moveq	r3, #0
 c105854:	13a03001 	movne	r3, #1
 c105858:	e20330ff 	and	r3, r3, #255	; 0xff
 c10585c:	e1db20b4 	ldrh	r2, [fp, #4]
 c105860:	e2422001 	sub	r2, r2, #1
 c105864:	e1cb20b4 	strh	r2, [fp, #4]
 c105868:	e3530000 	cmp	r3, #0
 c10586c:	1affffb6 	bne	c10574c <lcd_draw_hline+0x24>
 c105870:	e24bd00c 	sub	sp, fp, #12
 c105874:	e89d6800 	ldm	sp, {fp, sp, lr}
 c105878:	e12fff1e 	bx	lr
 c10587c:	0c10e014 	.word	0x0c10e014

0c105880 <lcd_draw_vline>:
 c105880:	e1a0c00d 	mov	ip, sp
 c105884:	e92dd800 	push	{fp, ip, lr, pc}
 c105888:	e24cb004 	sub	fp, ip, #4
 c10588c:	e24dd010 	sub	sp, sp, #16
 c105890:	e14b01b6 	strh	r0, [fp, #-22]	; 0xffffffea
 c105894:	e14b11b8 	strh	r1, [fp, #-24]	; 0xffffffe8
 c105898:	e14b21ba 	strh	r2, [fp, #-26]	; 0xffffffe6
 c10589c:	e54b301b 	strb	r3, [fp, #-27]	; 0xffffffe5
 c1058a0:	ea00003e 	b	c1059a0 <lcd_draw_vline+0x120>
 c1058a4:	e15b31b6 	ldrh	r3, [fp, #-22]	; 0xffffffea
 c1058a8:	e14b30be 	strh	r3, [fp, #-14]
 c1058ac:	ea000034 	b	c105984 <lcd_draw_vline+0x104>
 c1058b0:	e15b31ba 	ldrh	r3, [fp, #-26]	; 0xffffffe6
 c1058b4:	e1a030a3 	lsr	r3, r3, #1
 c1058b8:	e1a03803 	lsl	r3, r3, #16
 c1058bc:	e1a03823 	lsr	r3, r3, #16
 c1058c0:	e1a01003 	mov	r1, r3
 c1058c4:	e15b20be 	ldrh	r2, [fp, #-14]
 c1058c8:	e1a03002 	mov	r3, r2
 c1058cc:	e1a03103 	lsl	r3, r3, #2
 c1058d0:	e0833002 	add	r3, r3, r2
 c1058d4:	e1a03283 	lsl	r3, r3, #5
 c1058d8:	e0811003 	add	r1, r1, r3
 c1058dc:	e15b31ba 	ldrh	r3, [fp, #-26]	; 0xffffffe6
 c1058e0:	e1a030a3 	lsr	r3, r3, #1
 c1058e4:	e1a03803 	lsl	r3, r3, #16
 c1058e8:	e1a03823 	lsr	r3, r3, #16
 c1058ec:	e1a00003 	mov	r0, r3
 c1058f0:	e15b20be 	ldrh	r2, [fp, #-14]
 c1058f4:	e1a03002 	mov	r3, r2
 c1058f8:	e1a03103 	lsl	r3, r3, #2
 c1058fc:	e0833002 	add	r3, r3, r2
 c105900:	e1a03283 	lsl	r3, r3, #5
 c105904:	e0803003 	add	r3, r0, r3
 c105908:	e59f20c4 	ldr	r2, [pc, #196]	; c1059d4 <lcd_draw_vline+0x154>
 c10590c:	e7d23003 	ldrb	r3, [r2, r3]
 c105910:	e20320ff 	and	r2, r3, #255	; 0xff
 c105914:	e15b31ba 	ldrh	r3, [fp, #-26]	; 0xffffffe6
 c105918:	e2033001 	and	r3, r3, #1
 c10591c:	e1a03103 	lsl	r3, r3, #2
 c105920:	e3a000f0 	mov	r0, #240	; 0xf0
 c105924:	e1a03350 	asr	r3, r0, r3
 c105928:	e20330ff 	and	r3, r3, #255	; 0xff
 c10592c:	e1e03003 	mvn	r3, r3
 c105930:	e20330ff 	and	r3, r3, #255	; 0xff
 c105934:	e0023003 	and	r3, r2, r3
 c105938:	e20320ff 	and	r2, r3, #255	; 0xff
 c10593c:	e55b001b 	ldrb	r0, [fp, #-27]	; 0xffffffe5
 c105940:	e15b31ba 	ldrh	r3, [fp, #-26]	; 0xffffffe6
 c105944:	e2033001 	and	r3, r3, #1
 c105948:	e3530000 	cmp	r3, #0
 c10594c:	1a000001 	bne	c105958 <lcd_draw_vline+0xd8>
 c105950:	e3a03004 	mov	r3, #4
 c105954:	ea000000 	b	c10595c <lcd_draw_vline+0xdc>
 c105958:	e3a03000 	mov	r3, #0
 c10595c:	e1a03310 	lsl	r3, r0, r3
 c105960:	e20330ff 	and	r3, r3, #255	; 0xff
 c105964:	e1823003 	orr	r3, r2, r3
 c105968:	e20330ff 	and	r3, r3, #255	; 0xff
 c10596c:	e20320ff 	and	r2, r3, #255	; 0xff
 c105970:	e59f305c 	ldr	r3, [pc, #92]	; c1059d4 <lcd_draw_vline+0x154>
 c105974:	e7c32001 	strb	r2, [r3, r1]
 c105978:	e15b30be 	ldrh	r3, [fp, #-14]
 c10597c:	e2833001 	add	r3, r3, #1
 c105980:	e14b30be 	strh	r3, [fp, #-14]
 c105984:	e15b20be 	ldrh	r2, [fp, #-14]
 c105988:	e15b31b8 	ldrh	r3, [fp, #-24]	; 0xffffffe8
 c10598c:	e1520003 	cmp	r2, r3
 c105990:	9affffc6 	bls	c1058b0 <lcd_draw_vline+0x30>
 c105994:	e15b31ba 	ldrh	r3, [fp, #-26]	; 0xffffffe6
 c105998:	e2833001 	add	r3, r3, #1
 c10599c:	e14b31ba 	strh	r3, [fp, #-26]	; 0xffffffe6
 c1059a0:	e1db30b4 	ldrh	r3, [fp, #4]
 c1059a4:	e3530000 	cmp	r3, #0
 c1059a8:	03a03000 	moveq	r3, #0
 c1059ac:	13a03001 	movne	r3, #1
 c1059b0:	e20330ff 	and	r3, r3, #255	; 0xff
 c1059b4:	e1db20b4 	ldrh	r2, [fp, #4]
 c1059b8:	e2422001 	sub	r2, r2, #1
 c1059bc:	e1cb20b4 	strh	r2, [fp, #4]
 c1059c0:	e3530000 	cmp	r3, #0
 c1059c4:	1affffb6 	bne	c1058a4 <lcd_draw_vline+0x24>
 c1059c8:	e24bd00c 	sub	sp, fp, #12
 c1059cc:	e89d6800 	ldm	sp, {fp, sp, lr}
 c1059d0:	e12fff1e 	bx	lr
 c1059d4:	0c10e014 	.word	0x0c10e014

0c1059d8 <lcd_draw_box>:
 c1059d8:	e1a0c00d 	mov	ip, sp
 c1059dc:	e92dd800 	push	{fp, ip, lr, pc}
 c1059e0:	e24cb004 	sub	fp, ip, #4
 c1059e4:	e24dd010 	sub	sp, sp, #16
 c1059e8:	e14b00be 	strh	r0, [fp, #-14]
 c1059ec:	e14b11b0 	strh	r1, [fp, #-16]
 c1059f0:	e14b21b2 	strh	r2, [fp, #-18]	; 0xffffffee
 c1059f4:	e14b31b4 	strh	r3, [fp, #-20]	; 0xffffffec
 c1059f8:	ea000027 	b	c105a9c <lcd_draw_box+0xc4>
 c1059fc:	e15b00be 	ldrh	r0, [fp, #-14]
 c105a00:	e15b11b2 	ldrh	r1, [fp, #-18]	; 0xffffffee
 c105a04:	e15b21b0 	ldrh	r2, [fp, #-16]
 c105a08:	e5db3004 	ldrb	r3, [fp, #4]
 c105a0c:	e3a0c001 	mov	ip, #1
 c105a10:	e58dc000 	str	ip, [sp]
 c105a14:	ebffff43 	bl	c105728 <lcd_draw_hline>
 c105a18:	e15b00be 	ldrh	r0, [fp, #-14]
 c105a1c:	e15b11b2 	ldrh	r1, [fp, #-18]	; 0xffffffee
 c105a20:	e15b21b4 	ldrh	r2, [fp, #-20]	; 0xffffffec
 c105a24:	e5db3004 	ldrb	r3, [fp, #4]
 c105a28:	e3a0c001 	mov	ip, #1
 c105a2c:	e58dc000 	str	ip, [sp]
 c105a30:	ebffff3c 	bl	c105728 <lcd_draw_hline>
 c105a34:	e15b01b0 	ldrh	r0, [fp, #-16]
 c105a38:	e15b11b4 	ldrh	r1, [fp, #-20]	; 0xffffffec
 c105a3c:	e15b20be 	ldrh	r2, [fp, #-14]
 c105a40:	e5db3004 	ldrb	r3, [fp, #4]
 c105a44:	e3a0c001 	mov	ip, #1
 c105a48:	e58dc000 	str	ip, [sp]
 c105a4c:	ebffff8b 	bl	c105880 <lcd_draw_vline>
 c105a50:	e15b01b0 	ldrh	r0, [fp, #-16]
 c105a54:	e15b11b4 	ldrh	r1, [fp, #-20]	; 0xffffffec
 c105a58:	e15b21b2 	ldrh	r2, [fp, #-18]	; 0xffffffee
 c105a5c:	e5db3004 	ldrb	r3, [fp, #4]
 c105a60:	e3a0c001 	mov	ip, #1
 c105a64:	e58dc000 	str	ip, [sp]
 c105a68:	ebffff84 	bl	c105880 <lcd_draw_vline>
 c105a6c:	e15b30be 	ldrh	r3, [fp, #-14]
 c105a70:	e2833001 	add	r3, r3, #1
 c105a74:	e14b30be 	strh	r3, [fp, #-14]
 c105a78:	e15b31b2 	ldrh	r3, [fp, #-18]	; 0xffffffee
 c105a7c:	e2433001 	sub	r3, r3, #1
 c105a80:	e14b31b2 	strh	r3, [fp, #-18]	; 0xffffffee
 c105a84:	e15b31b0 	ldrh	r3, [fp, #-16]
 c105a88:	e2833001 	add	r3, r3, #1
 c105a8c:	e14b31b0 	strh	r3, [fp, #-16]
 c105a90:	e15b31b4 	ldrh	r3, [fp, #-20]	; 0xffffffec
 c105a94:	e2433001 	sub	r3, r3, #1
 c105a98:	e14b31b4 	strh	r3, [fp, #-20]	; 0xffffffec
 c105a9c:	e1db30b8 	ldrh	r3, [fp, #8]
 c105aa0:	e3530000 	cmp	r3, #0
 c105aa4:	03a03000 	moveq	r3, #0
 c105aa8:	13a03001 	movne	r3, #1
 c105aac:	e20330ff 	and	r3, r3, #255	; 0xff
 c105ab0:	e1db20b8 	ldrh	r2, [fp, #8]
 c105ab4:	e2422001 	sub	r2, r2, #1
 c105ab8:	e1cb20b8 	strh	r2, [fp, #8]
 c105abc:	e3530000 	cmp	r3, #0
 c105ac0:	1affffcd 	bne	c1059fc <lcd_draw_box+0x24>
 c105ac4:	e24bd00c 	sub	sp, fp, #12
 c105ac8:	e89d6800 	ldm	sp, {fp, sp, lr}
 c105acc:	e12fff1e 	bx	lr

0c105ad0 <lcd_putchar>:
 c105ad0:	e1a0c00d 	mov	ip, sp
 c105ad4:	e92dd800 	push	{fp, ip, lr, pc}
 c105ad8:	e24cb004 	sub	fp, ip, #4
 c105adc:	e24dd010 	sub	sp, sp, #16
 c105ae0:	e14b01b6 	strh	r0, [fp, #-22]	; 0xffffffea
 c105ae4:	e14b11b8 	strh	r1, [fp, #-24]	; 0xffffffe8
 c105ae8:	e54b2019 	strb	r2, [fp, #-25]	; 0xffffffe7
 c105aec:	e54b301a 	strb	r3, [fp, #-26]	; 0xffffffe6
 c105af0:	e55b301a 	ldrb	r3, [fp, #-26]	; 0xffffffe6
 c105af4:	e1a03203 	lsl	r3, r3, #4
 c105af8:	e1a02003 	mov	r2, r3
 c105afc:	e59f3240 	ldr	r3, [pc, #576]	; c105d44 <lcd_putchar+0x274>
 c105b00:	e0823003 	add	r3, r2, r3
 c105b04:	e50b3014 	str	r3, [fp, #-20]	; 0xffffffec
 c105b08:	e3a03000 	mov	r3, #0
 c105b0c:	e54b300d 	strb	r3, [fp, #-13]
 c105b10:	ea000085 	b	c105d2c <lcd_putchar+0x25c>
 c105b14:	e3a03000 	mov	r3, #0
 c105b18:	e54b300e 	strb	r3, [fp, #-14]
 c105b1c:	ea00007c 	b	c105d14 <lcd_putchar+0x244>
 c105b20:	e55b300d 	ldrb	r3, [fp, #-13]
 c105b24:	e51b2014 	ldr	r2, [fp, #-20]	; 0xffffffec
 c105b28:	e0823003 	add	r3, r2, r3
 c105b2c:	e5d33000 	ldrb	r3, [r3]
 c105b30:	e1a02003 	mov	r2, r3
 c105b34:	e55b300e 	ldrb	r3, [fp, #-14]
 c105b38:	e3a01080 	mov	r1, #128	; 0x80
 c105b3c:	e1a03351 	asr	r3, r1, r3
 c105b40:	e0023003 	and	r3, r2, r3
 c105b44:	e3530000 	cmp	r3, #0
 c105b48:	0a00003e 	beq	c105c48 <lcd_putchar+0x178>
 c105b4c:	e15b21b6 	ldrh	r2, [fp, #-22]	; 0xffffffea
 c105b50:	e55b300e 	ldrb	r3, [fp, #-14]
 c105b54:	e0823003 	add	r3, r2, r3
 c105b58:	e1a02fa3 	lsr	r2, r3, #31
 c105b5c:	e0823003 	add	r3, r2, r3
 c105b60:	e1a030c3 	asr	r3, r3, #1
 c105b64:	e1a01003 	mov	r1, r3
 c105b68:	e15b21b8 	ldrh	r2, [fp, #-24]	; 0xffffffe8
 c105b6c:	e55b300d 	ldrb	r3, [fp, #-13]
 c105b70:	e0822003 	add	r2, r2, r3
 c105b74:	e1a03002 	mov	r3, r2
 c105b78:	e1a03103 	lsl	r3, r3, #2
 c105b7c:	e0833002 	add	r3, r3, r2
 c105b80:	e1a03283 	lsl	r3, r3, #5
 c105b84:	e0811003 	add	r1, r1, r3
 c105b88:	e15b21b6 	ldrh	r2, [fp, #-22]	; 0xffffffea
 c105b8c:	e55b300e 	ldrb	r3, [fp, #-14]
 c105b90:	e0823003 	add	r3, r2, r3
 c105b94:	e1a02fa3 	lsr	r2, r3, #31
 c105b98:	e0823003 	add	r3, r2, r3
 c105b9c:	e1a030c3 	asr	r3, r3, #1
 c105ba0:	e1a00003 	mov	r0, r3
 c105ba4:	e15b21b8 	ldrh	r2, [fp, #-24]	; 0xffffffe8
 c105ba8:	e55b300d 	ldrb	r3, [fp, #-13]
 c105bac:	e0822003 	add	r2, r2, r3
 c105bb0:	e1a03002 	mov	r3, r2
 c105bb4:	e1a03103 	lsl	r3, r3, #2
 c105bb8:	e0833002 	add	r3, r3, r2
 c105bbc:	e1a03283 	lsl	r3, r3, #5
 c105bc0:	e0803003 	add	r3, r0, r3
 c105bc4:	e59f217c 	ldr	r2, [pc, #380]	; c105d48 <lcd_putchar+0x278>
 c105bc8:	e7d23003 	ldrb	r3, [r2, r3]
 c105bcc:	e20320ff 	and	r2, r3, #255	; 0xff
 c105bd0:	e15b01b6 	ldrh	r0, [fp, #-22]	; 0xffffffea
 c105bd4:	e55b300e 	ldrb	r3, [fp, #-14]
 c105bd8:	e0803003 	add	r3, r0, r3
 c105bdc:	e2033001 	and	r3, r3, #1
 c105be0:	e1a03103 	lsl	r3, r3, #2
 c105be4:	e3a000f0 	mov	r0, #240	; 0xf0
 c105be8:	e1a03350 	asr	r3, r0, r3
 c105bec:	e20330ff 	and	r3, r3, #255	; 0xff
 c105bf0:	e1e03003 	mvn	r3, r3
 c105bf4:	e20330ff 	and	r3, r3, #255	; 0xff
 c105bf8:	e0023003 	and	r3, r2, r3
 c105bfc:	e20320ff 	and	r2, r3, #255	; 0xff
 c105c00:	e55b0019 	ldrb	r0, [fp, #-25]	; 0xffffffe7
 c105c04:	e15bc1b6 	ldrh	ip, [fp, #-22]	; 0xffffffea
 c105c08:	e55b300e 	ldrb	r3, [fp, #-14]
 c105c0c:	e08c3003 	add	r3, ip, r3
 c105c10:	e2033001 	and	r3, r3, #1
 c105c14:	e3530000 	cmp	r3, #0
 c105c18:	1a000001 	bne	c105c24 <lcd_putchar+0x154>
 c105c1c:	e3a03004 	mov	r3, #4
 c105c20:	ea000000 	b	c105c28 <lcd_putchar+0x158>
 c105c24:	e3a03000 	mov	r3, #0
 c105c28:	e1a03310 	lsl	r3, r0, r3
 c105c2c:	e20330ff 	and	r3, r3, #255	; 0xff
 c105c30:	e1823003 	orr	r3, r2, r3
 c105c34:	e20330ff 	and	r3, r3, #255	; 0xff
 c105c38:	e20320ff 	and	r2, r3, #255	; 0xff
 c105c3c:	e59f3104 	ldr	r3, [pc, #260]	; c105d48 <lcd_putchar+0x278>
 c105c40:	e7c32001 	strb	r2, [r3, r1]
 c105c44:	ea00002f 	b	c105d08 <lcd_putchar+0x238>
 c105c48:	e15b21b6 	ldrh	r2, [fp, #-22]	; 0xffffffea
 c105c4c:	e55b300e 	ldrb	r3, [fp, #-14]
 c105c50:	e0823003 	add	r3, r2, r3
 c105c54:	e1a02fa3 	lsr	r2, r3, #31
 c105c58:	e0823003 	add	r3, r2, r3
 c105c5c:	e1a030c3 	asr	r3, r3, #1
 c105c60:	e1a01003 	mov	r1, r3
 c105c64:	e15b21b8 	ldrh	r2, [fp, #-24]	; 0xffffffe8
 c105c68:	e55b300d 	ldrb	r3, [fp, #-13]
 c105c6c:	e0822003 	add	r2, r2, r3
 c105c70:	e1a03002 	mov	r3, r2
 c105c74:	e1a03103 	lsl	r3, r3, #2
 c105c78:	e0833002 	add	r3, r3, r2
 c105c7c:	e1a03283 	lsl	r3, r3, #5
 c105c80:	e0811003 	add	r1, r1, r3
 c105c84:	e15b21b6 	ldrh	r2, [fp, #-22]	; 0xffffffea
 c105c88:	e55b300e 	ldrb	r3, [fp, #-14]
 c105c8c:	e0823003 	add	r3, r2, r3
 c105c90:	e1a02fa3 	lsr	r2, r3, #31
 c105c94:	e0823003 	add	r3, r2, r3
 c105c98:	e1a030c3 	asr	r3, r3, #1
 c105c9c:	e1a00003 	mov	r0, r3
 c105ca0:	e15b21b8 	ldrh	r2, [fp, #-24]	; 0xffffffe8
 c105ca4:	e55b300d 	ldrb	r3, [fp, #-13]
 c105ca8:	e0822003 	add	r2, r2, r3
 c105cac:	e1a03002 	mov	r3, r2
 c105cb0:	e1a03103 	lsl	r3, r3, #2
 c105cb4:	e0833002 	add	r3, r3, r2
 c105cb8:	e1a03283 	lsl	r3, r3, #5
 c105cbc:	e0803003 	add	r3, r0, r3
 c105cc0:	e59f2080 	ldr	r2, [pc, #128]	; c105d48 <lcd_putchar+0x278>
 c105cc4:	e7d23003 	ldrb	r3, [r2, r3]
 c105cc8:	e20320ff 	and	r2, r3, #255	; 0xff
 c105ccc:	e15b01b6 	ldrh	r0, [fp, #-22]	; 0xffffffea
 c105cd0:	e55b300e 	ldrb	r3, [fp, #-14]
 c105cd4:	e0803003 	add	r3, r0, r3
 c105cd8:	e2033001 	and	r3, r3, #1
 c105cdc:	e1a03103 	lsl	r3, r3, #2
 c105ce0:	e3a000f0 	mov	r0, #240	; 0xf0
 c105ce4:	e1a03350 	asr	r3, r0, r3
 c105ce8:	e20330ff 	and	r3, r3, #255	; 0xff
 c105cec:	e1e03003 	mvn	r3, r3
 c105cf0:	e20330ff 	and	r3, r3, #255	; 0xff
 c105cf4:	e0023003 	and	r3, r2, r3
 c105cf8:	e20330ff 	and	r3, r3, #255	; 0xff
 c105cfc:	e20320ff 	and	r2, r3, #255	; 0xff
 c105d00:	e59f3040 	ldr	r3, [pc, #64]	; c105d48 <lcd_putchar+0x278>
 c105d04:	e7c32001 	strb	r2, [r3, r1]
 c105d08:	e55b300e 	ldrb	r3, [fp, #-14]
 c105d0c:	e2833001 	add	r3, r3, #1
 c105d10:	e54b300e 	strb	r3, [fp, #-14]
 c105d14:	e55b300e 	ldrb	r3, [fp, #-14]
 c105d18:	e3530007 	cmp	r3, #7
 c105d1c:	9affff7f 	bls	c105b20 <lcd_putchar+0x50>
 c105d20:	e55b300d 	ldrb	r3, [fp, #-13]
 c105d24:	e2833001 	add	r3, r3, #1
 c105d28:	e54b300d 	strb	r3, [fp, #-13]
 c105d2c:	e55b300d 	ldrb	r3, [fp, #-13]
 c105d30:	e353000f 	cmp	r3, #15
 c105d34:	9affff76 	bls	c105b14 <lcd_putchar+0x44>
 c105d38:	e24bd00c 	sub	sp, fp, #12
 c105d3c:	e89d6800 	ldm	sp, {fp, sp, lr}
 c105d40:	e12fff1e 	bx	lr
 c105d44:	0c10cff4 	.word	0x0c10cff4
 c105d48:	0c10e014 	.word	0x0c10e014

0c105d4c <lcd_puts>:
 c105d4c:	e1a0c00d 	mov	ip, sp
 c105d50:	e92dd800 	push	{fp, ip, lr, pc}
 c105d54:	e24cb004 	sub	fp, ip, #4
 c105d58:	e24dd010 	sub	sp, sp, #16
 c105d5c:	e50b3018 	str	r3, [fp, #-24]	; 0xffffffe8
 c105d60:	e14b00be 	strh	r0, [fp, #-14]
 c105d64:	e14b11b0 	strh	r1, [fp, #-16]
 c105d68:	e1a03002 	mov	r3, r2
 c105d6c:	e54b3011 	strb	r3, [fp, #-17]	; 0xffffffef
 c105d70:	ea00000b 	b	c105da4 <lcd_puts+0x58>
 c105d74:	e51b3018 	ldr	r3, [fp, #-24]	; 0xffffffe8
 c105d78:	e5d33000 	ldrb	r3, [r3]
 c105d7c:	e15b00be 	ldrh	r0, [fp, #-14]
 c105d80:	e15b11b0 	ldrh	r1, [fp, #-16]
 c105d84:	e55b2011 	ldrb	r2, [fp, #-17]	; 0xffffffef
 c105d88:	ebffff50 	bl	c105ad0 <lcd_putchar>
 c105d8c:	e51b3018 	ldr	r3, [fp, #-24]	; 0xffffffe8
 c105d90:	e2833001 	add	r3, r3, #1
 c105d94:	e50b3018 	str	r3, [fp, #-24]	; 0xffffffe8
 c105d98:	e15b30be 	ldrh	r3, [fp, #-14]
 c105d9c:	e2833008 	add	r3, r3, #8
 c105da0:	e14b30be 	strh	r3, [fp, #-14]
 c105da4:	e51b3018 	ldr	r3, [fp, #-24]	; 0xffffffe8
 c105da8:	e5d33000 	ldrb	r3, [r3]
 c105dac:	e3530000 	cmp	r3, #0
 c105db0:	1affffef 	bne	c105d74 <lcd_puts+0x28>
 c105db4:	e24bd00c 	sub	sp, fp, #12
 c105db8:	e89d6800 	ldm	sp, {fp, sp, lr}
 c105dbc:	e12fff1e 	bx	lr

0c105dc0 <lcd_putint>:
 c105dc0:	e1a0c00d 	mov	ip, sp
 c105dc4:	e92dd800 	push	{fp, ip, lr, pc}
 c105dc8:	e24cb004 	sub	fp, ip, #4
 c105dcc:	e24dd018 	sub	sp, sp, #24
 c105dd0:	e50b3020 	str	r3, [fp, #-32]	; 0xffffffe0
 c105dd4:	e14b01b6 	strh	r0, [fp, #-22]	; 0xffffffea
 c105dd8:	e14b11b8 	strh	r1, [fp, #-24]	; 0xffffffe8
 c105ddc:	e1a03002 	mov	r3, r2
 c105de0:	e54b3019 	strb	r3, [fp, #-25]	; 0xffffffe7
 c105de4:	e59f3148 	ldr	r3, [pc, #328]	; c105f34 <lcd_putint+0x174>
 c105de8:	e50b3010 	str	r3, [fp, #-16]
 c105dec:	e51b3010 	ldr	r3, [fp, #-16]
 c105df0:	e3a02000 	mov	r2, #0
 c105df4:	e5c32000 	strb	r2, [r3]
 c105df8:	e51b3020 	ldr	r3, [fp, #-32]	; 0xffffffe0
 c105dfc:	e3530000 	cmp	r3, #0
 c105e00:	ba00001d 	blt	c105e7c <lcd_putint+0xbc>
 c105e04:	e51b3010 	ldr	r3, [fp, #-16]
 c105e08:	e2433001 	sub	r3, r3, #1
 c105e0c:	e50b3010 	str	r3, [fp, #-16]
 c105e10:	e51b1020 	ldr	r1, [fp, #-32]	; 0xffffffe0
 c105e14:	e59f311c 	ldr	r3, [pc, #284]	; c105f38 <lcd_putint+0x178>
 c105e18:	e0c32391 	smull	r2, r3, r1, r3
 c105e1c:	e1a02143 	asr	r2, r3, #2
 c105e20:	e1a03fc1 	asr	r3, r1, #31
 c105e24:	e0632002 	rsb	r2, r3, r2
 c105e28:	e1a03002 	mov	r3, r2
 c105e2c:	e1a03103 	lsl	r3, r3, #2
 c105e30:	e0833002 	add	r3, r3, r2
 c105e34:	e1a03083 	lsl	r3, r3, #1
 c105e38:	e0632001 	rsb	r2, r3, r1
 c105e3c:	e20230ff 	and	r3, r2, #255	; 0xff
 c105e40:	e2833030 	add	r3, r3, #48	; 0x30
 c105e44:	e20320ff 	and	r2, r3, #255	; 0xff
 c105e48:	e51b3010 	ldr	r3, [fp, #-16]
 c105e4c:	e5c32000 	strb	r2, [r3]
 c105e50:	e51b3020 	ldr	r3, [fp, #-32]	; 0xffffffe0
 c105e54:	e59f20dc 	ldr	r2, [pc, #220]	; c105f38 <lcd_putint+0x178>
 c105e58:	e0c21293 	smull	r1, r2, r3, r2
 c105e5c:	e1a02142 	asr	r2, r2, #2
 c105e60:	e1a03fc3 	asr	r3, r3, #31
 c105e64:	e0633002 	rsb	r3, r3, r2
 c105e68:	e50b3020 	str	r3, [fp, #-32]	; 0xffffffe0
 c105e6c:	e51b3020 	ldr	r3, [fp, #-32]	; 0xffffffe0
 c105e70:	e3530000 	cmp	r3, #0
 c105e74:	1affffe2 	bne	c105e04 <lcd_putint+0x44>
 c105e78:	ea000022 	b	c105f08 <lcd_putint+0x148>
 c105e7c:	e51b3010 	ldr	r3, [fp, #-16]
 c105e80:	e2433001 	sub	r3, r3, #1
 c105e84:	e50b3010 	str	r3, [fp, #-16]
 c105e88:	e51b1020 	ldr	r1, [fp, #-32]	; 0xffffffe0
 c105e8c:	e59f30a4 	ldr	r3, [pc, #164]	; c105f38 <lcd_putint+0x178>
 c105e90:	e0c32391 	smull	r2, r3, r1, r3
 c105e94:	e1a02143 	asr	r2, r3, #2
 c105e98:	e1a03fc1 	asr	r3, r1, #31
 c105e9c:	e0632002 	rsb	r2, r3, r2
 c105ea0:	e1a03002 	mov	r3, r2
 c105ea4:	e1a03103 	lsl	r3, r3, #2
 c105ea8:	e0833002 	add	r3, r3, r2
 c105eac:	e1a03083 	lsl	r3, r3, #1
 c105eb0:	e0632001 	rsb	r2, r3, r1
 c105eb4:	e20230ff 	and	r3, r2, #255	; 0xff
 c105eb8:	e2633030 	rsb	r3, r3, #48	; 0x30
 c105ebc:	e20320ff 	and	r2, r3, #255	; 0xff
 c105ec0:	e51b3010 	ldr	r3, [fp, #-16]
 c105ec4:	e5c32000 	strb	r2, [r3]
 c105ec8:	e51b3020 	ldr	r3, [fp, #-32]	; 0xffffffe0
 c105ecc:	e59f2064 	ldr	r2, [pc, #100]	; c105f38 <lcd_putint+0x178>
 c105ed0:	e0c21293 	smull	r1, r2, r3, r2
 c105ed4:	e1a02142 	asr	r2, r2, #2
 c105ed8:	e1a03fc3 	asr	r3, r3, #31
 c105edc:	e0633002 	rsb	r3, r3, r2
 c105ee0:	e50b3020 	str	r3, [fp, #-32]	; 0xffffffe0
 c105ee4:	e51b3020 	ldr	r3, [fp, #-32]	; 0xffffffe0
 c105ee8:	e3530000 	cmp	r3, #0
 c105eec:	1affffe2 	bne	c105e7c <lcd_putint+0xbc>
 c105ef0:	e51b3010 	ldr	r3, [fp, #-16]
 c105ef4:	e2433001 	sub	r3, r3, #1
 c105ef8:	e50b3010 	str	r3, [fp, #-16]
 c105efc:	e51b3010 	ldr	r3, [fp, #-16]
 c105f00:	e3a0202d 	mov	r2, #45	; 0x2d
 c105f04:	e5c32000 	strb	r2, [r3]
 c105f08:	e15b11b6 	ldrh	r1, [fp, #-22]	; 0xffffffea
 c105f0c:	e15b21b8 	ldrh	r2, [fp, #-24]	; 0xffffffe8
 c105f10:	e55b3019 	ldrb	r3, [fp, #-25]	; 0xffffffe7
 c105f14:	e1a00001 	mov	r0, r1
 c105f18:	e1a01002 	mov	r1, r2
 c105f1c:	e1a02003 	mov	r2, r3
 c105f20:	e51b3010 	ldr	r3, [fp, #-16]
 c105f24:	ebffff88 	bl	c105d4c <lcd_puts>
 c105f28:	e24bd00c 	sub	sp, fp, #12
 c105f2c:	e89d6800 	ldm	sp, {fp, sp, lr}
 c105f30:	e12fff1e 	bx	lr
 c105f34:	0c117a5b 	.word	0x0c117a5b
 c105f38:	66666667 	.word	0x66666667

0c105f3c <lcd_puthex>:
 c105f3c:	e1a0c00d 	mov	ip, sp
 c105f40:	e92dd800 	push	{fp, ip, lr, pc}
 c105f44:	e24cb004 	sub	fp, ip, #4
 c105f48:	e24dd018 	sub	sp, sp, #24
 c105f4c:	e50b3020 	str	r3, [fp, #-32]	; 0xffffffe0
 c105f50:	e14b01b6 	strh	r0, [fp, #-22]	; 0xffffffea
 c105f54:	e14b11b8 	strh	r1, [fp, #-24]	; 0xffffffe8
 c105f58:	e1a03002 	mov	r3, r2
 c105f5c:	e54b3019 	strb	r3, [fp, #-25]	; 0xffffffe7
 c105f60:	e59f30b0 	ldr	r3, [pc, #176]	; c106018 <lcd_puthex+0xdc>
 c105f64:	e50b3010 	str	r3, [fp, #-16]
 c105f68:	e51b3010 	ldr	r3, [fp, #-16]
 c105f6c:	e3a02000 	mov	r2, #0
 c105f70:	e5c32000 	strb	r2, [r3]
 c105f74:	e51b3020 	ldr	r3, [fp, #-32]	; 0xffffffe0
 c105f78:	e20330ff 	and	r3, r3, #255	; 0xff
 c105f7c:	e203300f 	and	r3, r3, #15
 c105f80:	e54b3011 	strb	r3, [fp, #-17]	; 0xffffffef
 c105f84:	e55b3011 	ldrb	r3, [fp, #-17]	; 0xffffffef
 c105f88:	e3530009 	cmp	r3, #9
 c105f8c:	8a000008 	bhi	c105fb4 <lcd_puthex+0x78>
 c105f90:	e51b3010 	ldr	r3, [fp, #-16]
 c105f94:	e2433001 	sub	r3, r3, #1
 c105f98:	e50b3010 	str	r3, [fp, #-16]
 c105f9c:	e55b3011 	ldrb	r3, [fp, #-17]	; 0xffffffef
 c105fa0:	e2833030 	add	r3, r3, #48	; 0x30
 c105fa4:	e20320ff 	and	r2, r3, #255	; 0xff
 c105fa8:	e51b3010 	ldr	r3, [fp, #-16]
 c105fac:	e5c32000 	strb	r2, [r3]
 c105fb0:	ea000007 	b	c105fd4 <lcd_puthex+0x98>
 c105fb4:	e51b3010 	ldr	r3, [fp, #-16]
 c105fb8:	e2433001 	sub	r3, r3, #1
 c105fbc:	e50b3010 	str	r3, [fp, #-16]
 c105fc0:	e55b3011 	ldrb	r3, [fp, #-17]	; 0xffffffef
 c105fc4:	e2833057 	add	r3, r3, #87	; 0x57
 c105fc8:	e20320ff 	and	r2, r3, #255	; 0xff
 c105fcc:	e51b3010 	ldr	r3, [fp, #-16]
 c105fd0:	e5c32000 	strb	r2, [r3]
 c105fd4:	e51b3020 	ldr	r3, [fp, #-32]	; 0xffffffe0
 c105fd8:	e1a03223 	lsr	r3, r3, #4
 c105fdc:	e50b3020 	str	r3, [fp, #-32]	; 0xffffffe0
 c105fe0:	e51b3020 	ldr	r3, [fp, #-32]	; 0xffffffe0
 c105fe4:	e3530000 	cmp	r3, #0
 c105fe8:	1affffe1 	bne	c105f74 <lcd_puthex+0x38>
 c105fec:	e15b11b6 	ldrh	r1, [fp, #-22]	; 0xffffffea
 c105ff0:	e15b21b8 	ldrh	r2, [fp, #-24]	; 0xffffffe8
 c105ff4:	e55b3019 	ldrb	r3, [fp, #-25]	; 0xffffffe7
 c105ff8:	e1a00001 	mov	r0, r1
 c105ffc:	e1a01002 	mov	r1, r2
 c106000:	e1a02003 	mov	r2, r3
 c106004:	e51b3010 	ldr	r3, [fp, #-16]
 c106008:	ebffff4f 	bl	c105d4c <lcd_puts>
 c10600c:	e24bd00c 	sub	sp, fp, #12
 c106010:	e89d6800 	ldm	sp, {fp, sp, lr}
 c106014:	e12fff1e 	bx	lr
 c106018:	0c117a4c 	.word	0x0c117a4c

0c10601c <lcd_putchar_x2>:
 c10601c:	e1a0c00d 	mov	ip, sp
 c106020:	e92dd800 	push	{fp, ip, lr, pc}
 c106024:	e24cb004 	sub	fp, ip, #4
 c106028:	e24dd010 	sub	sp, sp, #16
 c10602c:	e14b01b6 	strh	r0, [fp, #-22]	; 0xffffffea
 c106030:	e14b11b8 	strh	r1, [fp, #-24]	; 0xffffffe8
 c106034:	e54b2019 	strb	r2, [fp, #-25]	; 0xffffffe7
 c106038:	e54b301a 	strb	r3, [fp, #-26]	; 0xffffffe6
 c10603c:	e55b301a 	ldrb	r3, [fp, #-26]	; 0xffffffe6
 c106040:	e1a03203 	lsl	r3, r3, #4
 c106044:	e1a02003 	mov	r2, r3
 c106048:	e59f3250 	ldr	r3, [pc, #592]	; c1062a0 <lcd_putchar_x2+0x284>
 c10604c:	e0823003 	add	r3, r2, r3
 c106050:	e50b3014 	str	r3, [fp, #-20]	; 0xffffffec
 c106054:	e3a03000 	mov	r3, #0
 c106058:	e54b300d 	strb	r3, [fp, #-13]
 c10605c:	ea000089 	b	c106288 <lcd_putchar_x2+0x26c>
 c106060:	e3a03000 	mov	r3, #0
 c106064:	e54b300e 	strb	r3, [fp, #-14]
 c106068:	ea000080 	b	c106270 <lcd_putchar_x2+0x254>
 c10606c:	e55b300d 	ldrb	r3, [fp, #-13]
 c106070:	e1a030a3 	lsr	r3, r3, #1
 c106074:	e20330ff 	and	r3, r3, #255	; 0xff
 c106078:	e51b2014 	ldr	r2, [fp, #-20]	; 0xffffffec
 c10607c:	e0823003 	add	r3, r2, r3
 c106080:	e5d33000 	ldrb	r3, [r3]
 c106084:	e1a02003 	mov	r2, r3
 c106088:	e55b300e 	ldrb	r3, [fp, #-14]
 c10608c:	e1a030a3 	lsr	r3, r3, #1
 c106090:	e20330ff 	and	r3, r3, #255	; 0xff
 c106094:	e3a01080 	mov	r1, #128	; 0x80
 c106098:	e1a03351 	asr	r3, r1, r3
 c10609c:	e0023003 	and	r3, r2, r3
 c1060a0:	e3530000 	cmp	r3, #0
 c1060a4:	0a00003e 	beq	c1061a4 <lcd_putchar_x2+0x188>
 c1060a8:	e15b21b6 	ldrh	r2, [fp, #-22]	; 0xffffffea
 c1060ac:	e55b300e 	ldrb	r3, [fp, #-14]
 c1060b0:	e0823003 	add	r3, r2, r3
 c1060b4:	e1a02fa3 	lsr	r2, r3, #31
 c1060b8:	e0823003 	add	r3, r2, r3
 c1060bc:	e1a030c3 	asr	r3, r3, #1
 c1060c0:	e1a01003 	mov	r1, r3
 c1060c4:	e15b21b8 	ldrh	r2, [fp, #-24]	; 0xffffffe8
 c1060c8:	e55b300d 	ldrb	r3, [fp, #-13]
 c1060cc:	e0822003 	add	r2, r2, r3
 c1060d0:	e1a03002 	mov	r3, r2
 c1060d4:	e1a03103 	lsl	r3, r3, #2
 c1060d8:	e0833002 	add	r3, r3, r2
 c1060dc:	e1a03283 	lsl	r3, r3, #5
 c1060e0:	e0811003 	add	r1, r1, r3
 c1060e4:	e15b21b6 	ldrh	r2, [fp, #-22]	; 0xffffffea
 c1060e8:	e55b300e 	ldrb	r3, [fp, #-14]
 c1060ec:	e0823003 	add	r3, r2, r3
 c1060f0:	e1a02fa3 	lsr	r2, r3, #31
 c1060f4:	e0823003 	add	r3, r2, r3
 c1060f8:	e1a030c3 	asr	r3, r3, #1
 c1060fc:	e1a00003 	mov	r0, r3
 c106100:	e15b21b8 	ldrh	r2, [fp, #-24]	; 0xffffffe8
 c106104:	e55b300d 	ldrb	r3, [fp, #-13]
 c106108:	e0822003 	add	r2, r2, r3
 c10610c:	e1a03002 	mov	r3, r2
 c106110:	e1a03103 	lsl	r3, r3, #2
 c106114:	e0833002 	add	r3, r3, r2
 c106118:	e1a03283 	lsl	r3, r3, #5
 c10611c:	e0803003 	add	r3, r0, r3
 c106120:	e59f217c 	ldr	r2, [pc, #380]	; c1062a4 <lcd_putchar_x2+0x288>
 c106124:	e7d23003 	ldrb	r3, [r2, r3]
 c106128:	e20320ff 	and	r2, r3, #255	; 0xff
 c10612c:	e15b01b6 	ldrh	r0, [fp, #-22]	; 0xffffffea
 c106130:	e55b300e 	ldrb	r3, [fp, #-14]
 c106134:	e0803003 	add	r3, r0, r3
 c106138:	e2033001 	and	r3, r3, #1
 c10613c:	e1a03103 	lsl	r3, r3, #2
 c106140:	e3a000f0 	mov	r0, #240	; 0xf0
 c106144:	e1a03350 	asr	r3, r0, r3
 c106148:	e20330ff 	and	r3, r3, #255	; 0xff
 c10614c:	e1e03003 	mvn	r3, r3
 c106150:	e20330ff 	and	r3, r3, #255	; 0xff
 c106154:	e0023003 	and	r3, r2, r3
 c106158:	e20320ff 	and	r2, r3, #255	; 0xff
 c10615c:	e55b0019 	ldrb	r0, [fp, #-25]	; 0xffffffe7
 c106160:	e15bc1b6 	ldrh	ip, [fp, #-22]	; 0xffffffea
 c106164:	e55b300e 	ldrb	r3, [fp, #-14]
 c106168:	e08c3003 	add	r3, ip, r3
 c10616c:	e2033001 	and	r3, r3, #1
 c106170:	e3530000 	cmp	r3, #0
 c106174:	1a000001 	bne	c106180 <lcd_putchar_x2+0x164>
 c106178:	e3a03004 	mov	r3, #4
 c10617c:	ea000000 	b	c106184 <lcd_putchar_x2+0x168>
 c106180:	e3a03000 	mov	r3, #0
 c106184:	e1a03310 	lsl	r3, r0, r3
 c106188:	e20330ff 	and	r3, r3, #255	; 0xff
 c10618c:	e1823003 	orr	r3, r2, r3
 c106190:	e20330ff 	and	r3, r3, #255	; 0xff
 c106194:	e20320ff 	and	r2, r3, #255	; 0xff
 c106198:	e59f3104 	ldr	r3, [pc, #260]	; c1062a4 <lcd_putchar_x2+0x288>
 c10619c:	e7c32001 	strb	r2, [r3, r1]
 c1061a0:	ea00002f 	b	c106264 <lcd_putchar_x2+0x248>
 c1061a4:	e15b21b6 	ldrh	r2, [fp, #-22]	; 0xffffffea
 c1061a8:	e55b300e 	ldrb	r3, [fp, #-14]
 c1061ac:	e0823003 	add	r3, r2, r3
 c1061b0:	e1a02fa3 	lsr	r2, r3, #31
 c1061b4:	e0823003 	add	r3, r2, r3
 c1061b8:	e1a030c3 	asr	r3, r3, #1
 c1061bc:	e1a01003 	mov	r1, r3
 c1061c0:	e15b21b8 	ldrh	r2, [fp, #-24]	; 0xffffffe8
 c1061c4:	e55b300d 	ldrb	r3, [fp, #-13]
 c1061c8:	e0822003 	add	r2, r2, r3
 c1061cc:	e1a03002 	mov	r3, r2
 c1061d0:	e1a03103 	lsl	r3, r3, #2
 c1061d4:	e0833002 	add	r3, r3, r2
 c1061d8:	e1a03283 	lsl	r3, r3, #5
 c1061dc:	e0811003 	add	r1, r1, r3
 c1061e0:	e15b21b6 	ldrh	r2, [fp, #-22]	; 0xffffffea
 c1061e4:	e55b300e 	ldrb	r3, [fp, #-14]
 c1061e8:	e0823003 	add	r3, r2, r3
 c1061ec:	e1a02fa3 	lsr	r2, r3, #31
 c1061f0:	e0823003 	add	r3, r2, r3
 c1061f4:	e1a030c3 	asr	r3, r3, #1
 c1061f8:	e1a00003 	mov	r0, r3
 c1061fc:	e15b21b8 	ldrh	r2, [fp, #-24]	; 0xffffffe8
 c106200:	e55b300d 	ldrb	r3, [fp, #-13]
 c106204:	e0822003 	add	r2, r2, r3
 c106208:	e1a03002 	mov	r3, r2
 c10620c:	e1a03103 	lsl	r3, r3, #2
 c106210:	e0833002 	add	r3, r3, r2
 c106214:	e1a03283 	lsl	r3, r3, #5
 c106218:	e0803003 	add	r3, r0, r3
 c10621c:	e59f2080 	ldr	r2, [pc, #128]	; c1062a4 <lcd_putchar_x2+0x288>
 c106220:	e7d23003 	ldrb	r3, [r2, r3]
 c106224:	e20320ff 	and	r2, r3, #255	; 0xff
 c106228:	e15b01b6 	ldrh	r0, [fp, #-22]	; 0xffffffea
 c10622c:	e55b300e 	ldrb	r3, [fp, #-14]
 c106230:	e0803003 	add	r3, r0, r3
 c106234:	e2033001 	and	r3, r3, #1
 c106238:	e1a03103 	lsl	r3, r3, #2
 c10623c:	e3a000f0 	mov	r0, #240	; 0xf0
 c106240:	e1a03350 	asr	r3, r0, r3
 c106244:	e20330ff 	and	r3, r3, #255	; 0xff
 c106248:	e1e03003 	mvn	r3, r3
 c10624c:	e20330ff 	and	r3, r3, #255	; 0xff
 c106250:	e0023003 	and	r3, r2, r3
 c106254:	e20330ff 	and	r3, r3, #255	; 0xff
 c106258:	e20320ff 	and	r2, r3, #255	; 0xff
 c10625c:	e59f3040 	ldr	r3, [pc, #64]	; c1062a4 <lcd_putchar_x2+0x288>
 c106260:	e7c32001 	strb	r2, [r3, r1]
 c106264:	e55b300e 	ldrb	r3, [fp, #-14]
 c106268:	e2833001 	add	r3, r3, #1
 c10626c:	e54b300e 	strb	r3, [fp, #-14]
 c106270:	e55b300e 	ldrb	r3, [fp, #-14]
 c106274:	e353000f 	cmp	r3, #15
 c106278:	9affff7b 	bls	c10606c <lcd_putchar_x2+0x50>
 c10627c:	e55b300d 	ldrb	r3, [fp, #-13]
 c106280:	e2833001 	add	r3, r3, #1
 c106284:	e54b300d 	strb	r3, [fp, #-13]
 c106288:	e55b300d 	ldrb	r3, [fp, #-13]
 c10628c:	e353001f 	cmp	r3, #31
 c106290:	9affff72 	bls	c106060 <lcd_putchar_x2+0x44>
 c106294:	e24bd00c 	sub	sp, fp, #12
 c106298:	e89d6800 	ldm	sp, {fp, sp, lr}
 c10629c:	e12fff1e 	bx	lr
 c1062a0:	0c10cff4 	.word	0x0c10cff4
 c1062a4:	0c10e014 	.word	0x0c10e014

0c1062a8 <lcd_puts_x2>:
 c1062a8:	e1a0c00d 	mov	ip, sp
 c1062ac:	e92dd800 	push	{fp, ip, lr, pc}
 c1062b0:	e24cb004 	sub	fp, ip, #4
 c1062b4:	e24dd010 	sub	sp, sp, #16
 c1062b8:	e50b3018 	str	r3, [fp, #-24]	; 0xffffffe8
 c1062bc:	e14b00be 	strh	r0, [fp, #-14]
 c1062c0:	e14b11b0 	strh	r1, [fp, #-16]
 c1062c4:	e1a03002 	mov	r3, r2
 c1062c8:	e54b3011 	strb	r3, [fp, #-17]	; 0xffffffef
 c1062cc:	ea00000b 	b	c106300 <lcd_puts_x2+0x58>
 c1062d0:	e51b3018 	ldr	r3, [fp, #-24]	; 0xffffffe8
 c1062d4:	e5d33000 	ldrb	r3, [r3]
 c1062d8:	e15b00be 	ldrh	r0, [fp, #-14]
 c1062dc:	e15b11b0 	ldrh	r1, [fp, #-16]
 c1062e0:	e55b2011 	ldrb	r2, [fp, #-17]	; 0xffffffef
 c1062e4:	ebffff4c 	bl	c10601c <lcd_putchar_x2>
 c1062e8:	e51b3018 	ldr	r3, [fp, #-24]	; 0xffffffe8
 c1062ec:	e2833001 	add	r3, r3, #1
 c1062f0:	e50b3018 	str	r3, [fp, #-24]	; 0xffffffe8
 c1062f4:	e15b30be 	ldrh	r3, [fp, #-14]
 c1062f8:	e2833010 	add	r3, r3, #16
 c1062fc:	e14b30be 	strh	r3, [fp, #-14]
 c106300:	e51b3018 	ldr	r3, [fp, #-24]	; 0xffffffe8
 c106304:	e5d33000 	ldrb	r3, [r3]
 c106308:	e3530000 	cmp	r3, #0
 c10630c:	1affffef 	bne	c1062d0 <lcd_puts_x2+0x28>
 c106310:	e24bd00c 	sub	sp, fp, #12
 c106314:	e89d6800 	ldm	sp, {fp, sp, lr}
 c106318:	e12fff1e 	bx	lr

0c10631c <lcd_putint_x2>:
 c10631c:	e1a0c00d 	mov	ip, sp
 c106320:	e92dd800 	push	{fp, ip, lr, pc}
 c106324:	e24cb004 	sub	fp, ip, #4
 c106328:	e24dd018 	sub	sp, sp, #24
 c10632c:	e50b3020 	str	r3, [fp, #-32]	; 0xffffffe0
 c106330:	e14b01b6 	strh	r0, [fp, #-22]	; 0xffffffea
 c106334:	e14b11b8 	strh	r1, [fp, #-24]	; 0xffffffe8
 c106338:	e1a03002 	mov	r3, r2
 c10633c:	e54b3019 	strb	r3, [fp, #-25]	; 0xffffffe7
 c106340:	e59f3148 	ldr	r3, [pc, #328]	; c106490 <lcd_putint_x2+0x174>
 c106344:	e50b3010 	str	r3, [fp, #-16]
 c106348:	e51b3010 	ldr	r3, [fp, #-16]
 c10634c:	e3a02000 	mov	r2, #0
 c106350:	e5c32000 	strb	r2, [r3]
 c106354:	e51b3020 	ldr	r3, [fp, #-32]	; 0xffffffe0
 c106358:	e3530000 	cmp	r3, #0
 c10635c:	ba00001d 	blt	c1063d8 <lcd_putint_x2+0xbc>
 c106360:	e51b3010 	ldr	r3, [fp, #-16]
 c106364:	e2433001 	sub	r3, r3, #1
 c106368:	e50b3010 	str	r3, [fp, #-16]
 c10636c:	e51b1020 	ldr	r1, [fp, #-32]	; 0xffffffe0
 c106370:	e59f311c 	ldr	r3, [pc, #284]	; c106494 <lcd_putint_x2+0x178>
 c106374:	e0c32391 	smull	r2, r3, r1, r3
 c106378:	e1a02143 	asr	r2, r3, #2
 c10637c:	e1a03fc1 	asr	r3, r1, #31
 c106380:	e0632002 	rsb	r2, r3, r2
 c106384:	e1a03002 	mov	r3, r2
 c106388:	e1a03103 	lsl	r3, r3, #2
 c10638c:	e0833002 	add	r3, r3, r2
 c106390:	e1a03083 	lsl	r3, r3, #1
 c106394:	e0632001 	rsb	r2, r3, r1
 c106398:	e20230ff 	and	r3, r2, #255	; 0xff
 c10639c:	e2833030 	add	r3, r3, #48	; 0x30
 c1063a0:	e20320ff 	and	r2, r3, #255	; 0xff
 c1063a4:	e51b3010 	ldr	r3, [fp, #-16]
 c1063a8:	e5c32000 	strb	r2, [r3]
 c1063ac:	e51b3020 	ldr	r3, [fp, #-32]	; 0xffffffe0
 c1063b0:	e59f20dc 	ldr	r2, [pc, #220]	; c106494 <lcd_putint_x2+0x178>
 c1063b4:	e0c21293 	smull	r1, r2, r3, r2
 c1063b8:	e1a02142 	asr	r2, r2, #2
 c1063bc:	e1a03fc3 	asr	r3, r3, #31
 c1063c0:	e0633002 	rsb	r3, r3, r2
 c1063c4:	e50b3020 	str	r3, [fp, #-32]	; 0xffffffe0
 c1063c8:	e51b3020 	ldr	r3, [fp, #-32]	; 0xffffffe0
 c1063cc:	e3530000 	cmp	r3, #0
 c1063d0:	1affffe2 	bne	c106360 <lcd_putint_x2+0x44>
 c1063d4:	ea000022 	b	c106464 <lcd_putint_x2+0x148>
 c1063d8:	e51b3010 	ldr	r3, [fp, #-16]
 c1063dc:	e2433001 	sub	r3, r3, #1
 c1063e0:	e50b3010 	str	r3, [fp, #-16]
 c1063e4:	e51b1020 	ldr	r1, [fp, #-32]	; 0xffffffe0
 c1063e8:	e59f30a4 	ldr	r3, [pc, #164]	; c106494 <lcd_putint_x2+0x178>
 c1063ec:	e0c32391 	smull	r2, r3, r1, r3
 c1063f0:	e1a02143 	asr	r2, r3, #2
 c1063f4:	e1a03fc1 	asr	r3, r1, #31
 c1063f8:	e0632002 	rsb	r2, r3, r2
 c1063fc:	e1a03002 	mov	r3, r2
 c106400:	e1a03103 	lsl	r3, r3, #2
 c106404:	e0833002 	add	r3, r3, r2
 c106408:	e1a03083 	lsl	r3, r3, #1
 c10640c:	e0632001 	rsb	r2, r3, r1
 c106410:	e20230ff 	and	r3, r2, #255	; 0xff
 c106414:	e2633030 	rsb	r3, r3, #48	; 0x30
 c106418:	e20320ff 	and	r2, r3, #255	; 0xff
 c10641c:	e51b3010 	ldr	r3, [fp, #-16]
 c106420:	e5c32000 	strb	r2, [r3]
 c106424:	e51b3020 	ldr	r3, [fp, #-32]	; 0xffffffe0
 c106428:	e59f2064 	ldr	r2, [pc, #100]	; c106494 <lcd_putint_x2+0x178>
 c10642c:	e0c21293 	smull	r1, r2, r3, r2
 c106430:	e1a02142 	asr	r2, r2, #2
 c106434:	e1a03fc3 	asr	r3, r3, #31
 c106438:	e0633002 	rsb	r3, r3, r2
 c10643c:	e50b3020 	str	r3, [fp, #-32]	; 0xffffffe0
 c106440:	e51b3020 	ldr	r3, [fp, #-32]	; 0xffffffe0
 c106444:	e3530000 	cmp	r3, #0
 c106448:	1affffe2 	bne	c1063d8 <lcd_putint_x2+0xbc>
 c10644c:	e51b3010 	ldr	r3, [fp, #-16]
 c106450:	e2433001 	sub	r3, r3, #1
 c106454:	e50b3010 	str	r3, [fp, #-16]
 c106458:	e51b3010 	ldr	r3, [fp, #-16]
 c10645c:	e3a0202d 	mov	r2, #45	; 0x2d
 c106460:	e5c32000 	strb	r2, [r3]
 c106464:	e15b11b6 	ldrh	r1, [fp, #-22]	; 0xffffffea
 c106468:	e15b21b8 	ldrh	r2, [fp, #-24]	; 0xffffffe8
 c10646c:	e55b3019 	ldrb	r3, [fp, #-25]	; 0xffffffe7
 c106470:	e1a00001 	mov	r0, r1
 c106474:	e1a01002 	mov	r1, r2
 c106478:	e1a02003 	mov	r2, r3
 c10647c:	e51b3010 	ldr	r3, [fp, #-16]
 c106480:	ebffff88 	bl	c1062a8 <lcd_puts_x2>
 c106484:	e24bd00c 	sub	sp, fp, #12
 c106488:	e89d6800 	ldm	sp, {fp, sp, lr}
 c10648c:	e12fff1e 	bx	lr
 c106490:	0c117a43 	.word	0x0c117a43
 c106494:	66666667 	.word	0x66666667

0c106498 <lcd_puthex_x2>:
 c106498:	e1a0c00d 	mov	ip, sp
 c10649c:	e92dd800 	push	{fp, ip, lr, pc}
 c1064a0:	e24cb004 	sub	fp, ip, #4
 c1064a4:	e24dd018 	sub	sp, sp, #24
 c1064a8:	e50b3020 	str	r3, [fp, #-32]	; 0xffffffe0
 c1064ac:	e14b01b6 	strh	r0, [fp, #-22]	; 0xffffffea
 c1064b0:	e14b11b8 	strh	r1, [fp, #-24]	; 0xffffffe8
 c1064b4:	e1a03002 	mov	r3, r2
 c1064b8:	e54b3019 	strb	r3, [fp, #-25]	; 0xffffffe7
 c1064bc:	e59f30b0 	ldr	r3, [pc, #176]	; c106574 <lcd_puthex_x2+0xdc>
 c1064c0:	e50b3010 	str	r3, [fp, #-16]
 c1064c4:	e51b3010 	ldr	r3, [fp, #-16]
 c1064c8:	e3a02000 	mov	r2, #0
 c1064cc:	e5c32000 	strb	r2, [r3]
 c1064d0:	e51b3020 	ldr	r3, [fp, #-32]	; 0xffffffe0
 c1064d4:	e20330ff 	and	r3, r3, #255	; 0xff
 c1064d8:	e203300f 	and	r3, r3, #15
 c1064dc:	e54b3011 	strb	r3, [fp, #-17]	; 0xffffffef
 c1064e0:	e55b3011 	ldrb	r3, [fp, #-17]	; 0xffffffef
 c1064e4:	e3530009 	cmp	r3, #9
 c1064e8:	8a000008 	bhi	c106510 <lcd_puthex_x2+0x78>
 c1064ec:	e51b3010 	ldr	r3, [fp, #-16]
 c1064f0:	e2433001 	sub	r3, r3, #1
 c1064f4:	e50b3010 	str	r3, [fp, #-16]
 c1064f8:	e55b3011 	ldrb	r3, [fp, #-17]	; 0xffffffef
 c1064fc:	e2833030 	add	r3, r3, #48	; 0x30
 c106500:	e20320ff 	and	r2, r3, #255	; 0xff
 c106504:	e51b3010 	ldr	r3, [fp, #-16]
 c106508:	e5c32000 	strb	r2, [r3]
 c10650c:	ea000007 	b	c106530 <lcd_puthex_x2+0x98>
 c106510:	e51b3010 	ldr	r3, [fp, #-16]
 c106514:	e2433001 	sub	r3, r3, #1
 c106518:	e50b3010 	str	r3, [fp, #-16]
 c10651c:	e55b3011 	ldrb	r3, [fp, #-17]	; 0xffffffef
 c106520:	e2833057 	add	r3, r3, #87	; 0x57
 c106524:	e20320ff 	and	r2, r3, #255	; 0xff
 c106528:	e51b3010 	ldr	r3, [fp, #-16]
 c10652c:	e5c32000 	strb	r2, [r3]
 c106530:	e51b3020 	ldr	r3, [fp, #-32]	; 0xffffffe0
 c106534:	e1a03223 	lsr	r3, r3, #4
 c106538:	e50b3020 	str	r3, [fp, #-32]	; 0xffffffe0
 c10653c:	e51b3020 	ldr	r3, [fp, #-32]	; 0xffffffe0
 c106540:	e3530000 	cmp	r3, #0
 c106544:	1affffe1 	bne	c1064d0 <lcd_puthex_x2+0x38>
 c106548:	e15b11b6 	ldrh	r1, [fp, #-22]	; 0xffffffea
 c10654c:	e15b21b8 	ldrh	r2, [fp, #-24]	; 0xffffffe8
 c106550:	e55b3019 	ldrb	r3, [fp, #-25]	; 0xffffffe7
 c106554:	e1a00001 	mov	r0, r1
 c106558:	e1a01002 	mov	r1, r2
 c10655c:	e1a02003 	mov	r2, r3
 c106560:	e51b3010 	ldr	r3, [fp, #-16]
 c106564:	ebffff4f 	bl	c1062a8 <lcd_puts_x2>
 c106568:	e24bd00c 	sub	sp, fp, #12
 c10656c:	e89d6800 	ldm	sp, {fp, sp, lr}
 c106570:	e12fff1e 	bx	lr
 c106574:	0c117a34 	.word	0x0c117a34

0c106578 <lcd_putWallpaper>:
 c106578:	e1a0c00d 	mov	ip, sp
 c10657c:	e92dd800 	push	{fp, ip, lr, pc}
 c106580:	e24cb004 	sub	fp, ip, #4
 c106584:	e24dd018 	sub	sp, sp, #24
 c106588:	e50b0020 	str	r0, [fp, #-32]	; 0xffffffe0
 c10658c:	e51b3020 	ldr	r3, [fp, #-32]	; 0xffffffe0
 c106590:	e283300a 	add	r3, r3, #10
 c106594:	e5d33000 	ldrb	r3, [r3]
 c106598:	e1a02003 	mov	r2, r3
 c10659c:	e51b3020 	ldr	r3, [fp, #-32]	; 0xffffffe0
 c1065a0:	e283300b 	add	r3, r3, #11
 c1065a4:	e5d33000 	ldrb	r3, [r3]
 c1065a8:	e1a03403 	lsl	r3, r3, #8
 c1065ac:	e0822003 	add	r2, r2, r3
 c1065b0:	e51b3020 	ldr	r3, [fp, #-32]	; 0xffffffe0
 c1065b4:	e283300c 	add	r3, r3, #12
 c1065b8:	e5d33000 	ldrb	r3, [r3]
 c1065bc:	e1a03803 	lsl	r3, r3, #16
 c1065c0:	e0822003 	add	r2, r2, r3
 c1065c4:	e51b3020 	ldr	r3, [fp, #-32]	; 0xffffffe0
 c1065c8:	e283300d 	add	r3, r3, #13
 c1065cc:	e5d33000 	ldrb	r3, [r3]
 c1065d0:	e1a03c03 	lsl	r3, r3, #24
 c1065d4:	e0823003 	add	r3, r2, r3
 c1065d8:	e50b3018 	str	r3, [fp, #-24]	; 0xffffffe8
 c1065dc:	e51b2020 	ldr	r2, [fp, #-32]	; 0xffffffe0
 c1065e0:	e51b3018 	ldr	r3, [fp, #-24]	; 0xffffffe8
 c1065e4:	e0823003 	add	r3, r2, r3
 c1065e8:	e50b3020 	str	r3, [fp, #-32]	; 0xffffffe0
 c1065ec:	e3a03000 	mov	r3, #0
 c1065f0:	e14b31b0 	strh	r3, [fp, #-16]
 c1065f4:	e3a030ef 	mov	r3, #239	; 0xef
 c1065f8:	e14b31b2 	strh	r3, [fp, #-18]	; 0xffffffee
 c1065fc:	ea00002d 	b	c1066b8 <lcd_putWallpaper+0x140>
 c106600:	e15b21b2 	ldrh	r2, [fp, #-18]	; 0xffffffee
 c106604:	e1a03002 	mov	r3, r2
 c106608:	e1a03103 	lsl	r3, r3, #2
 c10660c:	e0833002 	add	r3, r3, r2
 c106610:	e1a03303 	lsl	r3, r3, #6
 c106614:	e1a02fa3 	lsr	r2, r3, #31
 c106618:	e0823003 	add	r3, r2, r3
 c10661c:	e1a030c3 	asr	r3, r3, #1
 c106620:	e14b31ba 	strh	r3, [fp, #-26]	; 0xffffffe6
 c106624:	e15b21b0 	ldrh	r2, [fp, #-16]
 c106628:	e1a03002 	mov	r3, r2
 c10662c:	e1a03103 	lsl	r3, r3, #2
 c106630:	e0833002 	add	r3, r3, r2
 c106634:	e1a03303 	lsl	r3, r3, #6
 c106638:	e1a02fa3 	lsr	r2, r3, #31
 c10663c:	e0823003 	add	r3, r2, r3
 c106640:	e1a030c3 	asr	r3, r3, #1
 c106644:	e14b31bc 	strh	r3, [fp, #-28]	; 0xffffffe4
 c106648:	e3a03000 	mov	r3, #0
 c10664c:	e14b30be 	strh	r3, [fp, #-14]
 c106650:	ea00000f 	b	c106694 <lcd_putWallpaper+0x11c>
 c106654:	e15b21ba 	ldrh	r2, [fp, #-26]	; 0xffffffe6
 c106658:	e15b30be 	ldrh	r3, [fp, #-14]
 c10665c:	e0823003 	add	r3, r2, r3
 c106660:	e15b11bc 	ldrh	r1, [fp, #-28]	; 0xffffffe4
 c106664:	e15b20be 	ldrh	r2, [fp, #-14]
 c106668:	e0812002 	add	r2, r1, r2
 c10666c:	e51b1020 	ldr	r1, [fp, #-32]	; 0xffffffe0
 c106670:	e0812002 	add	r2, r1, r2
 c106674:	e5d22000 	ldrb	r2, [r2]
 c106678:	e1e02002 	mvn	r2, r2
 c10667c:	e20210ff 	and	r1, r2, #255	; 0xff
 c106680:	e59f2048 	ldr	r2, [pc, #72]	; c1066d0 <lcd_putWallpaper+0x158>
 c106684:	e7c21003 	strb	r1, [r2, r3]
 c106688:	e15b30be 	ldrh	r3, [fp, #-14]
 c10668c:	e2833001 	add	r3, r3, #1
 c106690:	e14b30be 	strh	r3, [fp, #-14]
 c106694:	e15b30be 	ldrh	r3, [fp, #-14]
 c106698:	e353009f 	cmp	r3, #159	; 0x9f
 c10669c:	9affffec 	bls	c106654 <lcd_putWallpaper+0xdc>
 c1066a0:	e15b31b0 	ldrh	r3, [fp, #-16]
 c1066a4:	e2833001 	add	r3, r3, #1
 c1066a8:	e14b31b0 	strh	r3, [fp, #-16]
 c1066ac:	e15b31b2 	ldrh	r3, [fp, #-18]	; 0xffffffee
 c1066b0:	e2433001 	sub	r3, r3, #1
 c1066b4:	e14b31b2 	strh	r3, [fp, #-18]	; 0xffffffee
 c1066b8:	e15b31b0 	ldrh	r3, [fp, #-16]
 c1066bc:	e35300ef 	cmp	r3, #239	; 0xef
 c1066c0:	9affffce 	bls	c106600 <lcd_putWallpaper+0x88>
 c1066c4:	e24bd00c 	sub	sp, fp, #12
 c1066c8:	e89d6800 	ldm	sp, {fp, sp, lr}
 c1066cc:	e12fff1e 	bx	lr
 c1066d0:	0c10e014 	.word	0x0c10e014

0c1066d4 <leds_init>:
 c1066d4:	e1a0c00d 	mov	ip, sp
 c1066d8:	e92dd800 	push	{fp, ip, lr, pc}
 c1066dc:	e24cb004 	sub	fp, ip, #4
 c1066e0:	e3a0000a 	mov	r0, #10
 c1066e4:	eb00014b 	bl	c106c18 <power_on>
 c1066e8:	e59f3028 	ldr	r3, [pc, #40]	; c106718 <leds_init+0x44>
 c1066ec:	e59f2024 	ldr	r2, [pc, #36]	; c106718 <leds_init+0x44>
 c1066f0:	e5922000 	ldr	r2, [r2]
 c1066f4:	e3c22c06 	bic	r2, r2, #1536	; 0x600
 c1066f8:	e5832000 	str	r2, [r3]
 c1066fc:	e3a00002 	mov	r0, #2
 c106700:	eb000017 	bl	c106764 <led_off>
 c106704:	e3a00001 	mov	r0, #1
 c106708:	eb000015 	bl	c106764 <led_off>
 c10670c:	e24bd00c 	sub	sp, fp, #12
 c106710:	e89d6800 	ldm	sp, {fp, sp, lr}
 c106714:	e12fff1e 	bx	lr
 c106718:	01d20008 	.word	0x01d20008

0c10671c <led_on>:
 c10671c:	e1a0c00d 	mov	ip, sp
 c106720:	e92dd800 	push	{fp, ip, lr, pc}
 c106724:	e24cb004 	sub	fp, ip, #4
 c106728:	e24dd008 	sub	sp, sp, #8
 c10672c:	e1a03000 	mov	r3, r0
 c106730:	e54b300d 	strb	r3, [fp, #-13]
 c106734:	e59f3024 	ldr	r3, [pc, #36]	; c106760 <led_on+0x44>
 c106738:	e59f2020 	ldr	r2, [pc, #32]	; c106760 <led_on+0x44>
 c10673c:	e5921000 	ldr	r1, [r2]
 c106740:	e55b200d 	ldrb	r2, [fp, #-13]
 c106744:	e1a02482 	lsl	r2, r2, #9
 c106748:	e1e02002 	mvn	r2, r2
 c10674c:	e0012002 	and	r2, r1, r2
 c106750:	e5832000 	str	r2, [r3]
 c106754:	e24bd00c 	sub	sp, fp, #12
 c106758:	e89d6800 	ldm	sp, {fp, sp, lr}
 c10675c:	e12fff1e 	bx	lr
 c106760:	01d2000c 	.word	0x01d2000c

0c106764 <led_off>:
 c106764:	e1a0c00d 	mov	ip, sp
 c106768:	e92dd800 	push	{fp, ip, lr, pc}
 c10676c:	e24cb004 	sub	fp, ip, #4
 c106770:	e24dd008 	sub	sp, sp, #8
 c106774:	e1a03000 	mov	r3, r0
 c106778:	e54b300d 	strb	r3, [fp, #-13]
 c10677c:	e59f3020 	ldr	r3, [pc, #32]	; c1067a4 <led_off+0x40>
 c106780:	e59f201c 	ldr	r2, [pc, #28]	; c1067a4 <led_off+0x40>
 c106784:	e5921000 	ldr	r1, [r2]
 c106788:	e55b200d 	ldrb	r2, [fp, #-13]
 c10678c:	e1a02482 	lsl	r2, r2, #9
 c106790:	e1812002 	orr	r2, r1, r2
 c106794:	e5832000 	str	r2, [r3]
 c106798:	e24bd00c 	sub	sp, fp, #12
 c10679c:	e89d6800 	ldm	sp, {fp, sp, lr}
 c1067a0:	e12fff1e 	bx	lr
 c1067a4:	01d2000c 	.word	0x01d2000c

0c1067a8 <led_toggle>:
 c1067a8:	e1a0c00d 	mov	ip, sp
 c1067ac:	e92dd800 	push	{fp, ip, lr, pc}
 c1067b0:	e24cb004 	sub	fp, ip, #4
 c1067b4:	e24dd008 	sub	sp, sp, #8
 c1067b8:	e1a03000 	mov	r3, r0
 c1067bc:	e54b300d 	strb	r3, [fp, #-13]
 c1067c0:	e59f3020 	ldr	r3, [pc, #32]	; c1067e8 <led_toggle+0x40>
 c1067c4:	e59f201c 	ldr	r2, [pc, #28]	; c1067e8 <led_toggle+0x40>
 c1067c8:	e5921000 	ldr	r1, [r2]
 c1067cc:	e55b200d 	ldrb	r2, [fp, #-13]
 c1067d0:	e1a02482 	lsl	r2, r2, #9
 c1067d4:	e0212002 	eor	r2, r1, r2
 c1067d8:	e5832000 	str	r2, [r3]
 c1067dc:	e24bd00c 	sub	sp, fp, #12
 c1067e0:	e89d6800 	ldm	sp, {fp, sp, lr}
 c1067e4:	e12fff1e 	bx	lr
 c1067e8:	01d2000c 	.word	0x01d2000c

0c1067ec <led_status>:
 c1067ec:	e1a0c00d 	mov	ip, sp
 c1067f0:	e92dd800 	push	{fp, ip, lr, pc}
 c1067f4:	e24cb004 	sub	fp, ip, #4
 c1067f8:	e24dd008 	sub	sp, sp, #8
 c1067fc:	e1a03000 	mov	r3, r0
 c106800:	e54b300d 	strb	r3, [fp, #-13]
 c106804:	e59f302c 	ldr	r3, [pc, #44]	; c106838 <led_status+0x4c>
 c106808:	e5932000 	ldr	r2, [r3]
 c10680c:	e55b300d 	ldrb	r3, [fp, #-13]
 c106810:	e1a03483 	lsl	r3, r3, #9
 c106814:	e0023003 	and	r3, r2, r3
 c106818:	e3530000 	cmp	r3, #0
 c10681c:	13a03000 	movne	r3, #0
 c106820:	03a03001 	moveq	r3, #1
 c106824:	e20330ff 	and	r3, r3, #255	; 0xff
 c106828:	e1a00003 	mov	r0, r3
 c10682c:	e24bd00c 	sub	sp, fp, #12
 c106830:	e89d6800 	ldm	sp, {fp, sp, lr}
 c106834:	e12fff1e 	bx	lr
 c106838:	01d2000c 	.word	0x01d2000c

0c10683c <pbs_init>:
 c10683c:	e1a0c00d 	mov	ip, sp
 c106840:	e92dd800 	push	{fp, ip, lr, pc}
 c106844:	e24cb004 	sub	fp, ip, #4
 c106848:	e3a0000a 	mov	r0, #10
 c10684c:	eb0000f1 	bl	c106c18 <power_on>
 c106850:	e59f3048 	ldr	r3, [pc, #72]	; c1068a0 <pbs_init+0x64>
 c106854:	e59f2044 	ldr	r2, [pc, #68]	; c1068a0 <pbs_init+0x64>
 c106858:	e5922000 	ldr	r2, [r2]
 c10685c:	e3822a0f 	orr	r2, r2, #61440	; 0xf000
 c106860:	e5832000 	str	r2, [r3]
 c106864:	e59f3038 	ldr	r3, [pc, #56]	; c1068a4 <pbs_init+0x68>
 c106868:	e59f2034 	ldr	r2, [pc, #52]	; c1068a4 <pbs_init+0x68>
 c10686c:	e5922000 	ldr	r2, [r2]
 c106870:	e3c220c0 	bic	r2, r2, #192	; 0xc0
 c106874:	e5832000 	str	r2, [r3]
 c106878:	e59f3028 	ldr	r3, [pc, #40]	; c1068a8 <pbs_init+0x6c>
 c10687c:	e59f2024 	ldr	r2, [pc, #36]	; c1068a8 <pbs_init+0x6c>
 c106880:	e5922000 	ldr	r2, [r2]
 c106884:	e3c224ff 	bic	r2, r2, #-16777216	; 0xff000000
 c106888:	e3822422 	orr	r2, r2, #570425344	; 0x22000000
 c10688c:	e5832000 	str	r2, [r3]
 c106890:	eb0009f3 	bl	c109064 <timers_init>
 c106894:	e24bd00c 	sub	sp, fp, #12
 c106898:	e89d6800 	ldm	sp, {fp, sp, lr}
 c10689c:	e12fff1e 	bx	lr
 c1068a0:	01d20040 	.word	0x01d20040
 c1068a4:	01d20048 	.word	0x01d20048
 c1068a8:	01d20050 	.word	0x01d20050

0c1068ac <pb_scan>:
 c1068ac:	e1a0c00d 	mov	ip, sp
 c1068b0:	e92dd800 	push	{fp, ip, lr, pc}
 c1068b4:	e24cb004 	sub	fp, ip, #4
 c1068b8:	e59f3044 	ldr	r3, [pc, #68]	; c106904 <pb_scan+0x58>
 c1068bc:	e5933000 	ldr	r3, [r3]
 c1068c0:	e2033040 	and	r3, r3, #64	; 0x40
 c1068c4:	e3530000 	cmp	r3, #0
 c1068c8:	1a000001 	bne	c1068d4 <pb_scan+0x28>
 c1068cc:	e3a03040 	mov	r3, #64	; 0x40
 c1068d0:	ea000007 	b	c1068f4 <pb_scan+0x48>
 c1068d4:	e59f3028 	ldr	r3, [pc, #40]	; c106904 <pb_scan+0x58>
 c1068d8:	e5933000 	ldr	r3, [r3]
 c1068dc:	e2033080 	and	r3, r3, #128	; 0x80
 c1068e0:	e3530000 	cmp	r3, #0
 c1068e4:	1a000001 	bne	c1068f0 <pb_scan+0x44>
 c1068e8:	e3a03080 	mov	r3, #128	; 0x80
 c1068ec:	ea000000 	b	c1068f4 <pb_scan+0x48>
 c1068f0:	e3a030ff 	mov	r3, #255	; 0xff
 c1068f4:	e1a00003 	mov	r0, r3
 c1068f8:	e24bd00c 	sub	sp, fp, #12
 c1068fc:	e89d6800 	ldm	sp, {fp, sp, lr}
 c106900:	e12fff1e 	bx	lr
 c106904:	01d20044 	.word	0x01d20044

0c106908 <pb_pressed>:
 c106908:	e1a0c00d 	mov	ip, sp
 c10690c:	e92dd800 	push	{fp, ip, lr, pc}
 c106910:	e24cb004 	sub	fp, ip, #4
 c106914:	e59f3040 	ldr	r3, [pc, #64]	; c10695c <pb_pressed+0x54>
 c106918:	e5933000 	ldr	r3, [r3]
 c10691c:	e2033080 	and	r3, r3, #128	; 0x80
 c106920:	e3530000 	cmp	r3, #0
 c106924:	0a000004 	beq	c10693c <pb_pressed+0x34>
 c106928:	e59f302c 	ldr	r3, [pc, #44]	; c10695c <pb_pressed+0x54>
 c10692c:	e5933000 	ldr	r3, [r3]
 c106930:	e2033040 	and	r3, r3, #64	; 0x40
 c106934:	e3530000 	cmp	r3, #0
 c106938:	1a000001 	bne	c106944 <pb_pressed+0x3c>
 c10693c:	e3a03001 	mov	r3, #1
 c106940:	ea000000 	b	c106948 <pb_pressed+0x40>
 c106944:	e3a03000 	mov	r3, #0
 c106948:	e20330ff 	and	r3, r3, #255	; 0xff
 c10694c:	e1a00003 	mov	r0, r3
 c106950:	e24bd00c 	sub	sp, fp, #12
 c106954:	e89d6800 	ldm	sp, {fp, sp, lr}
 c106958:	e12fff1e 	bx	lr
 c10695c:	01d20044 	.word	0x01d20044

0c106960 <pb_getchar>:
 c106960:	e1a0c00d 	mov	ip, sp
 c106964:	e92dd800 	push	{fp, ip, lr, pc}
 c106968:	e24cb004 	sub	fp, ip, #4
 c10696c:	e24dd008 	sub	sp, sp, #8
 c106970:	e1a00000 	nop			; (mov r0, r0)
 c106974:	e59f3054 	ldr	r3, [pc, #84]	; c1069d0 <pb_getchar+0x70>
 c106978:	e5933000 	ldr	r3, [r3]
 c10697c:	e20330c0 	and	r3, r3, #192	; 0xc0
 c106980:	e35300c0 	cmp	r3, #192	; 0xc0
 c106984:	0afffffa 	beq	c106974 <pb_getchar+0x14>
 c106988:	e3a0001e 	mov	r0, #30
 c10698c:	eb000a66 	bl	c10932c <sw_delay_ms>
 c106990:	ebffffc5 	bl	c1068ac <pb_scan>
 c106994:	e1a03000 	mov	r3, r0
 c106998:	e54b300d 	strb	r3, [fp, #-13]
 c10699c:	e1a00000 	nop			; (mov r0, r0)
 c1069a0:	e59f3028 	ldr	r3, [pc, #40]	; c1069d0 <pb_getchar+0x70>
 c1069a4:	e5933000 	ldr	r3, [r3]
 c1069a8:	e20330c0 	and	r3, r3, #192	; 0xc0
 c1069ac:	e35300c0 	cmp	r3, #192	; 0xc0
 c1069b0:	1afffffa 	bne	c1069a0 <pb_getchar+0x40>
 c1069b4:	e3a00064 	mov	r0, #100	; 0x64
 c1069b8:	eb000a5b 	bl	c10932c <sw_delay_ms>
 c1069bc:	e55b300d 	ldrb	r3, [fp, #-13]
 c1069c0:	e1a00003 	mov	r0, r3
 c1069c4:	e24bd00c 	sub	sp, fp, #12
 c1069c8:	e89d6800 	ldm	sp, {fp, sp, lr}
 c1069cc:	e12fff1e 	bx	lr
 c1069d0:	01d20044 	.word	0x01d20044

0c1069d4 <pb_getchartime>:
 c1069d4:	e1a0c00d 	mov	ip, sp
 c1069d8:	e92dd800 	push	{fp, ip, lr, pc}
 c1069dc:	e24cb004 	sub	fp, ip, #4
 c1069e0:	e24dd010 	sub	sp, sp, #16
 c1069e4:	e50b0018 	str	r0, [fp, #-24]	; 0xffffffe8
 c1069e8:	e1a00000 	nop			; (mov r0, r0)
 c1069ec:	e59f3080 	ldr	r3, [pc, #128]	; c106a74 <pb_getchartime+0xa0>
 c1069f0:	e5933000 	ldr	r3, [r3]
 c1069f4:	e20330c0 	and	r3, r3, #192	; 0xc0
 c1069f8:	e35300c0 	cmp	r3, #192	; 0xc0
 c1069fc:	0afffffa 	beq	c1069ec <pb_getchartime+0x18>
 c106a00:	eb000ab4 	bl	c1094d8 <timer3_start>
 c106a04:	e3a0001e 	mov	r0, #30
 c106a08:	eb000a47 	bl	c10932c <sw_delay_ms>
 c106a0c:	ebffffa6 	bl	c1068ac <pb_scan>
 c106a10:	e1a03000 	mov	r3, r0
 c106a14:	e54b300d 	strb	r3, [fp, #-13]
 c106a18:	e1a00000 	nop			; (mov r0, r0)
 c106a1c:	e59f3050 	ldr	r3, [pc, #80]	; c106a74 <pb_getchartime+0xa0>
 c106a20:	e5933000 	ldr	r3, [r3]
 c106a24:	e20330c0 	and	r3, r3, #192	; 0xc0
 c106a28:	e35300c0 	cmp	r3, #192	; 0xc0
 c106a2c:	1afffffa 	bne	c106a1c <pb_getchartime+0x48>
 c106a30:	eb000adf 	bl	c1095b4 <timer3_stop>
 c106a34:	e1a03000 	mov	r3, r0
 c106a38:	e1a02003 	mov	r2, r3
 c106a3c:	e59f3034 	ldr	r3, [pc, #52]	; c106a78 <pb_getchartime+0xa4>
 c106a40:	e0831392 	umull	r1, r3, r2, r3
 c106a44:	e1a031a3 	lsr	r3, r3, #3
 c106a48:	e1a03803 	lsl	r3, r3, #16
 c106a4c:	e1a02823 	lsr	r2, r3, #16
 c106a50:	e51b3018 	ldr	r3, [fp, #-24]	; 0xffffffe8
 c106a54:	e1c320b0 	strh	r2, [r3]
 c106a58:	e3a00064 	mov	r0, #100	; 0x64
 c106a5c:	eb000a32 	bl	c10932c <sw_delay_ms>
 c106a60:	e55b300d 	ldrb	r3, [fp, #-13]
 c106a64:	e1a00003 	mov	r0, r3
 c106a68:	e24bd00c 	sub	sp, fp, #12
 c106a6c:	e89d6800 	ldm	sp, {fp, sp, lr}
 c106a70:	e12fff1e 	bx	lr
 c106a74:	01d20044 	.word	0x01d20044
 c106a78:	cccccccd 	.word	0xcccccccd

0c106a7c <pb_timeout_getchar>:
 c106a7c:	e1a0c00d 	mov	ip, sp
 c106a80:	e92dd800 	push	{fp, ip, lr, pc}
 c106a84:	e24cb004 	sub	fp, ip, #4
 c106a88:	e24dd010 	sub	sp, sp, #16
 c106a8c:	e1a03000 	mov	r3, r0
 c106a90:	e14b31b6 	strh	r3, [fp, #-22]	; 0xffffffea
 c106a94:	e15b31b6 	ldrh	r3, [fp, #-22]	; 0xffffffea
 c106a98:	e1a02003 	mov	r2, r3
 c106a9c:	e1a02102 	lsl	r2, r2, #2
 c106aa0:	e0823003 	add	r3, r2, r3
 c106aa4:	e1a03083 	lsl	r3, r3, #1
 c106aa8:	e1a03803 	lsl	r3, r3, #16
 c106aac:	e1a03823 	lsr	r3, r3, #16
 c106ab0:	e1a00003 	mov	r0, r3
 c106ab4:	eb000ad3 	bl	c109608 <timer3_start_timeout>
 c106ab8:	e1a00000 	nop			; (mov r0, r0)
 c106abc:	e59f30a4 	ldr	r3, [pc, #164]	; c106b68 <pb_timeout_getchar+0xec>
 c106ac0:	e5933000 	ldr	r3, [r3]
 c106ac4:	e20330c0 	and	r3, r3, #192	; 0xc0
 c106ac8:	e35300c0 	cmp	r3, #192	; 0xc0
 c106acc:	1a000003 	bne	c106ae0 <pb_timeout_getchar+0x64>
 c106ad0:	eb000b05 	bl	c1096ec <timer3_timeout>
 c106ad4:	e1a03000 	mov	r3, r0
 c106ad8:	e3530000 	cmp	r3, #0
 c106adc:	0afffff6 	beq	c106abc <pb_timeout_getchar+0x40>
 c106ae0:	eb000b01 	bl	c1096ec <timer3_timeout>
 c106ae4:	e1a03000 	mov	r3, r0
 c106ae8:	e3530000 	cmp	r3, #0
 c106aec:	0a000001 	beq	c106af8 <pb_timeout_getchar+0x7c>
 c106af0:	e3a030fe 	mov	r3, #254	; 0xfe
 c106af4:	ea000017 	b	c106b58 <pb_timeout_getchar+0xdc>
 c106af8:	e3a0001e 	mov	r0, #30
 c106afc:	eb000a0a 	bl	c10932c <sw_delay_ms>
 c106b00:	ebffff69 	bl	c1068ac <pb_scan>
 c106b04:	e1a03000 	mov	r3, r0
 c106b08:	e54b300d 	strb	r3, [fp, #-13]
 c106b0c:	e1a00000 	nop			; (mov r0, r0)
 c106b10:	e59f3050 	ldr	r3, [pc, #80]	; c106b68 <pb_timeout_getchar+0xec>
 c106b14:	e5933000 	ldr	r3, [r3]
 c106b18:	e20330c0 	and	r3, r3, #192	; 0xc0
 c106b1c:	e35300c0 	cmp	r3, #192	; 0xc0
 c106b20:	0a000003 	beq	c106b34 <pb_timeout_getchar+0xb8>
 c106b24:	eb000af0 	bl	c1096ec <timer3_timeout>
 c106b28:	e1a03000 	mov	r3, r0
 c106b2c:	e3530000 	cmp	r3, #0
 c106b30:	0afffff6 	beq	c106b10 <pb_timeout_getchar+0x94>
 c106b34:	eb000aec 	bl	c1096ec <timer3_timeout>
 c106b38:	e1a03000 	mov	r3, r0
 c106b3c:	e3530000 	cmp	r3, #0
 c106b40:	0a000001 	beq	c106b4c <pb_timeout_getchar+0xd0>
 c106b44:	e3a030fe 	mov	r3, #254	; 0xfe
 c106b48:	ea000002 	b	c106b58 <pb_timeout_getchar+0xdc>
 c106b4c:	e3a00064 	mov	r0, #100	; 0x64
 c106b50:	eb0009f5 	bl	c10932c <sw_delay_ms>
 c106b54:	e55b300d 	ldrb	r3, [fp, #-13]
 c106b58:	e1a00003 	mov	r0, r3
 c106b5c:	e24bd00c 	sub	sp, fp, #12
 c106b60:	e89d6800 	ldm	sp, {fp, sp, lr}
 c106b64:	e12fff1e 	bx	lr
 c106b68:	01d20044 	.word	0x01d20044

0c106b6c <pbs_open>:
 c106b6c:	e1a0c00d 	mov	ip, sp
 c106b70:	e92dd800 	push	{fp, ip, lr, pc}
 c106b74:	e24cb004 	sub	fp, ip, #4
 c106b78:	e24dd008 	sub	sp, sp, #8
 c106b7c:	e50b0010 	str	r0, [fp, #-16]
 c106b80:	e59f303c 	ldr	r3, [pc, #60]	; c106bc4 <pbs_open+0x58>
 c106b84:	e51b2010 	ldr	r2, [fp, #-16]
 c106b88:	e5832000 	str	r2, [r3]
 c106b8c:	e59f3034 	ldr	r3, [pc, #52]	; c106bc8 <pbs_open+0x5c>
 c106b90:	e3a0200c 	mov	r2, #12
 c106b94:	e5832000 	str	r2, [r3]
 c106b98:	e59f302c 	ldr	r3, [pc, #44]	; c106bcc <pbs_open+0x60>
 c106b9c:	e3a02602 	mov	r2, #2097152	; 0x200000
 c106ba0:	e5832000 	str	r2, [r3]
 c106ba4:	e59f3024 	ldr	r3, [pc, #36]	; c106bd0 <pbs_open+0x64>
 c106ba8:	e59f2020 	ldr	r2, [pc, #32]	; c106bd0 <pbs_open+0x64>
 c106bac:	e5922000 	ldr	r2, [r2]
 c106bb0:	e3c22642 	bic	r2, r2, #69206016	; 0x4200000
 c106bb4:	e5832000 	str	r2, [r3]
 c106bb8:	e24bd00c 	sub	sp, fp, #12
 c106bbc:	e89d6800 	ldm	sp, {fp, sp, lr}
 c106bc0:	e12fff1e 	bx	lr
 c106bc4:	0c7fff74 	.word	0x0c7fff74
 c106bc8:	01d20054 	.word	0x01d20054
 c106bcc:	01e00024 	.word	0x01e00024
 c106bd0:	01e0000c 	.word	0x01e0000c

0c106bd4 <pbs_close>:
 c106bd4:	e1a0c00d 	mov	ip, sp
 c106bd8:	e92dd800 	push	{fp, ip, lr, pc}
 c106bdc:	e24cb004 	sub	fp, ip, #4
 c106be0:	e59f3024 	ldr	r3, [pc, #36]	; c106c0c <pbs_close+0x38>
 c106be4:	e59f2020 	ldr	r2, [pc, #32]	; c106c0c <pbs_close+0x38>
 c106be8:	e5922000 	ldr	r2, [r2]
 c106bec:	e3822602 	orr	r2, r2, #2097152	; 0x200000
 c106bf0:	e5832000 	str	r2, [r3]
 c106bf4:	e59f3014 	ldr	r3, [pc, #20]	; c106c10 <pbs_close+0x3c>
 c106bf8:	e59f2014 	ldr	r2, [pc, #20]	; c106c14 <pbs_close+0x40>
 c106bfc:	e5832000 	str	r2, [r3]
 c106c00:	e24bd00c 	sub	sp, fp, #12
 c106c04:	e89d6800 	ldm	sp, {fp, sp, lr}
 c106c08:	e12fff1e 	bx	lr
 c106c0c:	01e0000c 	.word	0x01e0000c
 c106c10:	0c7fff74 	.word	0x0c7fff74
 c106c14:	0c1088b0 	.word	0x0c1088b0

0c106c18 <power_on>:
 c106c18:	e1a0c00d 	mov	ip, sp
 c106c1c:	e92dd800 	push	{fp, ip, lr, pc}
 c106c20:	e24cb004 	sub	fp, ip, #4
 c106c24:	e24dd008 	sub	sp, sp, #8
 c106c28:	e1a03000 	mov	r3, r0
 c106c2c:	e54b300d 	strb	r3, [fp, #-13]
 c106c30:	e55b300d 	ldrb	r3, [fp, #-13]
 c106c34:	e353000e 	cmp	r3, #14
 c106c38:	8a000029 	bhi	c106ce4 <power_on+0xcc>
 c106c3c:	e59f20ac 	ldr	r2, [pc, #172]	; c106cf0 <power_on+0xd8>
 c106c40:	e1a02312 	lsl	r2, r2, r3
 c106c44:	e3520000 	cmp	r2, #0
 c106c48:	ba000008 	blt	c106c70 <power_on+0x58>
 c106c4c:	e3a02409 	mov	r2, #150994944	; 0x9000000
 c106c50:	e1a02312 	lsl	r2, r2, r3
 c106c54:	e3520000 	cmp	r2, #0
 c106c58:	ba000018 	blt	c106cc0 <power_on+0xa8>
 c106c5c:	e3a02603 	mov	r2, #3145728	; 0x300000
 c106c60:	e1a03312 	lsl	r3, r2, r3
 c106c64:	e3530000 	cmp	r3, #0
 c106c68:	aa00001d 	bge	c106ce4 <power_on+0xcc>
 c106c6c:	ea000009 	b	c106c98 <power_on+0x80>
 c106c70:	e59f307c 	ldr	r3, [pc, #124]	; c106cf4 <power_on+0xdc>
 c106c74:	e59f2078 	ldr	r2, [pc, #120]	; c106cf4 <power_on+0xdc>
 c106c78:	e5921000 	ldr	r1, [r2]
 c106c7c:	e55b200d 	ldrb	r2, [fp, #-13]
 c106c80:	e3a00001 	mov	r0, #1
 c106c84:	e1a02210 	lsl	r2, r0, r2
 c106c88:	e1812002 	orr	r2, r1, r2
 c106c8c:	e3822d12 	orr	r2, r2, #1152	; 0x480
 c106c90:	e5832000 	str	r2, [r3]
 c106c94:	ea000012 	b	c106ce4 <power_on+0xcc>
 c106c98:	e59f3054 	ldr	r3, [pc, #84]	; c106cf4 <power_on+0xdc>
 c106c9c:	e59f2050 	ldr	r2, [pc, #80]	; c106cf4 <power_on+0xdc>
 c106ca0:	e5921000 	ldr	r1, [r2]
 c106ca4:	e55b200d 	ldrb	r2, [fp, #-13]
 c106ca8:	e3a00001 	mov	r0, #1
 c106cac:	e1a02210 	lsl	r2, r0, r2
 c106cb0:	e1812002 	orr	r2, r1, r2
 c106cb4:	e3822080 	orr	r2, r2, #128	; 0x80
 c106cb8:	e5832000 	str	r2, [r3]
 c106cbc:	ea000008 	b	c106ce4 <power_on+0xcc>
 c106cc0:	e59f302c 	ldr	r3, [pc, #44]	; c106cf4 <power_on+0xdc>
 c106cc4:	e59f2028 	ldr	r2, [pc, #40]	; c106cf4 <power_on+0xdc>
 c106cc8:	e5921000 	ldr	r1, [r2]
 c106ccc:	e55b200d 	ldrb	r2, [fp, #-13]
 c106cd0:	e3a00001 	mov	r0, #1
 c106cd4:	e1a02210 	lsl	r2, r0, r2
 c106cd8:	e1812002 	orr	r2, r1, r2
 c106cdc:	e5832000 	str	r2, [r3]
 c106ce0:	e1a00000 	nop			; (mov r0, r0)
 c106ce4:	e24bd00c 	sub	sp, fp, #12
 c106ce8:	e89d6800 	ldm	sp, {fp, sp, lr}
 c106cec:	e12fff1e 	bx	lr
 c106cf0:	16ce0000 	.word	0x16ce0000
 c106cf4:	01d80004 	.word	0x01d80004

0c106cf8 <power_off>:
 c106cf8:	e1a0c00d 	mov	ip, sp
 c106cfc:	e92dd800 	push	{fp, ip, lr, pc}
 c106d00:	e24cb004 	sub	fp, ip, #4
 c106d04:	e24dd008 	sub	sp, sp, #8
 c106d08:	e1a03000 	mov	r3, r0
 c106d0c:	e54b300d 	strb	r3, [fp, #-13]
 c106d10:	e55b300d 	ldrb	r3, [fp, #-13]
 c106d14:	e353000e 	cmp	r3, #14
 c106d18:	8a000029 	bhi	c106dc4 <power_off+0xcc>
 c106d1c:	e59f20ac 	ldr	r2, [pc, #172]	; c106dd0 <power_off+0xd8>
 c106d20:	e1a02312 	lsl	r2, r2, r3
 c106d24:	e3520000 	cmp	r2, #0
 c106d28:	ba000004 	blt	c106d40 <power_off+0x48>
 c106d2c:	e3a02409 	mov	r2, #150994944	; 0x9000000
 c106d30:	e1a03312 	lsl	r3, r2, r3
 c106d34:	e3530000 	cmp	r3, #0
 c106d38:	aa000021 	bge	c106dc4 <power_off+0xcc>
 c106d3c:	ea000014 	b	c106d94 <power_off+0x9c>
 c106d40:	e59f308c 	ldr	r3, [pc, #140]	; c106dd4 <power_off+0xdc>
 c106d44:	e59f2088 	ldr	r2, [pc, #136]	; c106dd4 <power_off+0xdc>
 c106d48:	e5921000 	ldr	r1, [r2]
 c106d4c:	e55b200d 	ldrb	r2, [fp, #-13]
 c106d50:	e3a00001 	mov	r0, #1
 c106d54:	e1a02210 	lsl	r2, r0, r2
 c106d58:	e1e02002 	mvn	r2, r2
 c106d5c:	e0012002 	and	r2, r1, r2
 c106d60:	e5832000 	str	r2, [r3]
 c106d64:	e59f3068 	ldr	r3, [pc, #104]	; c106dd4 <power_off+0xdc>
 c106d68:	e5932000 	ldr	r2, [r3]
 c106d6c:	e59f3064 	ldr	r3, [pc, #100]	; c106dd8 <power_off+0xe0>
 c106d70:	e0023003 	and	r3, r2, r3
 c106d74:	e3530000 	cmp	r3, #0
 c106d78:	1a000010 	bne	c106dc0 <power_off+0xc8>
 c106d7c:	e59f3050 	ldr	r3, [pc, #80]	; c106dd4 <power_off+0xdc>
 c106d80:	e59f204c 	ldr	r2, [pc, #76]	; c106dd4 <power_off+0xdc>
 c106d84:	e5922000 	ldr	r2, [r2]
 c106d88:	e3c22080 	bic	r2, r2, #128	; 0x80
 c106d8c:	e5832000 	str	r2, [r3]
 c106d90:	ea00000b 	b	c106dc4 <power_off+0xcc>
 c106d94:	e59f3038 	ldr	r3, [pc, #56]	; c106dd4 <power_off+0xdc>
 c106d98:	e59f2034 	ldr	r2, [pc, #52]	; c106dd4 <power_off+0xdc>
 c106d9c:	e5921000 	ldr	r1, [r2]
 c106da0:	e55b200d 	ldrb	r2, [fp, #-13]
 c106da4:	e3a00001 	mov	r0, #1
 c106da8:	e1a02210 	lsl	r2, r0, r2
 c106dac:	e1e02002 	mvn	r2, r2
 c106db0:	e0012002 	and	r2, r1, r2
 c106db4:	e5832000 	str	r2, [r3]
 c106db8:	e1a00000 	nop			; (mov r0, r0)
 c106dbc:	ea000000 	b	c106dc4 <power_off+0xcc>
 c106dc0:	e1a00000 	nop			; (mov r0, r0)
 c106dc4:	e24bd00c 	sub	sp, fp, #12
 c106dc8:	e89d6800 	ldm	sp, {fp, sp, lr}
 c106dcc:	e12fff1e 	bx	lr
 c106dd0:	16fe0000 	.word	0x16fe0000
 c106dd4:	01d80004 	.word	0x01d80004
 c106dd8:	00007f68 	.word	0x00007f68

0c106ddc <power_status>:
 c106ddc:	e1a0c00d 	mov	ip, sp
 c106de0:	e92dd800 	push	{fp, ip, lr, pc}
 c106de4:	e24cb004 	sub	fp, ip, #4
 c106de8:	e24dd008 	sub	sp, sp, #8
 c106dec:	e1a03000 	mov	r3, r0
 c106df0:	e54b300d 	strb	r3, [fp, #-13]
 c106df4:	e59f302c 	ldr	r3, [pc, #44]	; c106e28 <power_status+0x4c>
 c106df8:	e5932000 	ldr	r2, [r3]
 c106dfc:	e55b300d 	ldrb	r3, [fp, #-13]
 c106e00:	e3a01001 	mov	r1, #1
 c106e04:	e1a03311 	lsl	r3, r1, r3
 c106e08:	e0022003 	and	r2, r2, r3
 c106e0c:	e55b300d 	ldrb	r3, [fp, #-13]
 c106e10:	e1a03332 	lsr	r3, r2, r3
 c106e14:	e20330ff 	and	r3, r3, #255	; 0xff
 c106e18:	e1a00003 	mov	r0, r3
 c106e1c:	e24bd00c 	sub	sp, fp, #12
 c106e20:	e89d6800 	ldm	sp, {fp, sp, lr}
 c106e24:	e12fff1e 	bx	lr
 c106e28:	01d80004 	.word	0x01d80004

0c106e2c <rtc_init>:
 c106e2c:	e1a0c00d 	mov	ip, sp
 c106e30:	e92dd800 	push	{fp, ip, lr, pc}
 c106e34:	e24cb004 	sub	fp, ip, #4
 c106e38:	e3a0000b 	mov	r0, #11
 c106e3c:	ebffff75 	bl	c106c18 <power_on>
 c106e40:	e59f30e4 	ldr	r3, [pc, #228]	; c106f2c <rtc_init+0x100>
 c106e44:	e3a02000 	mov	r2, #0
 c106e48:	e5832000 	str	r2, [r3]
 c106e4c:	e59f30dc 	ldr	r3, [pc, #220]	; c106f30 <rtc_init+0x104>
 c106e50:	e3a02000 	mov	r2, #0
 c106e54:	e5832000 	str	r2, [r3]
 c106e58:	e59f30d4 	ldr	r3, [pc, #212]	; c106f34 <rtc_init+0x108>
 c106e5c:	e3a02000 	mov	r2, #0
 c106e60:	e5832000 	str	r2, [r3]
 c106e64:	e59f30cc 	ldr	r3, [pc, #204]	; c106f38 <rtc_init+0x10c>
 c106e68:	e3a02001 	mov	r2, #1
 c106e6c:	e5832000 	str	r2, [r3]
 c106e70:	e59f30c4 	ldr	r3, [pc, #196]	; c106f3c <rtc_init+0x110>
 c106e74:	e3a02013 	mov	r2, #19
 c106e78:	e5832000 	str	r2, [r3]
 c106e7c:	e59f30bc 	ldr	r3, [pc, #188]	; c106f40 <rtc_init+0x114>
 c106e80:	e3a02001 	mov	r2, #1
 c106e84:	e5832000 	str	r2, [r3]
 c106e88:	e59f30b4 	ldr	r3, [pc, #180]	; c106f44 <rtc_init+0x118>
 c106e8c:	e3a02001 	mov	r2, #1
 c106e90:	e5832000 	str	r2, [r3]
 c106e94:	e59f30ac 	ldr	r3, [pc, #172]	; c106f48 <rtc_init+0x11c>
 c106e98:	e3a02003 	mov	r2, #3
 c106e9c:	e5832000 	str	r2, [r3]
 c106ea0:	e59f30a4 	ldr	r3, [pc, #164]	; c106f4c <rtc_init+0x120>
 c106ea4:	e3a02000 	mov	r2, #0
 c106ea8:	e5832000 	str	r2, [r3]
 c106eac:	e59f309c 	ldr	r3, [pc, #156]	; c106f50 <rtc_init+0x124>
 c106eb0:	e3a02000 	mov	r2, #0
 c106eb4:	e5832000 	str	r2, [r3]
 c106eb8:	e59f3094 	ldr	r3, [pc, #148]	; c106f54 <rtc_init+0x128>
 c106ebc:	e3a02000 	mov	r2, #0
 c106ec0:	e5832000 	str	r2, [r3]
 c106ec4:	e59f308c 	ldr	r3, [pc, #140]	; c106f58 <rtc_init+0x12c>
 c106ec8:	e3a02000 	mov	r2, #0
 c106ecc:	e5832000 	str	r2, [r3]
 c106ed0:	e59f3084 	ldr	r3, [pc, #132]	; c106f5c <rtc_init+0x130>
 c106ed4:	e3a02000 	mov	r2, #0
 c106ed8:	e5832000 	str	r2, [r3]
 c106edc:	e59f307c 	ldr	r3, [pc, #124]	; c106f60 <rtc_init+0x134>
 c106ee0:	e3a02000 	mov	r2, #0
 c106ee4:	e5832000 	str	r2, [r3]
 c106ee8:	e59f3074 	ldr	r3, [pc, #116]	; c106f64 <rtc_init+0x138>
 c106eec:	e3a02000 	mov	r2, #0
 c106ef0:	e5832000 	str	r2, [r3]
 c106ef4:	e59f306c 	ldr	r3, [pc, #108]	; c106f68 <rtc_init+0x13c>
 c106ef8:	e3a02000 	mov	r2, #0
 c106efc:	e5832000 	str	r2, [r3]
 c106f00:	e59f3064 	ldr	r3, [pc, #100]	; c106f6c <rtc_init+0x140>
 c106f04:	e3a02000 	mov	r2, #0
 c106f08:	e5832000 	str	r2, [r3]
 c106f0c:	e59f3024 	ldr	r3, [pc, #36]	; c106f38 <rtc_init+0x10c>
 c106f10:	e59f2020 	ldr	r2, [pc, #32]	; c106f38 <rtc_init+0x10c>
 c106f14:	e5922000 	ldr	r2, [r2]
 c106f18:	e3c22001 	bic	r2, r2, #1
 c106f1c:	e5832000 	str	r2, [r3]
 c106f20:	e24bd00c 	sub	sp, fp, #12
 c106f24:	e89d6800 	ldm	sp, {fp, sp, lr}
 c106f28:	e12fff1e 	bx	lr
 c106f2c:	01d7008c 	.word	0x01d7008c
 c106f30:	01d70050 	.word	0x01d70050
 c106f34:	01d7006c 	.word	0x01d7006c
 c106f38:	01d70040 	.word	0x01d70040
 c106f3c:	01d70088 	.word	0x01d70088
 c106f40:	01d70084 	.word	0x01d70084
 c106f44:	01d7007c 	.word	0x01d7007c
 c106f48:	01d70080 	.word	0x01d70080
 c106f4c:	01d70078 	.word	0x01d70078
 c106f50:	01d70074 	.word	0x01d70074
 c106f54:	01d70070 	.word	0x01d70070
 c106f58:	01d70068 	.word	0x01d70068
 c106f5c:	01d70064 	.word	0x01d70064
 c106f60:	01d70060 	.word	0x01d70060
 c106f64:	01d7005c 	.word	0x01d7005c
 c106f68:	01d70058 	.word	0x01d70058
 c106f6c:	01d70054 	.word	0x01d70054

0c106f70 <rtc_puttime>:
 c106f70:	e1a0c00d 	mov	ip, sp
 c106f74:	e92dd800 	push	{fp, ip, lr, pc}
 c106f78:	e24cb004 	sub	fp, ip, #4
 c106f7c:	e24dd008 	sub	sp, sp, #8
 c106f80:	e50b0010 	str	r0, [fp, #-16]
 c106f84:	e59f3278 	ldr	r3, [pc, #632]	; c107204 <rtc_puttime+0x294>
 c106f88:	e59f2274 	ldr	r2, [pc, #628]	; c107204 <rtc_puttime+0x294>
 c106f8c:	e5922000 	ldr	r2, [r2]
 c106f90:	e3822001 	orr	r2, r2, #1
 c106f94:	e5832000 	str	r2, [r3]
 c106f98:	e59f0268 	ldr	r0, [pc, #616]	; c107208 <rtc_puttime+0x298>
 c106f9c:	e51b3010 	ldr	r3, [fp, #-16]
 c106fa0:	e5d32006 	ldrb	r2, [r3, #6]
 c106fa4:	e59f3260 	ldr	r3, [pc, #608]	; c10720c <rtc_puttime+0x29c>
 c106fa8:	e0831392 	umull	r1, r3, r2, r3
 c106fac:	e1a031a3 	lsr	r3, r3, #3
 c106fb0:	e20330ff 	and	r3, r3, #255	; 0xff
 c106fb4:	e1a0c203 	lsl	ip, r3, #4
 c106fb8:	e51b3010 	ldr	r3, [fp, #-16]
 c106fbc:	e5d32006 	ldrb	r2, [r3, #6]
 c106fc0:	e59f3244 	ldr	r3, [pc, #580]	; c10720c <rtc_puttime+0x29c>
 c106fc4:	e0831392 	umull	r1, r3, r2, r3
 c106fc8:	e1a011a3 	lsr	r1, r3, #3
 c106fcc:	e1a03001 	mov	r3, r1
 c106fd0:	e1a03103 	lsl	r3, r3, #2
 c106fd4:	e0833001 	add	r3, r3, r1
 c106fd8:	e1a03083 	lsl	r3, r3, #1
 c106fdc:	e0633002 	rsb	r3, r3, r2
 c106fe0:	e20330ff 	and	r3, r3, #255	; 0xff
 c106fe4:	e08c3003 	add	r3, ip, r3
 c106fe8:	e5803000 	str	r3, [r0]
 c106fec:	e59f021c 	ldr	r0, [pc, #540]	; c107210 <rtc_puttime+0x2a0>
 c106ff0:	e51b3010 	ldr	r3, [fp, #-16]
 c106ff4:	e5d32005 	ldrb	r2, [r3, #5]
 c106ff8:	e59f320c 	ldr	r3, [pc, #524]	; c10720c <rtc_puttime+0x29c>
 c106ffc:	e0831392 	umull	r1, r3, r2, r3
 c107000:	e1a031a3 	lsr	r3, r3, #3
 c107004:	e20330ff 	and	r3, r3, #255	; 0xff
 c107008:	e1a0c203 	lsl	ip, r3, #4
 c10700c:	e51b3010 	ldr	r3, [fp, #-16]
 c107010:	e5d32005 	ldrb	r2, [r3, #5]
 c107014:	e59f31f0 	ldr	r3, [pc, #496]	; c10720c <rtc_puttime+0x29c>
 c107018:	e0831392 	umull	r1, r3, r2, r3
 c10701c:	e1a011a3 	lsr	r1, r3, #3
 c107020:	e1a03001 	mov	r3, r1
 c107024:	e1a03103 	lsl	r3, r3, #2
 c107028:	e0833001 	add	r3, r3, r1
 c10702c:	e1a03083 	lsl	r3, r3, #1
 c107030:	e0633002 	rsb	r3, r3, r2
 c107034:	e20330ff 	and	r3, r3, #255	; 0xff
 c107038:	e08c3003 	add	r3, ip, r3
 c10703c:	e5803000 	str	r3, [r0]
 c107040:	e59f01cc 	ldr	r0, [pc, #460]	; c107214 <rtc_puttime+0x2a4>
 c107044:	e51b3010 	ldr	r3, [fp, #-16]
 c107048:	e5d32003 	ldrb	r2, [r3, #3]
 c10704c:	e59f31b8 	ldr	r3, [pc, #440]	; c10720c <rtc_puttime+0x29c>
 c107050:	e0831392 	umull	r1, r3, r2, r3
 c107054:	e1a031a3 	lsr	r3, r3, #3
 c107058:	e20330ff 	and	r3, r3, #255	; 0xff
 c10705c:	e1a0c203 	lsl	ip, r3, #4
 c107060:	e51b3010 	ldr	r3, [fp, #-16]
 c107064:	e5d32003 	ldrb	r2, [r3, #3]
 c107068:	e59f319c 	ldr	r3, [pc, #412]	; c10720c <rtc_puttime+0x29c>
 c10706c:	e0831392 	umull	r1, r3, r2, r3
 c107070:	e1a011a3 	lsr	r1, r3, #3
 c107074:	e1a03001 	mov	r3, r1
 c107078:	e1a03103 	lsl	r3, r3, #2
 c10707c:	e0833001 	add	r3, r3, r1
 c107080:	e1a03083 	lsl	r3, r3, #1
 c107084:	e0633002 	rsb	r3, r3, r2
 c107088:	e20330ff 	and	r3, r3, #255	; 0xff
 c10708c:	e08c3003 	add	r3, ip, r3
 c107090:	e5803000 	str	r3, [r0]
 c107094:	e59f017c 	ldr	r0, [pc, #380]	; c107218 <rtc_puttime+0x2a8>
 c107098:	e51b3010 	ldr	r3, [fp, #-16]
 c10709c:	e5d32004 	ldrb	r2, [r3, #4]
 c1070a0:	e59f3164 	ldr	r3, [pc, #356]	; c10720c <rtc_puttime+0x29c>
 c1070a4:	e0831392 	umull	r1, r3, r2, r3
 c1070a8:	e1a031a3 	lsr	r3, r3, #3
 c1070ac:	e20330ff 	and	r3, r3, #255	; 0xff
 c1070b0:	e1a0c203 	lsl	ip, r3, #4
 c1070b4:	e51b3010 	ldr	r3, [fp, #-16]
 c1070b8:	e5d32004 	ldrb	r2, [r3, #4]
 c1070bc:	e59f3148 	ldr	r3, [pc, #328]	; c10720c <rtc_puttime+0x29c>
 c1070c0:	e0831392 	umull	r1, r3, r2, r3
 c1070c4:	e1a011a3 	lsr	r1, r3, #3
 c1070c8:	e1a03001 	mov	r3, r1
 c1070cc:	e1a03103 	lsl	r3, r3, #2
 c1070d0:	e0833001 	add	r3, r3, r1
 c1070d4:	e1a03083 	lsl	r3, r3, #1
 c1070d8:	e0633002 	rsb	r3, r3, r2
 c1070dc:	e20330ff 	and	r3, r3, #255	; 0xff
 c1070e0:	e08c3003 	add	r3, ip, r3
 c1070e4:	e5803000 	str	r3, [r0]
 c1070e8:	e59f012c 	ldr	r0, [pc, #300]	; c10721c <rtc_puttime+0x2ac>
 c1070ec:	e51b3010 	ldr	r3, [fp, #-16]
 c1070f0:	e5d32002 	ldrb	r2, [r3, #2]
 c1070f4:	e59f3110 	ldr	r3, [pc, #272]	; c10720c <rtc_puttime+0x29c>
 c1070f8:	e0831392 	umull	r1, r3, r2, r3
 c1070fc:	e1a031a3 	lsr	r3, r3, #3
 c107100:	e20330ff 	and	r3, r3, #255	; 0xff
 c107104:	e1a0c203 	lsl	ip, r3, #4
 c107108:	e51b3010 	ldr	r3, [fp, #-16]
 c10710c:	e5d32002 	ldrb	r2, [r3, #2]
 c107110:	e59f30f4 	ldr	r3, [pc, #244]	; c10720c <rtc_puttime+0x29c>
 c107114:	e0831392 	umull	r1, r3, r2, r3
 c107118:	e1a011a3 	lsr	r1, r3, #3
 c10711c:	e1a03001 	mov	r3, r1
 c107120:	e1a03103 	lsl	r3, r3, #2
 c107124:	e0833001 	add	r3, r3, r1
 c107128:	e1a03083 	lsl	r3, r3, #1
 c10712c:	e0633002 	rsb	r3, r3, r2
 c107130:	e20330ff 	and	r3, r3, #255	; 0xff
 c107134:	e08c3003 	add	r3, ip, r3
 c107138:	e5803000 	str	r3, [r0]
 c10713c:	e59f00dc 	ldr	r0, [pc, #220]	; c107220 <rtc_puttime+0x2b0>
 c107140:	e51b3010 	ldr	r3, [fp, #-16]
 c107144:	e5d32001 	ldrb	r2, [r3, #1]
 c107148:	e59f30bc 	ldr	r3, [pc, #188]	; c10720c <rtc_puttime+0x29c>
 c10714c:	e0831392 	umull	r1, r3, r2, r3
 c107150:	e1a031a3 	lsr	r3, r3, #3
 c107154:	e20330ff 	and	r3, r3, #255	; 0xff
 c107158:	e1a0c203 	lsl	ip, r3, #4
 c10715c:	e51b3010 	ldr	r3, [fp, #-16]
 c107160:	e5d32001 	ldrb	r2, [r3, #1]
 c107164:	e59f30a0 	ldr	r3, [pc, #160]	; c10720c <rtc_puttime+0x29c>
 c107168:	e0831392 	umull	r1, r3, r2, r3
 c10716c:	e1a011a3 	lsr	r1, r3, #3
 c107170:	e1a03001 	mov	r3, r1
 c107174:	e1a03103 	lsl	r3, r3, #2
 c107178:	e0833001 	add	r3, r3, r1
 c10717c:	e1a03083 	lsl	r3, r3, #1
 c107180:	e0633002 	rsb	r3, r3, r2
 c107184:	e20330ff 	and	r3, r3, #255	; 0xff
 c107188:	e08c3003 	add	r3, ip, r3
 c10718c:	e5803000 	str	r3, [r0]
 c107190:	e59f008c 	ldr	r0, [pc, #140]	; c107224 <rtc_puttime+0x2b4>
 c107194:	e51b3010 	ldr	r3, [fp, #-16]
 c107198:	e5d32000 	ldrb	r2, [r3]
 c10719c:	e59f3068 	ldr	r3, [pc, #104]	; c10720c <rtc_puttime+0x29c>
 c1071a0:	e0831392 	umull	r1, r3, r2, r3
 c1071a4:	e1a031a3 	lsr	r3, r3, #3
 c1071a8:	e20330ff 	and	r3, r3, #255	; 0xff
 c1071ac:	e1a0c203 	lsl	ip, r3, #4
 c1071b0:	e51b3010 	ldr	r3, [fp, #-16]
 c1071b4:	e5d32000 	ldrb	r2, [r3]
 c1071b8:	e59f304c 	ldr	r3, [pc, #76]	; c10720c <rtc_puttime+0x29c>
 c1071bc:	e0831392 	umull	r1, r3, r2, r3
 c1071c0:	e1a011a3 	lsr	r1, r3, #3
 c1071c4:	e1a03001 	mov	r3, r1
 c1071c8:	e1a03103 	lsl	r3, r3, #2
 c1071cc:	e0833001 	add	r3, r3, r1
 c1071d0:	e1a03083 	lsl	r3, r3, #1
 c1071d4:	e0633002 	rsb	r3, r3, r2
 c1071d8:	e20330ff 	and	r3, r3, #255	; 0xff
 c1071dc:	e08c3003 	add	r3, ip, r3
 c1071e0:	e5803000 	str	r3, [r0]
 c1071e4:	e59f3018 	ldr	r3, [pc, #24]	; c107204 <rtc_puttime+0x294>
 c1071e8:	e59f2014 	ldr	r2, [pc, #20]	; c107204 <rtc_puttime+0x294>
 c1071ec:	e5922000 	ldr	r2, [r2]
 c1071f0:	e3c22001 	bic	r2, r2, #1
 c1071f4:	e5832000 	str	r2, [r3]
 c1071f8:	e24bd00c 	sub	sp, fp, #12
 c1071fc:	e89d6800 	ldm	sp, {fp, sp, lr}
 c107200:	e12fff1e 	bx	lr
 c107204:	01d70040 	.word	0x01d70040
 c107208:	01d70088 	.word	0x01d70088
 c10720c:	cccccccd 	.word	0xcccccccd
 c107210:	01d70084 	.word	0x01d70084
 c107214:	01d7007c 	.word	0x01d7007c
 c107218:	01d70080 	.word	0x01d70080
 c10721c:	01d70078 	.word	0x01d70078
 c107220:	01d70074 	.word	0x01d70074
 c107224:	01d70070 	.word	0x01d70070

0c107228 <rtc_gettime>:
 c107228:	e1a0c00d 	mov	ip, sp
 c10722c:	e92dd800 	push	{fp, ip, lr, pc}
 c107230:	e24cb004 	sub	fp, ip, #4
 c107234:	e24dd008 	sub	sp, sp, #8
 c107238:	e50b0010 	str	r0, [fp, #-16]
 c10723c:	e59f342c 	ldr	r3, [pc, #1068]	; c107670 <rtc_gettime+0x448>
 c107240:	e59f2428 	ldr	r2, [pc, #1064]	; c107670 <rtc_gettime+0x448>
 c107244:	e5922000 	ldr	r2, [r2]
 c107248:	e3822001 	orr	r2, r2, #1
 c10724c:	e5832000 	str	r2, [r3]
 c107250:	e59f341c 	ldr	r3, [pc, #1052]	; c107674 <rtc_gettime+0x44c>
 c107254:	e5933000 	ldr	r3, [r3]
 c107258:	e1a03223 	lsr	r3, r3, #4
 c10725c:	e20330ff 	and	r3, r3, #255	; 0xff
 c107260:	e1a02003 	mov	r2, r3
 c107264:	e1a02102 	lsl	r2, r2, #2
 c107268:	e0823003 	add	r3, r2, r3
 c10726c:	e1a03083 	lsl	r3, r3, #1
 c107270:	e20320ff 	and	r2, r3, #255	; 0xff
 c107274:	e59f33f8 	ldr	r3, [pc, #1016]	; c107674 <rtc_gettime+0x44c>
 c107278:	e5933000 	ldr	r3, [r3]
 c10727c:	e20330ff 	and	r3, r3, #255	; 0xff
 c107280:	e203300f 	and	r3, r3, #15
 c107284:	e20330ff 	and	r3, r3, #255	; 0xff
 c107288:	e0823003 	add	r3, r2, r3
 c10728c:	e20320ff 	and	r2, r3, #255	; 0xff
 c107290:	e51b3010 	ldr	r3, [fp, #-16]
 c107294:	e5c32006 	strb	r2, [r3, #6]
 c107298:	e59f33d8 	ldr	r3, [pc, #984]	; c107678 <rtc_gettime+0x450>
 c10729c:	e5933000 	ldr	r3, [r3]
 c1072a0:	e1a03223 	lsr	r3, r3, #4
 c1072a4:	e20330ff 	and	r3, r3, #255	; 0xff
 c1072a8:	e1a02003 	mov	r2, r3
 c1072ac:	e1a02102 	lsl	r2, r2, #2
 c1072b0:	e0823003 	add	r3, r2, r3
 c1072b4:	e1a03083 	lsl	r3, r3, #1
 c1072b8:	e20320ff 	and	r2, r3, #255	; 0xff
 c1072bc:	e59f33b4 	ldr	r3, [pc, #948]	; c107678 <rtc_gettime+0x450>
 c1072c0:	e5933000 	ldr	r3, [r3]
 c1072c4:	e20330ff 	and	r3, r3, #255	; 0xff
 c1072c8:	e203300f 	and	r3, r3, #15
 c1072cc:	e20330ff 	and	r3, r3, #255	; 0xff
 c1072d0:	e0823003 	add	r3, r2, r3
 c1072d4:	e20320ff 	and	r2, r3, #255	; 0xff
 c1072d8:	e51b3010 	ldr	r3, [fp, #-16]
 c1072dc:	e5c32005 	strb	r2, [r3, #5]
 c1072e0:	e59f3394 	ldr	r3, [pc, #916]	; c10767c <rtc_gettime+0x454>
 c1072e4:	e5933000 	ldr	r3, [r3]
 c1072e8:	e1a03223 	lsr	r3, r3, #4
 c1072ec:	e20330ff 	and	r3, r3, #255	; 0xff
 c1072f0:	e1a02003 	mov	r2, r3
 c1072f4:	e1a02102 	lsl	r2, r2, #2
 c1072f8:	e0823003 	add	r3, r2, r3
 c1072fc:	e1a03083 	lsl	r3, r3, #1
 c107300:	e20320ff 	and	r2, r3, #255	; 0xff
 c107304:	e59f3370 	ldr	r3, [pc, #880]	; c10767c <rtc_gettime+0x454>
 c107308:	e5933000 	ldr	r3, [r3]
 c10730c:	e20330ff 	and	r3, r3, #255	; 0xff
 c107310:	e203300f 	and	r3, r3, #15
 c107314:	e20330ff 	and	r3, r3, #255	; 0xff
 c107318:	e0823003 	add	r3, r2, r3
 c10731c:	e20320ff 	and	r2, r3, #255	; 0xff
 c107320:	e51b3010 	ldr	r3, [fp, #-16]
 c107324:	e5c32003 	strb	r2, [r3, #3]
 c107328:	e59f3350 	ldr	r3, [pc, #848]	; c107680 <rtc_gettime+0x458>
 c10732c:	e5933000 	ldr	r3, [r3]
 c107330:	e1a03223 	lsr	r3, r3, #4
 c107334:	e20330ff 	and	r3, r3, #255	; 0xff
 c107338:	e1a02003 	mov	r2, r3
 c10733c:	e1a02102 	lsl	r2, r2, #2
 c107340:	e0823003 	add	r3, r2, r3
 c107344:	e1a03083 	lsl	r3, r3, #1
 c107348:	e20320ff 	and	r2, r3, #255	; 0xff
 c10734c:	e59f332c 	ldr	r3, [pc, #812]	; c107680 <rtc_gettime+0x458>
 c107350:	e5933000 	ldr	r3, [r3]
 c107354:	e20330ff 	and	r3, r3, #255	; 0xff
 c107358:	e203300f 	and	r3, r3, #15
 c10735c:	e20330ff 	and	r3, r3, #255	; 0xff
 c107360:	e0823003 	add	r3, r2, r3
 c107364:	e20320ff 	and	r2, r3, #255	; 0xff
 c107368:	e51b3010 	ldr	r3, [fp, #-16]
 c10736c:	e5c32004 	strb	r2, [r3, #4]
 c107370:	e59f330c 	ldr	r3, [pc, #780]	; c107684 <rtc_gettime+0x45c>
 c107374:	e5933000 	ldr	r3, [r3]
 c107378:	e1a03223 	lsr	r3, r3, #4
 c10737c:	e20330ff 	and	r3, r3, #255	; 0xff
 c107380:	e1a02003 	mov	r2, r3
 c107384:	e1a02102 	lsl	r2, r2, #2
 c107388:	e0823003 	add	r3, r2, r3
 c10738c:	e1a03083 	lsl	r3, r3, #1
 c107390:	e20320ff 	and	r2, r3, #255	; 0xff
 c107394:	e59f32e8 	ldr	r3, [pc, #744]	; c107684 <rtc_gettime+0x45c>
 c107398:	e5933000 	ldr	r3, [r3]
 c10739c:	e20330ff 	and	r3, r3, #255	; 0xff
 c1073a0:	e203300f 	and	r3, r3, #15
 c1073a4:	e20330ff 	and	r3, r3, #255	; 0xff
 c1073a8:	e0823003 	add	r3, r2, r3
 c1073ac:	e20320ff 	and	r2, r3, #255	; 0xff
 c1073b0:	e51b3010 	ldr	r3, [fp, #-16]
 c1073b4:	e5c32002 	strb	r2, [r3, #2]
 c1073b8:	e59f32c8 	ldr	r3, [pc, #712]	; c107688 <rtc_gettime+0x460>
 c1073bc:	e5933000 	ldr	r3, [r3]
 c1073c0:	e1a03223 	lsr	r3, r3, #4
 c1073c4:	e20330ff 	and	r3, r3, #255	; 0xff
 c1073c8:	e1a02003 	mov	r2, r3
 c1073cc:	e1a02102 	lsl	r2, r2, #2
 c1073d0:	e0823003 	add	r3, r2, r3
 c1073d4:	e1a03083 	lsl	r3, r3, #1
 c1073d8:	e20320ff 	and	r2, r3, #255	; 0xff
 c1073dc:	e59f32a4 	ldr	r3, [pc, #676]	; c107688 <rtc_gettime+0x460>
 c1073e0:	e5933000 	ldr	r3, [r3]
 c1073e4:	e20330ff 	and	r3, r3, #255	; 0xff
 c1073e8:	e203300f 	and	r3, r3, #15
 c1073ec:	e20330ff 	and	r3, r3, #255	; 0xff
 c1073f0:	e0823003 	add	r3, r2, r3
 c1073f4:	e20320ff 	and	r2, r3, #255	; 0xff
 c1073f8:	e51b3010 	ldr	r3, [fp, #-16]
 c1073fc:	e5c32001 	strb	r2, [r3, #1]
 c107400:	e59f3284 	ldr	r3, [pc, #644]	; c10768c <rtc_gettime+0x464>
 c107404:	e5933000 	ldr	r3, [r3]
 c107408:	e1a03223 	lsr	r3, r3, #4
 c10740c:	e20330ff 	and	r3, r3, #255	; 0xff
 c107410:	e1a02003 	mov	r2, r3
 c107414:	e1a02102 	lsl	r2, r2, #2
 c107418:	e0823003 	add	r3, r2, r3
 c10741c:	e1a03083 	lsl	r3, r3, #1
 c107420:	e20320ff 	and	r2, r3, #255	; 0xff
 c107424:	e59f3260 	ldr	r3, [pc, #608]	; c10768c <rtc_gettime+0x464>
 c107428:	e5933000 	ldr	r3, [r3]
 c10742c:	e20330ff 	and	r3, r3, #255	; 0xff
 c107430:	e203300f 	and	r3, r3, #15
 c107434:	e20330ff 	and	r3, r3, #255	; 0xff
 c107438:	e0823003 	add	r3, r2, r3
 c10743c:	e20320ff 	and	r2, r3, #255	; 0xff
 c107440:	e51b3010 	ldr	r3, [fp, #-16]
 c107444:	e5c32000 	strb	r2, [r3]
 c107448:	e51b3010 	ldr	r3, [fp, #-16]
 c10744c:	e5d33000 	ldrb	r3, [r3]
 c107450:	e3530000 	cmp	r3, #0
 c107454:	1a00007d 	bne	c107650 <rtc_gettime+0x428>
 c107458:	e59f3214 	ldr	r3, [pc, #532]	; c107674 <rtc_gettime+0x44c>
 c10745c:	e5933000 	ldr	r3, [r3]
 c107460:	e1a03223 	lsr	r3, r3, #4
 c107464:	e20330ff 	and	r3, r3, #255	; 0xff
 c107468:	e1a02003 	mov	r2, r3
 c10746c:	e1a02102 	lsl	r2, r2, #2
 c107470:	e0823003 	add	r3, r2, r3
 c107474:	e1a03083 	lsl	r3, r3, #1
 c107478:	e20320ff 	and	r2, r3, #255	; 0xff
 c10747c:	e59f31f0 	ldr	r3, [pc, #496]	; c107674 <rtc_gettime+0x44c>
 c107480:	e5933000 	ldr	r3, [r3]
 c107484:	e20330ff 	and	r3, r3, #255	; 0xff
 c107488:	e203300f 	and	r3, r3, #15
 c10748c:	e20330ff 	and	r3, r3, #255	; 0xff
 c107490:	e0823003 	add	r3, r2, r3
 c107494:	e20320ff 	and	r2, r3, #255	; 0xff
 c107498:	e51b3010 	ldr	r3, [fp, #-16]
 c10749c:	e5c32006 	strb	r2, [r3, #6]
 c1074a0:	e59f31d0 	ldr	r3, [pc, #464]	; c107678 <rtc_gettime+0x450>
 c1074a4:	e5933000 	ldr	r3, [r3]
 c1074a8:	e1a03223 	lsr	r3, r3, #4
 c1074ac:	e20330ff 	and	r3, r3, #255	; 0xff
 c1074b0:	e1a02003 	mov	r2, r3
 c1074b4:	e1a02102 	lsl	r2, r2, #2
 c1074b8:	e0823003 	add	r3, r2, r3
 c1074bc:	e1a03083 	lsl	r3, r3, #1
 c1074c0:	e20320ff 	and	r2, r3, #255	; 0xff
 c1074c4:	e59f31ac 	ldr	r3, [pc, #428]	; c107678 <rtc_gettime+0x450>
 c1074c8:	e5933000 	ldr	r3, [r3]
 c1074cc:	e20330ff 	and	r3, r3, #255	; 0xff
 c1074d0:	e203300f 	and	r3, r3, #15
 c1074d4:	e20330ff 	and	r3, r3, #255	; 0xff
 c1074d8:	e0823003 	add	r3, r2, r3
 c1074dc:	e20320ff 	and	r2, r3, #255	; 0xff
 c1074e0:	e51b3010 	ldr	r3, [fp, #-16]
 c1074e4:	e5c32005 	strb	r2, [r3, #5]
 c1074e8:	e59f318c 	ldr	r3, [pc, #396]	; c10767c <rtc_gettime+0x454>
 c1074ec:	e5933000 	ldr	r3, [r3]
 c1074f0:	e1a03223 	lsr	r3, r3, #4
 c1074f4:	e20330ff 	and	r3, r3, #255	; 0xff
 c1074f8:	e1a02003 	mov	r2, r3
 c1074fc:	e1a02102 	lsl	r2, r2, #2
 c107500:	e0823003 	add	r3, r2, r3
 c107504:	e1a03083 	lsl	r3, r3, #1
 c107508:	e20320ff 	and	r2, r3, #255	; 0xff
 c10750c:	e59f3168 	ldr	r3, [pc, #360]	; c10767c <rtc_gettime+0x454>
 c107510:	e5933000 	ldr	r3, [r3]
 c107514:	e20330ff 	and	r3, r3, #255	; 0xff
 c107518:	e203300f 	and	r3, r3, #15
 c10751c:	e20330ff 	and	r3, r3, #255	; 0xff
 c107520:	e0823003 	add	r3, r2, r3
 c107524:	e20320ff 	and	r2, r3, #255	; 0xff
 c107528:	e51b3010 	ldr	r3, [fp, #-16]
 c10752c:	e5c32003 	strb	r2, [r3, #3]
 c107530:	e59f3148 	ldr	r3, [pc, #328]	; c107680 <rtc_gettime+0x458>
 c107534:	e5933000 	ldr	r3, [r3]
 c107538:	e1a03223 	lsr	r3, r3, #4
 c10753c:	e20330ff 	and	r3, r3, #255	; 0xff
 c107540:	e1a02003 	mov	r2, r3
 c107544:	e1a02102 	lsl	r2, r2, #2
 c107548:	e0823003 	add	r3, r2, r3
 c10754c:	e1a03083 	lsl	r3, r3, #1
 c107550:	e20320ff 	and	r2, r3, #255	; 0xff
 c107554:	e59f3124 	ldr	r3, [pc, #292]	; c107680 <rtc_gettime+0x458>
 c107558:	e5933000 	ldr	r3, [r3]
 c10755c:	e20330ff 	and	r3, r3, #255	; 0xff
 c107560:	e203300f 	and	r3, r3, #15
 c107564:	e20330ff 	and	r3, r3, #255	; 0xff
 c107568:	e0823003 	add	r3, r2, r3
 c10756c:	e20320ff 	and	r2, r3, #255	; 0xff
 c107570:	e51b3010 	ldr	r3, [fp, #-16]
 c107574:	e5c32004 	strb	r2, [r3, #4]
 c107578:	e59f3104 	ldr	r3, [pc, #260]	; c107684 <rtc_gettime+0x45c>
 c10757c:	e5933000 	ldr	r3, [r3]
 c107580:	e1a03223 	lsr	r3, r3, #4
 c107584:	e20330ff 	and	r3, r3, #255	; 0xff
 c107588:	e1a02003 	mov	r2, r3
 c10758c:	e1a02102 	lsl	r2, r2, #2
 c107590:	e0823003 	add	r3, r2, r3
 c107594:	e1a03083 	lsl	r3, r3, #1
 c107598:	e20320ff 	and	r2, r3, #255	; 0xff
 c10759c:	e59f30e0 	ldr	r3, [pc, #224]	; c107684 <rtc_gettime+0x45c>
 c1075a0:	e5933000 	ldr	r3, [r3]
 c1075a4:	e20330ff 	and	r3, r3, #255	; 0xff
 c1075a8:	e203300f 	and	r3, r3, #15
 c1075ac:	e20330ff 	and	r3, r3, #255	; 0xff
 c1075b0:	e0823003 	add	r3, r2, r3
 c1075b4:	e20320ff 	and	r2, r3, #255	; 0xff
 c1075b8:	e51b3010 	ldr	r3, [fp, #-16]
 c1075bc:	e5c32002 	strb	r2, [r3, #2]
 c1075c0:	e59f30c0 	ldr	r3, [pc, #192]	; c107688 <rtc_gettime+0x460>
 c1075c4:	e5933000 	ldr	r3, [r3]
 c1075c8:	e1a03223 	lsr	r3, r3, #4
 c1075cc:	e20330ff 	and	r3, r3, #255	; 0xff
 c1075d0:	e1a02003 	mov	r2, r3
 c1075d4:	e1a02102 	lsl	r2, r2, #2
 c1075d8:	e0823003 	add	r3, r2, r3
 c1075dc:	e1a03083 	lsl	r3, r3, #1
 c1075e0:	e20320ff 	and	r2, r3, #255	; 0xff
 c1075e4:	e59f309c 	ldr	r3, [pc, #156]	; c107688 <rtc_gettime+0x460>
 c1075e8:	e5933000 	ldr	r3, [r3]
 c1075ec:	e20330ff 	and	r3, r3, #255	; 0xff
 c1075f0:	e203300f 	and	r3, r3, #15
 c1075f4:	e20330ff 	and	r3, r3, #255	; 0xff
 c1075f8:	e0823003 	add	r3, r2, r3
 c1075fc:	e20320ff 	and	r2, r3, #255	; 0xff
 c107600:	e51b3010 	ldr	r3, [fp, #-16]
 c107604:	e5c32001 	strb	r2, [r3, #1]
 c107608:	e59f307c 	ldr	r3, [pc, #124]	; c10768c <rtc_gettime+0x464>
 c10760c:	e5933000 	ldr	r3, [r3]
 c107610:	e1a03223 	lsr	r3, r3, #4
 c107614:	e20330ff 	and	r3, r3, #255	; 0xff
 c107618:	e1a02003 	mov	r2, r3
 c10761c:	e1a02102 	lsl	r2, r2, #2
 c107620:	e0823003 	add	r3, r2, r3
 c107624:	e1a03083 	lsl	r3, r3, #1
 c107628:	e20320ff 	and	r2, r3, #255	; 0xff
 c10762c:	e59f3058 	ldr	r3, [pc, #88]	; c10768c <rtc_gettime+0x464>
 c107630:	e5933000 	ldr	r3, [r3]
 c107634:	e20330ff 	and	r3, r3, #255	; 0xff
 c107638:	e203300f 	and	r3, r3, #15
 c10763c:	e20330ff 	and	r3, r3, #255	; 0xff
 c107640:	e0823003 	add	r3, r2, r3
 c107644:	e20320ff 	and	r2, r3, #255	; 0xff
 c107648:	e51b3010 	ldr	r3, [fp, #-16]
 c10764c:	e5c32000 	strb	r2, [r3]
 c107650:	e59f3018 	ldr	r3, [pc, #24]	; c107670 <rtc_gettime+0x448>
 c107654:	e59f2014 	ldr	r2, [pc, #20]	; c107670 <rtc_gettime+0x448>
 c107658:	e5922000 	ldr	r2, [r2]
 c10765c:	e3c22001 	bic	r2, r2, #1
 c107660:	e5832000 	str	r2, [r3]
 c107664:	e24bd00c 	sub	sp, fp, #12
 c107668:	e89d6800 	ldm	sp, {fp, sp, lr}
 c10766c:	e12fff1e 	bx	lr
 c107670:	01d70040 	.word	0x01d70040
 c107674:	01d70088 	.word	0x01d70088
 c107678:	01d70084 	.word	0x01d70084
 c10767c:	01d7007c 	.word	0x01d7007c
 c107680:	01d70080 	.word	0x01d70080
 c107684:	01d70078 	.word	0x01d70078
 c107688:	01d70074 	.word	0x01d70074
 c10768c:	01d70070 	.word	0x01d70070

0c107690 <rtc_open>:
 c107690:	e1a0c00d 	mov	ip, sp
 c107694:	e92dd800 	push	{fp, ip, lr, pc}
 c107698:	e24cb004 	sub	fp, ip, #4
 c10769c:	e24dd008 	sub	sp, sp, #8
 c1076a0:	e50b0010 	str	r0, [fp, #-16]
 c1076a4:	e1a03001 	mov	r3, r1
 c1076a8:	e54b3011 	strb	r3, [fp, #-17]	; 0xffffffef
 c1076ac:	e59f3040 	ldr	r3, [pc, #64]	; c1076f4 <rtc_open+0x64>
 c1076b0:	e51b2010 	ldr	r2, [fp, #-16]
 c1076b4:	e5832000 	str	r2, [r3]
 c1076b8:	e59f3038 	ldr	r3, [pc, #56]	; c1076f8 <rtc_open+0x68>
 c1076bc:	e3a02601 	mov	r2, #1048576	; 0x100000
 c1076c0:	e5832000 	str	r2, [r3]
 c1076c4:	e59f3030 	ldr	r3, [pc, #48]	; c1076fc <rtc_open+0x6c>
 c1076c8:	e59f202c 	ldr	r2, [pc, #44]	; c1076fc <rtc_open+0x6c>
 c1076cc:	e5922000 	ldr	r2, [r2]
 c1076d0:	e3c22641 	bic	r2, r2, #68157440	; 0x4100000
 c1076d4:	e5832000 	str	r2, [r3]
 c1076d8:	e59f3020 	ldr	r3, [pc, #32]	; c107700 <rtc_open+0x70>
 c1076dc:	e55b2011 	ldrb	r2, [fp, #-17]	; 0xffffffef
 c1076e0:	e3822080 	orr	r2, r2, #128	; 0x80
 c1076e4:	e5832000 	str	r2, [r3]
 c1076e8:	e24bd00c 	sub	sp, fp, #12
 c1076ec:	e89d6800 	ldm	sp, {fp, sp, lr}
 c1076f0:	e12fff1e 	bx	lr
 c1076f4:	0c7fff70 	.word	0x0c7fff70
 c1076f8:	01e00024 	.word	0x01e00024
 c1076fc:	01e0000c 	.word	0x01e0000c
 c107700:	01d7008c 	.word	0x01d7008c

0c107704 <rtc_close>:
 c107704:	e1a0c00d 	mov	ip, sp
 c107708:	e92dd800 	push	{fp, ip, lr, pc}
 c10770c:	e24cb004 	sub	fp, ip, #4
 c107710:	e59f3030 	ldr	r3, [pc, #48]	; c107748 <rtc_close+0x44>
 c107714:	e3a02000 	mov	r2, #0
 c107718:	e5832000 	str	r2, [r3]
 c10771c:	e59f3028 	ldr	r3, [pc, #40]	; c10774c <rtc_close+0x48>
 c107720:	e59f2024 	ldr	r2, [pc, #36]	; c10774c <rtc_close+0x48>
 c107724:	e5922000 	ldr	r2, [r2]
 c107728:	e3822601 	orr	r2, r2, #1048576	; 0x100000
 c10772c:	e5832000 	str	r2, [r3]
 c107730:	e59f3018 	ldr	r3, [pc, #24]	; c107750 <rtc_close+0x4c>
 c107734:	e59f2018 	ldr	r2, [pc, #24]	; c107754 <rtc_close+0x50>
 c107738:	e5832000 	str	r2, [r3]
 c10773c:	e24bd00c 	sub	sp, fp, #12
 c107740:	e89d6800 	ldm	sp, {fp, sp, lr}
 c107744:	e12fff1e 	bx	lr
 c107748:	01d7008c 	.word	0x01d7008c
 c10774c:	01e0000c 	.word	0x01e0000c
 c107750:	0c7fff70 	.word	0x0c7fff70
 c107754:	0c108868 	.word	0x0c108868

0c107758 <segs_init>:
 c107758:	e1a0c00d 	mov	ip, sp
 c10775c:	e92dd800 	push	{fp, ip, lr, pc}
 c107760:	e24cb004 	sub	fp, ip, #4
 c107764:	e3a0000a 	mov	r0, #10
 c107768:	ebfffd2a 	bl	c106c18 <power_on>
 c10776c:	e59f301c 	ldr	r3, [pc, #28]	; c107790 <segs_init+0x38>
 c107770:	e59f2018 	ldr	r2, [pc, #24]	; c107790 <segs_init+0x38>
 c107774:	e5922000 	ldr	r2, [r2]
 c107778:	e3822040 	orr	r2, r2, #64	; 0x40
 c10777c:	e5832000 	str	r2, [r3]
 c107780:	eb000003 	bl	c107794 <segs_off>
 c107784:	e24bd00c 	sub	sp, fp, #12
 c107788:	e89d6800 	ldm	sp, {fp, sp, lr}
 c10778c:	e12fff1e 	bx	lr
 c107790:	01d20008 	.word	0x01d20008

0c107794 <segs_off>:
 c107794:	e1a0c00d 	mov	ip, sp
 c107798:	e92dd800 	push	{fp, ip, lr, pc}
 c10779c:	e24cb004 	sub	fp, ip, #4
 c1077a0:	e59f3020 	ldr	r3, [pc, #32]	; c1077c8 <segs_off+0x34>
 c1077a4:	e3e02000 	mvn	r2, #0
 c1077a8:	e5c32000 	strb	r2, [r3]
 c1077ac:	e3a03785 	mov	r3, #34865152	; 0x2140000
 c1077b0:	e59f2010 	ldr	r2, [pc, #16]	; c1077c8 <segs_off+0x34>
 c1077b4:	e5d22000 	ldrb	r2, [r2]
 c1077b8:	e5c32000 	strb	r2, [r3]
 c1077bc:	e24bd00c 	sub	sp, fp, #12
 c1077c0:	e89d6800 	ldm	sp, {fp, sp, lr}
 c1077c4:	e12fff1e 	bx	lr
 c1077c8:	0c117a5c 	.word	0x0c117a5c

0c1077cc <segs_putchar>:
 c1077cc:	e1a0c00d 	mov	ip, sp
 c1077d0:	e92dd800 	push	{fp, ip, lr, pc}
 c1077d4:	e24cb004 	sub	fp, ip, #4
 c1077d8:	e24dd008 	sub	sp, sp, #8
 c1077dc:	e1a03000 	mov	r3, r0
 c1077e0:	e54b300d 	strb	r3, [fp, #-13]
 c1077e4:	e55b300d 	ldrb	r3, [fp, #-13]
 c1077e8:	e203300f 	and	r3, r3, #15
 c1077ec:	e20320ff 	and	r2, r3, #255	; 0xff
 c1077f0:	e59f3024 	ldr	r3, [pc, #36]	; c10781c <segs_putchar+0x50>
 c1077f4:	e5c32000 	strb	r2, [r3]
 c1077f8:	e3a03785 	mov	r3, #34865152	; 0x2140000
 c1077fc:	e59f2018 	ldr	r2, [pc, #24]	; c10781c <segs_putchar+0x50>
 c107800:	e5d22000 	ldrb	r2, [r2]
 c107804:	e59f1014 	ldr	r1, [pc, #20]	; c107820 <segs_putchar+0x54>
 c107808:	e7d12002 	ldrb	r2, [r1, r2]
 c10780c:	e5c32000 	strb	r2, [r3]
 c107810:	e24bd00c 	sub	sp, fp, #12
 c107814:	e89d6800 	ldm	sp, {fp, sp, lr}
 c107818:	e12fff1e 	bx	lr
 c10781c:	0c117a5c 	.word	0x0c117a5c
 c107820:	0c10c85c 	.word	0x0c10c85c

0c107824 <segs_status>:
 c107824:	e1a0c00d 	mov	ip, sp
 c107828:	e92dd800 	push	{fp, ip, lr, pc}
 c10782c:	e24cb004 	sub	fp, ip, #4
 c107830:	e59f3010 	ldr	r3, [pc, #16]	; c107848 <segs_status+0x24>
 c107834:	e5d33000 	ldrb	r3, [r3]
 c107838:	e1a00003 	mov	r0, r3
 c10783c:	e24bd00c 	sub	sp, fp, #12
 c107840:	e89d6800 	ldm	sp, {fp, sp, lr}
 c107844:	e12fff1e 	bx	lr
 c107848:	0c117a5c 	.word	0x0c117a5c

0c10784c <sys_init>:
 c10784c:	e1a0c00d 	mov	ip, sp
 c107850:	e92dd800 	push	{fp, ip, lr, pc}
 c107854:	e24cb004 	sub	fp, ip, #4
 c107858:	e24dd008 	sub	sp, sp, #8
 c10785c:	e59f3124 	ldr	r3, [pc, #292]	; c107988 <sys_init+0x13c>
 c107860:	e3a02000 	mov	r2, #0
 c107864:	e5832000 	str	r2, [r3]
 c107868:	e59f311c 	ldr	r3, [pc, #284]	; c10798c <sys_init+0x140>
 c10786c:	e3e02000 	mvn	r2, #0
 c107870:	e5832000 	str	r2, [r3]
 c107874:	e10f0000 	mrs	r0, CPSR
 c107878:	e200001f 	and	r0, r0, #31
 c10787c:	e54b000d 	strb	r0, [fp, #-13]
 c107880:	e55b300d 	ldrb	r3, [fp, #-13]
 c107884:	e3530013 	cmp	r3, #19
 c107888:	0a000000 	beq	c107890 <sys_init+0x44>
 c10788c:	eb000051 	bl	c1079d8 <sys_recovery>
 c107890:	e59f30f8 	ldr	r3, [pc, #248]	; c107990 <sys_init+0x144>
 c107894:	e59f20f8 	ldr	r2, [pc, #248]	; c107994 <sys_init+0x148>
 c107898:	e5832000 	str	r2, [r3]
 c10789c:	e3a03776 	mov	r3, #30932992	; 0x1d80000
 c1078a0:	e59f20f0 	ldr	r2, [pc, #240]	; c107998 <sys_init+0x14c>
 c1078a4:	e5832000 	str	r2, [r3]
 c1078a8:	e59f30ec 	ldr	r3, [pc, #236]	; c10799c <sys_init+0x150>
 c1078ac:	e59f20ec 	ldr	r2, [pc, #236]	; c1079a0 <sys_init+0x154>
 c1078b0:	e5832000 	str	r2, [r3]
 c1078b4:	e59f30e8 	ldr	r3, [pc, #232]	; c1079a4 <sys_init+0x158>
 c1078b8:	e3a02008 	mov	r2, #8
 c1078bc:	e5832000 	str	r2, [r3]
 c1078c0:	e59f30e0 	ldr	r3, [pc, #224]	; c1079a8 <sys_init+0x15c>
 c1078c4:	e59f20e0 	ldr	r2, [pc, #224]	; c1079ac <sys_init+0x160>
 c1078c8:	e5832000 	str	r2, [r3]
 c1078cc:	e59f30dc 	ldr	r3, [pc, #220]	; c1079b0 <sys_init+0x164>
 c1078d0:	e59f20dc 	ldr	r2, [pc, #220]	; c1079b4 <sys_init+0x168>
 c1078d4:	e5832000 	str	r2, [r3]
 c1078d8:	e59f30bc 	ldr	r3, [pc, #188]	; c10799c <sys_init+0x150>
 c1078dc:	e5932000 	ldr	r2, [r3]
 c1078e0:	e59f30d0 	ldr	r3, [pc, #208]	; c1079b8 <sys_init+0x16c>
 c1078e4:	e5832000 	str	r2, [r3]
 c1078e8:	e3a03771 	mov	r3, #29622272	; 0x1c40000
 c1078ec:	e3a0216e 	mov	r2, #-2147483621	; 0x8000001b
 c1078f0:	e5832000 	str	r2, [r3]
 c1078f4:	e3a03507 	mov	r3, #29360128	; 0x1c00000
 c1078f8:	e3a02000 	mov	r2, #0
 c1078fc:	e5832000 	str	r2, [r3]
 c107900:	e59f30b4 	ldr	r3, [pc, #180]	; c1079bc <sys_init+0x170>
 c107904:	e59f20b4 	ldr	r2, [pc, #180]	; c1079c0 <sys_init+0x174>
 c107908:	e5832000 	str	r2, [r3]
 c10790c:	e59f30b0 	ldr	r3, [pc, #176]	; c1079c4 <sys_init+0x178>
 c107910:	e59f20b0 	ldr	r2, [pc, #176]	; c1079c8 <sys_init+0x17c>
 c107914:	e5832000 	str	r2, [r3]
 c107918:	e59f30ac 	ldr	r3, [pc, #172]	; c1079cc <sys_init+0x180>
 c10791c:	e3a02000 	mov	r2, #0
 c107920:	e5832000 	str	r2, [r3]
 c107924:	eb000159 	bl	c107e90 <install_dummy_isr>
 c107928:	e59f30a0 	ldr	r3, [pc, #160]	; c1079d0 <sys_init+0x184>
 c10792c:	e3e02000 	mvn	r2, #0
 c107930:	e5832000 	str	r2, [r3]
 c107934:	e59f3098 	ldr	r3, [pc, #152]	; c1079d4 <sys_init+0x188>
 c107938:	e3e02000 	mvn	r2, #0
 c10793c:	e5832000 	str	r2, [r3]
 c107940:	e3a0361e 	mov	r3, #31457280	; 0x1e00000
 c107944:	e3a02001 	mov	r2, #1
 c107948:	e5832000 	str	r2, [r3]
 c10794c:	e10f0000 	mrs	r0, CPSR
 c107950:	e3c00080 	bic	r0, r0, #128	; 0x80
 c107954:	e3800000 	orr	r0, r0, #0
 c107958:	e121f000 	msr	CPSR_c, r0
 c10795c:	e10f0000 	mrs	r0, CPSR
 c107960:	e3c00040 	bic	r0, r0, #64	; 0x40
 c107964:	e3800040 	orr	r0, r0, #64	; 0x40
 c107968:	e121f000 	msr	CPSR_c, r0
 c10796c:	eb0000a1 	bl	c107bf8 <port_init>
 c107970:	ebffff78 	bl	c107758 <segs_init>
 c107974:	eb000b1d 	bl	c10a5f0 <uart0_init>
 c107978:	eb000426 	bl	c108a18 <show_sys_info>
 c10797c:	e24bd00c 	sub	sp, fp, #12
 c107980:	e89d6800 	ldm	sp, {fp, sp, lr}
 c107984:	e12fff1e 	bx	lr
 c107988:	01d30000 	.word	0x01d30000
 c10798c:	01e0000c 	.word	0x01e0000c
 c107990:	01d8000c 	.word	0x01d8000c
 c107994:	00000fff 	.word	0x00000fff
 c107998:	00038021 	.word	0x00038021
 c10799c:	0c10e004 	.word	0x0c10e004
 c1079a0:	03d09000 	.word	0x03d09000
 c1079a4:	01d80008 	.word	0x01d80008
 c1079a8:	0c10e008 	.word	0x0c10e008
 c1079ac:	0007a120 	.word	0x0007a120
 c1079b0:	01d80004 	.word	0x01d80004
 c1079b4:	00007ff8 	.word	0x00007ff8
 c1079b8:	0c10e00c 	.word	0x0c10e00c
 c1079bc:	01e00014 	.word	0x01e00014
 c1079c0:	00001f1b 	.word	0x00001f1b
 c1079c4:	01e00010 	.word	0x01e00010
 c1079c8:	1b1b1b1b 	.word	0x1b1b1b1b
 c1079cc:	01e00008 	.word	0x01e00008
 c1079d0:	01d20054 	.word	0x01d20054
 c1079d4:	01e00024 	.word	0x01e00024

0c1079d8 <sys_recovery>:
 c1079d8:	e1a0c00d 	mov	ip, sp
 c1079dc:	e92dd800 	push	{fp, ip, lr, pc}
 c1079e0:	e24cb004 	sub	fp, ip, #4
 c1079e4:	e24dd018 	sub	sp, sp, #24
 c1079e8:	e50bd01c 	str	sp, [fp, #-28]	; 0xffffffe4
 c1079ec:	e50bb020 	str	fp, [fp, #-32]	; 0xffffffe0
 c1079f0:	e10f0000 	mrs	r0, CPSR
 c1079f4:	e200001f 	and	r0, r0, #31
 c1079f8:	e54b0015 	strb	r0, [fp, #-21]	; 0xffffffeb
 c1079fc:	e55b3015 	ldrb	r3, [fp, #-21]	; 0xffffffeb
 c107a00:	e2433011 	sub	r3, r3, #17
 c107a04:	e353000a 	cmp	r3, #10
 c107a08:	979ff103 	ldrls	pc, [pc, r3, lsl #2]
 c107a0c:	ea00001e 	b	c107a8c <sys_recovery+0xb4>
 c107a10:	0c107a50 	.word	0x0c107a50
 c107a14:	0c107a3c 	.word	0x0c107a3c
 c107a18:	0c107a8c 	.word	0x0c107a8c
 c107a1c:	0c107a8c 	.word	0x0c107a8c
 c107a20:	0c107a8c 	.word	0x0c107a8c
 c107a24:	0c107a8c 	.word	0x0c107a8c
 c107a28:	0c107a64 	.word	0x0c107a64
 c107a2c:	0c107a8c 	.word	0x0c107a8c
 c107a30:	0c107a8c 	.word	0x0c107a8c
 c107a34:	0c107a8c 	.word	0x0c107a8c
 c107a38:	0c107a78 	.word	0x0c107a78
 c107a3c:	e3a03c03 	mov	r3, #768	; 0x300
 c107a40:	e50b3014 	str	r3, [fp, #-20]	; 0xffffffec
 c107a44:	e59f3198 	ldr	r3, [pc, #408]	; c107be4 <sys_recovery+0x20c>
 c107a48:	e50b3024 	str	r3, [fp, #-36]	; 0xffffffdc
 c107a4c:	ea00000f 	b	c107a90 <sys_recovery+0xb8>
 c107a50:	e3a03b01 	mov	r3, #1024	; 0x400
 c107a54:	e50b3014 	str	r3, [fp, #-20]	; 0xffffffec
 c107a58:	e59f3188 	ldr	r3, [pc, #392]	; c107be8 <sys_recovery+0x210>
 c107a5c:	e50b3024 	str	r3, [fp, #-36]	; 0xffffffdc
 c107a60:	ea00000a 	b	c107a90 <sys_recovery+0xb8>
 c107a64:	e3a03c02 	mov	r3, #512	; 0x200
 c107a68:	e50b3014 	str	r3, [fp, #-20]	; 0xffffffec
 c107a6c:	e59f3178 	ldr	r3, [pc, #376]	; c107bec <sys_recovery+0x214>
 c107a70:	e50b3024 	str	r3, [fp, #-36]	; 0xffffffdc
 c107a74:	ea000005 	b	c107a90 <sys_recovery+0xb8>
 c107a78:	e3a03c01 	mov	r3, #256	; 0x100
 c107a7c:	e50b3014 	str	r3, [fp, #-20]	; 0xffffffec
 c107a80:	e59f3168 	ldr	r3, [pc, #360]	; c107bf0 <sys_recovery+0x218>
 c107a84:	e50b3024 	str	r3, [fp, #-36]	; 0xffffffdc
 c107a88:	ea000000 	b	c107a90 <sys_recovery+0xb8>
 c107a8c:	eafffffe 	b	c107a8c <sys_recovery+0xb4>
 c107a90:	e51bd024 	ldr	sp, [fp, #-36]	; 0xffffffdc
 c107a94:	e59f3158 	ldr	r3, [pc, #344]	; c107bf4 <sys_recovery+0x21c>
 c107a98:	e50b3010 	str	r3, [fp, #-16]
 c107a9c:	ea000009 	b	c107ac8 <sys_recovery+0xf0>
 c107aa0:	e51b3010 	ldr	r3, [fp, #-16]
 c107aa4:	e2433004 	sub	r3, r3, #4
 c107aa8:	e50b3010 	str	r3, [fp, #-16]
 c107aac:	e51b3024 	ldr	r3, [fp, #-36]	; 0xffffffdc
 c107ab0:	e2433004 	sub	r3, r3, #4
 c107ab4:	e50b3024 	str	r3, [fp, #-36]	; 0xffffffdc
 c107ab8:	e51b3024 	ldr	r3, [fp, #-36]	; 0xffffffdc
 c107abc:	e5932000 	ldr	r2, [r3]
 c107ac0:	e51b3010 	ldr	r3, [fp, #-16]
 c107ac4:	e5832000 	str	r2, [r3]
 c107ac8:	e51b301c 	ldr	r3, [fp, #-28]	; 0xffffffe4
 c107acc:	e1a02003 	mov	r2, r3
 c107ad0:	e51b3024 	ldr	r3, [fp, #-36]	; 0xffffffdc
 c107ad4:	e1520003 	cmp	r2, r3
 c107ad8:	3afffff0 	bcc	c107aa0 <sys_recovery+0xc8>
 c107adc:	e51b2020 	ldr	r2, [fp, #-32]	; 0xffffffe0
 c107ae0:	e51b3014 	ldr	r3, [fp, #-20]	; 0xffffffec
 c107ae4:	e0633002 	rsb	r3, r3, r2
 c107ae8:	e50b3010 	str	r3, [fp, #-16]
 c107aec:	e51b3010 	ldr	r3, [fp, #-16]
 c107af0:	e2433004 	sub	r3, r3, #4
 c107af4:	e50b3010 	str	r3, [fp, #-16]
 c107af8:	e51b3010 	ldr	r3, [fp, #-16]
 c107afc:	e2433004 	sub	r3, r3, #4
 c107b00:	e50b3010 	str	r3, [fp, #-16]
 c107b04:	e51b3010 	ldr	r3, [fp, #-16]
 c107b08:	e5932000 	ldr	r2, [r3]
 c107b0c:	e51b3014 	ldr	r3, [fp, #-20]	; 0xffffffec
 c107b10:	e0632002 	rsb	r2, r3, r2
 c107b14:	e51b3010 	ldr	r3, [fp, #-16]
 c107b18:	e5832000 	str	r2, [r3]
 c107b1c:	e51b3010 	ldr	r3, [fp, #-16]
 c107b20:	e2433004 	sub	r3, r3, #4
 c107b24:	e50b3010 	str	r3, [fp, #-16]
 c107b28:	e51b3010 	ldr	r3, [fp, #-16]
 c107b2c:	e5932000 	ldr	r2, [r3]
 c107b30:	e51b3014 	ldr	r3, [fp, #-20]	; 0xffffffec
 c107b34:	e0632002 	rsb	r2, r3, r2
 c107b38:	e51b3010 	ldr	r3, [fp, #-16]
 c107b3c:	e5832000 	str	r2, [r3]
 c107b40:	e51b3010 	ldr	r3, [fp, #-16]
 c107b44:	e5933000 	ldr	r3, [r3]
 c107b48:	e50b3010 	str	r3, [fp, #-16]
 c107b4c:	e51b3010 	ldr	r3, [fp, #-16]
 c107b50:	e2433004 	sub	r3, r3, #4
 c107b54:	e50b3010 	str	r3, [fp, #-16]
 c107b58:	e51b3010 	ldr	r3, [fp, #-16]
 c107b5c:	e2433004 	sub	r3, r3, #4
 c107b60:	e50b3010 	str	r3, [fp, #-16]
 c107b64:	e51b3010 	ldr	r3, [fp, #-16]
 c107b68:	e5932000 	ldr	r2, [r3]
 c107b6c:	e51b3014 	ldr	r3, [fp, #-20]	; 0xffffffec
 c107b70:	e0632002 	rsb	r2, r3, r2
 c107b74:	e51b3010 	ldr	r3, [fp, #-16]
 c107b78:	e5832000 	str	r2, [r3]
 c107b7c:	e51b3010 	ldr	r3, [fp, #-16]
 c107b80:	e2433004 	sub	r3, r3, #4
 c107b84:	e50b3010 	str	r3, [fp, #-16]
 c107b88:	e51b3010 	ldr	r3, [fp, #-16]
 c107b8c:	e5932000 	ldr	r2, [r3]
 c107b90:	e51b3014 	ldr	r3, [fp, #-20]	; 0xffffffec
 c107b94:	e0632002 	rsb	r2, r3, r2
 c107b98:	e51b3010 	ldr	r3, [fp, #-16]
 c107b9c:	e5832000 	str	r2, [r3]
 c107ba0:	e10f0000 	mrs	r0, CPSR
 c107ba4:	e3c0001f 	bic	r0, r0, #31
 c107ba8:	e3800013 	orr	r0, r0, #19
 c107bac:	e121f000 	msr	CPSR_c, r0
 c107bb0:	e51b201c 	ldr	r2, [fp, #-28]	; 0xffffffe4
 c107bb4:	e51b3014 	ldr	r3, [fp, #-20]	; 0xffffffec
 c107bb8:	e0633002 	rsb	r3, r3, r2
 c107bbc:	e50b301c 	str	r3, [fp, #-28]	; 0xffffffe4
 c107bc0:	e51bd01c 	ldr	sp, [fp, #-28]	; 0xffffffe4
 c107bc4:	e51b2020 	ldr	r2, [fp, #-32]	; 0xffffffe0
 c107bc8:	e51b3014 	ldr	r3, [fp, #-20]	; 0xffffffec
 c107bcc:	e0633002 	rsb	r3, r3, r2
 c107bd0:	e50b3020 	str	r3, [fp, #-32]	; 0xffffffe0
 c107bd4:	e51bb020 	ldr	fp, [fp, #-32]	; 0xffffffe0
 c107bd8:	e24bd00c 	sub	sp, fp, #12
 c107bdc:	e89d6800 	ldm	sp, {fp, sp, lr}
 c107be0:	e12fff1e 	bx	lr
 c107be4:	0c7ff400 	.word	0x0c7ff400
 c107be8:	0c7ff500 	.word	0x0c7ff500
 c107bec:	0c7ff300 	.word	0x0c7ff300
 c107bf0:	0c7ff200 	.word	0x0c7ff200
 c107bf4:	0c7ff100 	.word	0x0c7ff100

0c107bf8 <port_init>:
 c107bf8:	e1a0c00d 	mov	ip, sp
 c107bfc:	e92dd800 	push	{fp, ip, lr, pc}
 c107c00:	e24cb004 	sub	fp, ip, #4
 c107c04:	e59f31fc 	ldr	r3, [pc, #508]	; c107e08 <port_init+0x210>
 c107c08:	e3e02000 	mvn	r2, #0
 c107c0c:	e5832000 	str	r2, [r3]
 c107c10:	e59f31f4 	ldr	r3, [pc, #500]	; c107e0c <port_init+0x214>
 c107c14:	e3a020fe 	mov	r2, #254	; 0xfe
 c107c18:	e5832000 	str	r2, [r3]
 c107c1c:	e59f31ec 	ldr	r3, [pc, #492]	; c107e10 <port_init+0x218>
 c107c20:	e3e02000 	mvn	r2, #0
 c107c24:	e5832000 	str	r2, [r3]
 c107c28:	e59f31e4 	ldr	r3, [pc, #484]	; c107e14 <port_init+0x21c>
 c107c2c:	e59f21e4 	ldr	r2, [pc, #484]	; c107e18 <port_init+0x220>
 c107c30:	e5832000 	str	r2, [r3]
 c107c34:	e59f31e0 	ldr	r3, [pc, #480]	; c107e1c <port_init+0x224>
 c107c38:	e3e02000 	mvn	r2, #0
 c107c3c:	e5832000 	str	r2, [r3]
 c107c40:	e59f31d8 	ldr	r3, [pc, #472]	; c107e20 <port_init+0x228>
 c107c44:	e59f21d8 	ldr	r2, [pc, #472]	; c107e24 <port_init+0x22c>
 c107c48:	e5832000 	str	r2, [r3]
 c107c4c:	e59f31d4 	ldr	r3, [pc, #468]	; c107e28 <port_init+0x230>
 c107c50:	e3e02000 	mvn	r2, #0
 c107c54:	e5832000 	str	r2, [r3]
 c107c58:	e59f31cc 	ldr	r3, [pc, #460]	; c107e2c <port_init+0x234>
 c107c5c:	e3e02000 	mvn	r2, #0
 c107c60:	e5832000 	str	r2, [r3]
 c107c64:	e59f31c4 	ldr	r3, [pc, #452]	; c107e30 <port_init+0x238>
 c107c68:	e59f21c4 	ldr	r2, [pc, #452]	; c107e34 <port_init+0x23c>
 c107c6c:	e5832000 	str	r2, [r3]
 c107c70:	e59f31c0 	ldr	r3, [pc, #448]	; c107e38 <port_init+0x240>
 c107c74:	e3e02000 	mvn	r2, #0
 c107c78:	e5832000 	str	r2, [r3]
 c107c7c:	e59f31b8 	ldr	r3, [pc, #440]	; c107e3c <port_init+0x244>
 c107c80:	e3e02000 	mvn	r2, #0
 c107c84:	e5832000 	str	r2, [r3]
 c107c88:	e59f31b0 	ldr	r3, [pc, #432]	; c107e40 <port_init+0x248>
 c107c8c:	e59f21b0 	ldr	r2, [pc, #432]	; c107e44 <port_init+0x24c>
 c107c90:	e5832000 	str	r2, [r3]
 c107c94:	e59f31ac 	ldr	r3, [pc, #428]	; c107e48 <port_init+0x250>
 c107c98:	e3e02000 	mvn	r2, #0
 c107c9c:	e5832000 	str	r2, [r3]
 c107ca0:	e59f31a4 	ldr	r3, [pc, #420]	; c107e4c <port_init+0x254>
 c107ca4:	e3e02000 	mvn	r2, #0
 c107ca8:	e5832000 	str	r2, [r3]
 c107cac:	e59f319c 	ldr	r3, [pc, #412]	; c107e50 <port_init+0x258>
 c107cb0:	e59f219c 	ldr	r2, [pc, #412]	; c107e54 <port_init+0x25c>
 c107cb4:	e5832000 	str	r2, [r3]
 c107cb8:	e59f3198 	ldr	r3, [pc, #408]	; c107e58 <port_init+0x260>
 c107cbc:	e3e02000 	mvn	r2, #0
 c107cc0:	e5832000 	str	r2, [r3]
 c107cc4:	e59f3190 	ldr	r3, [pc, #400]	; c107e5c <port_init+0x264>
 c107cc8:	e3e02000 	mvn	r2, #0
 c107ccc:	e5832000 	str	r2, [r3]
 c107cd0:	e59f3188 	ldr	r3, [pc, #392]	; c107e60 <port_init+0x268>
 c107cd4:	e59f2158 	ldr	r2, [pc, #344]	; c107e34 <port_init+0x23c>
 c107cd8:	e5832000 	str	r2, [r3]
 c107cdc:	e59f3180 	ldr	r3, [pc, #384]	; c107e64 <port_init+0x26c>
 c107ce0:	e3e02000 	mvn	r2, #0
 c107ce4:	e5832000 	str	r2, [r3]
 c107ce8:	e59f3178 	ldr	r3, [pc, #376]	; c107e68 <port_init+0x270>
 c107cec:	e3a02007 	mov	r2, #7
 c107cf0:	e5832000 	str	r2, [r3]
 c107cf4:	e59f3170 	ldr	r3, [pc, #368]	; c107e6c <port_init+0x274>
 c107cf8:	e59f2170 	ldr	r2, [pc, #368]	; c107e70 <port_init+0x278>
 c107cfc:	e5832000 	str	r2, [r3]
 c107d00:	e59f3100 	ldr	r3, [pc, #256]	; c107e08 <port_init+0x210>
 c107d04:	e3e02000 	mvn	r2, #0
 c107d08:	e5832000 	str	r2, [r3]
 c107d0c:	e59f30f8 	ldr	r3, [pc, #248]	; c107e0c <port_init+0x214>
 c107d10:	e3a020fe 	mov	r2, #254	; 0xfe
 c107d14:	e5832000 	str	r2, [r3]
 c107d18:	e59f30f0 	ldr	r3, [pc, #240]	; c107e10 <port_init+0x218>
 c107d1c:	e3e02000 	mvn	r2, #0
 c107d20:	e5832000 	str	r2, [r3]
 c107d24:	e59f30e8 	ldr	r3, [pc, #232]	; c107e14 <port_init+0x21c>
 c107d28:	e59f20e8 	ldr	r2, [pc, #232]	; c107e18 <port_init+0x220>
 c107d2c:	e5832000 	str	r2, [r3]
 c107d30:	e59f30e4 	ldr	r3, [pc, #228]	; c107e1c <port_init+0x224>
 c107d34:	e3e02000 	mvn	r2, #0
 c107d38:	e5832000 	str	r2, [r3]
 c107d3c:	e59f30dc 	ldr	r3, [pc, #220]	; c107e20 <port_init+0x228>
 c107d40:	e59f212c 	ldr	r2, [pc, #300]	; c107e74 <port_init+0x27c>
 c107d44:	e5832000 	str	r2, [r3]
 c107d48:	e59f30d8 	ldr	r3, [pc, #216]	; c107e28 <port_init+0x230>
 c107d4c:	e59f2124 	ldr	r2, [pc, #292]	; c107e78 <port_init+0x280>
 c107d50:	e5832000 	str	r2, [r3]
 c107d54:	e59f30d0 	ldr	r3, [pc, #208]	; c107e2c <port_init+0x234>
 c107d58:	e3e02000 	mvn	r2, #0
 c107d5c:	e5832000 	str	r2, [r3]
 c107d60:	e59f30c8 	ldr	r3, [pc, #200]	; c107e30 <port_init+0x238>
 c107d64:	e59f2110 	ldr	r2, [pc, #272]	; c107e7c <port_init+0x284>
 c107d68:	e5832000 	str	r2, [r3]
 c107d6c:	e59f30c4 	ldr	r3, [pc, #196]	; c107e38 <port_init+0x240>
 c107d70:	e3a020ff 	mov	r2, #255	; 0xff
 c107d74:	e5832000 	str	r2, [r3]
 c107d78:	e59f30bc 	ldr	r3, [pc, #188]	; c107e3c <port_init+0x244>
 c107d7c:	e3e02000 	mvn	r2, #0
 c107d80:	e5832000 	str	r2, [r3]
 c107d84:	e59f30b4 	ldr	r3, [pc, #180]	; c107e40 <port_init+0x248>
 c107d88:	e59f20f0 	ldr	r2, [pc, #240]	; c107e80 <port_init+0x288>
 c107d8c:	e5832000 	str	r2, [r3]
 c107d90:	e59f30b0 	ldr	r3, [pc, #176]	; c107e48 <port_init+0x250>
 c107d94:	e3a020fb 	mov	r2, #251	; 0xfb
 c107d98:	e5832000 	str	r2, [r3]
 c107d9c:	e59f30a8 	ldr	r3, [pc, #168]	; c107e4c <port_init+0x254>
 c107da0:	e3e02000 	mvn	r2, #0
 c107da4:	e5832000 	str	r2, [r3]
 c107da8:	e59f30a0 	ldr	r3, [pc, #160]	; c107e50 <port_init+0x258>
 c107dac:	e59f20d0 	ldr	r2, [pc, #208]	; c107e84 <port_init+0x28c>
 c107db0:	e5832000 	str	r2, [r3]
 c107db4:	e59f309c 	ldr	r3, [pc, #156]	; c107e58 <port_init+0x260>
 c107db8:	e3a02074 	mov	r2, #116	; 0x74
 c107dbc:	e5832000 	str	r2, [r3]
 c107dc0:	e59f3094 	ldr	r3, [pc, #148]	; c107e5c <port_init+0x264>
 c107dc4:	e3e02000 	mvn	r2, #0
 c107dc8:	e5832000 	str	r2, [r3]
 c107dcc:	e59f308c 	ldr	r3, [pc, #140]	; c107e60 <port_init+0x268>
 c107dd0:	e59f20b0 	ldr	r2, [pc, #176]	; c107e88 <port_init+0x290>
 c107dd4:	e5832000 	str	r2, [r3]
 c107dd8:	e59f3084 	ldr	r3, [pc, #132]	; c107e64 <port_init+0x26c>
 c107ddc:	e3a02030 	mov	r2, #48	; 0x30
 c107de0:	e5832000 	str	r2, [r3]
 c107de4:	e59f307c 	ldr	r3, [pc, #124]	; c107e68 <port_init+0x270>
 c107de8:	e3a02007 	mov	r2, #7
 c107dec:	e5832000 	str	r2, [r3]
 c107df0:	e59f3074 	ldr	r3, [pc, #116]	; c107e6c <port_init+0x274>
 c107df4:	e59f2090 	ldr	r2, [pc, #144]	; c107e8c <port_init+0x294>
 c107df8:	e5832000 	str	r2, [r3]
 c107dfc:	e24bd00c 	sub	sp, fp, #12
 c107e00:	e89d6800 	ldm	sp, {fp, sp, lr}
 c107e04:	e12fff1e 	bx	lr
 c107e08:	01d20004 	.word	0x01d20004
 c107e0c:	01d20000 	.word	0x01d20000
 c107e10:	01d2000c 	.word	0x01d2000c
 c107e14:	01d20008 	.word	0x01d20008
 c107e18:	0000014f 	.word	0x0000014f
 c107e1c:	01d20014 	.word	0x01d20014
 c107e20:	01d20010 	.word	0x01d20010
 c107e24:	55555555 	.word	0x55555555
 c107e28:	01d20018 	.word	0x01d20018
 c107e2c:	01d20020 	.word	0x01d20020
 c107e30:	01d2001c 	.word	0x01d2001c
 c107e34:	00005555 	.word	0x00005555
 c107e38:	01d20024 	.word	0x01d20024
 c107e3c:	01d2002c 	.word	0x01d2002c
 c107e40:	01d20028 	.word	0x01d20028
 c107e44:	00015555 	.word	0x00015555
 c107e48:	01d20030 	.word	0x01d20030
 c107e4c:	01d20038 	.word	0x01d20038
 c107e50:	01d20034 	.word	0x01d20034
 c107e54:	00002555 	.word	0x00002555
 c107e58:	01d2003c 	.word	0x01d2003c
 c107e5c:	01d20044 	.word	0x01d20044
 c107e60:	01d20040 	.word	0x01d20040
 c107e64:	01d20048 	.word	0x01d20048
 c107e68:	01d2004c 	.word	0x01d2004c
 c107e6c:	01d20050 	.word	0x01d20050
 c107e70:	22222222 	.word	0x22222222
 c107e74:	5ff555ff 	.word	0x5ff555ff
 c107e78:	000094fb 	.word	0x000094fb
 c107e7c:	0000aaaa 	.word	0x0000aaaa
 c107e80:	000255a9 	.word	0x000255a9
 c107e84:	0000251a 	.word	0x0000251a
 c107e88:	0000f5ff 	.word	0x0000f5ff
 c107e8c:	22000220 	.word	0x22000220

0c107e90 <install_dummy_isr>:
 c107e90:	e1a0c00d 	mov	ip, sp
 c107e94:	e92dd800 	push	{fp, ip, lr, pc}
 c107e98:	e24cb004 	sub	fp, ip, #4
 c107e9c:	e59f3184 	ldr	r3, [pc, #388]	; c108028 <install_dummy_isr+0x198>
 c107ea0:	e59f2184 	ldr	r2, [pc, #388]	; c10802c <install_dummy_isr+0x19c>
 c107ea4:	e5832000 	str	r2, [r3]
 c107ea8:	e59f3180 	ldr	r3, [pc, #384]	; c108030 <install_dummy_isr+0x1a0>
 c107eac:	e59f2180 	ldr	r2, [pc, #384]	; c108034 <install_dummy_isr+0x1a4>
 c107eb0:	e5832000 	str	r2, [r3]
 c107eb4:	e59f317c 	ldr	r3, [pc, #380]	; c108038 <install_dummy_isr+0x1a8>
 c107eb8:	e59f217c 	ldr	r2, [pc, #380]	; c10803c <install_dummy_isr+0x1ac>
 c107ebc:	e5832000 	str	r2, [r3]
 c107ec0:	e59f3178 	ldr	r3, [pc, #376]	; c108040 <install_dummy_isr+0x1b0>
 c107ec4:	e59f2178 	ldr	r2, [pc, #376]	; c108044 <install_dummy_isr+0x1b4>
 c107ec8:	e5832000 	str	r2, [r3]
 c107ecc:	e59f3174 	ldr	r3, [pc, #372]	; c108048 <install_dummy_isr+0x1b8>
 c107ed0:	e59f2174 	ldr	r2, [pc, #372]	; c10804c <install_dummy_isr+0x1bc>
 c107ed4:	e5832000 	str	r2, [r3]
 c107ed8:	e59f3170 	ldr	r3, [pc, #368]	; c108050 <install_dummy_isr+0x1c0>
 c107edc:	e59f2170 	ldr	r2, [pc, #368]	; c108054 <install_dummy_isr+0x1c4>
 c107ee0:	e5832000 	str	r2, [r3]
 c107ee4:	e59f316c 	ldr	r3, [pc, #364]	; c108058 <install_dummy_isr+0x1c8>
 c107ee8:	e59f216c 	ldr	r2, [pc, #364]	; c10805c <install_dummy_isr+0x1cc>
 c107eec:	e5832000 	str	r2, [r3]
 c107ef0:	e59f3168 	ldr	r3, [pc, #360]	; c108060 <install_dummy_isr+0x1d0>
 c107ef4:	e59f2168 	ldr	r2, [pc, #360]	; c108064 <install_dummy_isr+0x1d4>
 c107ef8:	e5832000 	str	r2, [r3]
 c107efc:	e59f3164 	ldr	r3, [pc, #356]	; c108068 <install_dummy_isr+0x1d8>
 c107f00:	e59f2164 	ldr	r2, [pc, #356]	; c10806c <install_dummy_isr+0x1dc>
 c107f04:	e5832000 	str	r2, [r3]
 c107f08:	e59f3160 	ldr	r3, [pc, #352]	; c108070 <install_dummy_isr+0x1e0>
 c107f0c:	e59f2160 	ldr	r2, [pc, #352]	; c108074 <install_dummy_isr+0x1e4>
 c107f10:	e5832000 	str	r2, [r3]
 c107f14:	e59f315c 	ldr	r3, [pc, #348]	; c108078 <install_dummy_isr+0x1e8>
 c107f18:	e59f215c 	ldr	r2, [pc, #348]	; c10807c <install_dummy_isr+0x1ec>
 c107f1c:	e5832000 	str	r2, [r3]
 c107f20:	e59f3158 	ldr	r3, [pc, #344]	; c108080 <install_dummy_isr+0x1f0>
 c107f24:	e59f2158 	ldr	r2, [pc, #344]	; c108084 <install_dummy_isr+0x1f4>
 c107f28:	e5832000 	str	r2, [r3]
 c107f2c:	e59f3154 	ldr	r3, [pc, #340]	; c108088 <install_dummy_isr+0x1f8>
 c107f30:	e59f2154 	ldr	r2, [pc, #340]	; c10808c <install_dummy_isr+0x1fc>
 c107f34:	e5832000 	str	r2, [r3]
 c107f38:	e59f3150 	ldr	r3, [pc, #336]	; c108090 <install_dummy_isr+0x200>
 c107f3c:	e59f2150 	ldr	r2, [pc, #336]	; c108094 <install_dummy_isr+0x204>
 c107f40:	e5832000 	str	r2, [r3]
 c107f44:	e59f314c 	ldr	r3, [pc, #332]	; c108098 <install_dummy_isr+0x208>
 c107f48:	e59f214c 	ldr	r2, [pc, #332]	; c10809c <install_dummy_isr+0x20c>
 c107f4c:	e5832000 	str	r2, [r3]
 c107f50:	e59f3148 	ldr	r3, [pc, #328]	; c1080a0 <install_dummy_isr+0x210>
 c107f54:	e59f2148 	ldr	r2, [pc, #328]	; c1080a4 <install_dummy_isr+0x214>
 c107f58:	e5832000 	str	r2, [r3]
 c107f5c:	e59f3144 	ldr	r3, [pc, #324]	; c1080a8 <install_dummy_isr+0x218>
 c107f60:	e59f2144 	ldr	r2, [pc, #324]	; c1080ac <install_dummy_isr+0x21c>
 c107f64:	e5832000 	str	r2, [r3]
 c107f68:	e59f3140 	ldr	r3, [pc, #320]	; c1080b0 <install_dummy_isr+0x220>
 c107f6c:	e59f2140 	ldr	r2, [pc, #320]	; c1080b4 <install_dummy_isr+0x224>
 c107f70:	e5832000 	str	r2, [r3]
 c107f74:	e59f313c 	ldr	r3, [pc, #316]	; c1080b8 <install_dummy_isr+0x228>
 c107f78:	e59f213c 	ldr	r2, [pc, #316]	; c1080bc <install_dummy_isr+0x22c>
 c107f7c:	e5832000 	str	r2, [r3]
 c107f80:	e59f3138 	ldr	r3, [pc, #312]	; c1080c0 <install_dummy_isr+0x230>
 c107f84:	e59f2138 	ldr	r2, [pc, #312]	; c1080c4 <install_dummy_isr+0x234>
 c107f88:	e5832000 	str	r2, [r3]
 c107f8c:	e59f3134 	ldr	r3, [pc, #308]	; c1080c8 <install_dummy_isr+0x238>
 c107f90:	e59f2134 	ldr	r2, [pc, #308]	; c1080cc <install_dummy_isr+0x23c>
 c107f94:	e5832000 	str	r2, [r3]
 c107f98:	e59f3130 	ldr	r3, [pc, #304]	; c1080d0 <install_dummy_isr+0x240>
 c107f9c:	e59f2130 	ldr	r2, [pc, #304]	; c1080d4 <install_dummy_isr+0x244>
 c107fa0:	e5832000 	str	r2, [r3]
 c107fa4:	e59f312c 	ldr	r3, [pc, #300]	; c1080d8 <install_dummy_isr+0x248>
 c107fa8:	e59f212c 	ldr	r2, [pc, #300]	; c1080dc <install_dummy_isr+0x24c>
 c107fac:	e5832000 	str	r2, [r3]
 c107fb0:	e59f3128 	ldr	r3, [pc, #296]	; c1080e0 <install_dummy_isr+0x250>
 c107fb4:	e59f2128 	ldr	r2, [pc, #296]	; c1080e4 <install_dummy_isr+0x254>
 c107fb8:	e5832000 	str	r2, [r3]
 c107fbc:	e59f3124 	ldr	r3, [pc, #292]	; c1080e8 <install_dummy_isr+0x258>
 c107fc0:	e59f2124 	ldr	r2, [pc, #292]	; c1080ec <install_dummy_isr+0x25c>
 c107fc4:	e5832000 	str	r2, [r3]
 c107fc8:	e59f3120 	ldr	r3, [pc, #288]	; c1080f0 <install_dummy_isr+0x260>
 c107fcc:	e59f2120 	ldr	r2, [pc, #288]	; c1080f4 <install_dummy_isr+0x264>
 c107fd0:	e5832000 	str	r2, [r3]
 c107fd4:	e59f311c 	ldr	r3, [pc, #284]	; c1080f8 <install_dummy_isr+0x268>
 c107fd8:	e59f211c 	ldr	r2, [pc, #284]	; c1080fc <install_dummy_isr+0x26c>
 c107fdc:	e5832000 	str	r2, [r3]
 c107fe0:	e59f3118 	ldr	r3, [pc, #280]	; c108100 <install_dummy_isr+0x270>
 c107fe4:	e59f2118 	ldr	r2, [pc, #280]	; c108104 <install_dummy_isr+0x274>
 c107fe8:	e5832000 	str	r2, [r3]
 c107fec:	e59f3114 	ldr	r3, [pc, #276]	; c108108 <install_dummy_isr+0x278>
 c107ff0:	e59f2114 	ldr	r2, [pc, #276]	; c10810c <install_dummy_isr+0x27c>
 c107ff4:	e5832000 	str	r2, [r3]
 c107ff8:	e59f3110 	ldr	r3, [pc, #272]	; c108110 <install_dummy_isr+0x280>
 c107ffc:	e59f2110 	ldr	r2, [pc, #272]	; c108114 <install_dummy_isr+0x284>
 c108000:	e5832000 	str	r2, [r3]
 c108004:	e59f310c 	ldr	r3, [pc, #268]	; c108118 <install_dummy_isr+0x288>
 c108008:	e59f210c 	ldr	r2, [pc, #268]	; c10811c <install_dummy_isr+0x28c>
 c10800c:	e5832000 	str	r2, [r3]
 c108010:	e59f3108 	ldr	r3, [pc, #264]	; c108120 <install_dummy_isr+0x290>
 c108014:	e59f2108 	ldr	r2, [pc, #264]	; c108124 <install_dummy_isr+0x294>
 c108018:	e5832000 	str	r2, [r3]
 c10801c:	e24bd00c 	sub	sp, fp, #12
 c108020:	e89d6800 	ldm	sp, {fp, sp, lr}
 c108024:	e12fff1e 	bx	lr
 c108028:	0c7fff08 	.word	0x0c7fff08
 c10802c:	0c108128 	.word	0x0c108128
 c108030:	0c7fff04 	.word	0x0c7fff04
 c108034:	0c108168 	.word	0x0c108168
 c108038:	0c7fff18 	.word	0x0c7fff18
 c10803c:	0c1081a8 	.word	0x0c1081a8
 c108040:	0c7fff1c 	.word	0x0c7fff1c
 c108044:	0c1081f0 	.word	0x0c1081f0
 c108048:	0c7fff0c 	.word	0x0c7fff0c
 c10804c:	0c108238 	.word	0x0c108238
 c108050:	0c7fff10 	.word	0x0c7fff10
 c108054:	0c108280 	.word	0x0c108280
 c108058:	0c7fff20 	.word	0x0c7fff20
 c10805c:	0c1082c8 	.word	0x0c1082c8
 c108060:	0c7fff24 	.word	0x0c7fff24
 c108064:	0c108310 	.word	0x0c108310
 c108068:	0c7fff28 	.word	0x0c7fff28
 c10806c:	0c108358 	.word	0x0c108358
 c108070:	0c7fff2c 	.word	0x0c7fff2c
 c108074:	0c1083a0 	.word	0x0c1083a0
 c108078:	0c7fff30 	.word	0x0c7fff30
 c10807c:	0c1083e8 	.word	0x0c1083e8
 c108080:	0c7fff34 	.word	0x0c7fff34
 c108084:	0c108430 	.word	0x0c108430
 c108088:	0c7fff38 	.word	0x0c7fff38
 c10808c:	0c108478 	.word	0x0c108478
 c108090:	0c7fff3c 	.word	0x0c7fff3c
 c108094:	0c1084c0 	.word	0x0c1084c0
 c108098:	0c7fff40 	.word	0x0c7fff40
 c10809c:	0c108508 	.word	0x0c108508
 c1080a0:	0c7fff44 	.word	0x0c7fff44
 c1080a4:	0c108550 	.word	0x0c108550
 c1080a8:	0c7fff48 	.word	0x0c7fff48
 c1080ac:	0c108598 	.word	0x0c108598
 c1080b0:	0c7fff4c 	.word	0x0c7fff4c
 c1080b4:	0c1085e0 	.word	0x0c1085e0
 c1080b8:	0c7fff50 	.word	0x0c7fff50
 c1080bc:	0c108628 	.word	0x0c108628
 c1080c0:	0c7fff54 	.word	0x0c7fff54
 c1080c4:	0c108670 	.word	0x0c108670
 c1080c8:	0c7fff58 	.word	0x0c7fff58
 c1080cc:	0c1086b8 	.word	0x0c1086b8
 c1080d0:	0c7fff5c 	.word	0x0c7fff5c
 c1080d4:	0c108700 	.word	0x0c108700
 c1080d8:	0c7fff60 	.word	0x0c7fff60
 c1080dc:	0c108748 	.word	0x0c108748
 c1080e0:	0c7fff64 	.word	0x0c7fff64
 c1080e4:	0c108790 	.word	0x0c108790
 c1080e8:	0c7fff68 	.word	0x0c7fff68
 c1080ec:	0c1087d8 	.word	0x0c1087d8
 c1080f0:	0c7fff6c 	.word	0x0c7fff6c
 c1080f4:	0c108820 	.word	0x0c108820
 c1080f8:	0c7fff70 	.word	0x0c7fff70
 c1080fc:	0c108868 	.word	0x0c108868
 c108100:	0c7fff74 	.word	0x0c7fff74
 c108104:	0c1088b0 	.word	0x0c1088b0
 c108108:	0c7fff78 	.word	0x0c7fff78
 c10810c:	0c1088f8 	.word	0x0c1088f8
 c108110:	0c7fff7c 	.word	0x0c7fff7c
 c108114:	0c108940 	.word	0x0c108940
 c108118:	0c7fff80 	.word	0x0c7fff80
 c10811c:	0c108988 	.word	0x0c108988
 c108120:	0c7fff84 	.word	0x0c7fff84
 c108124:	0c1089d0 	.word	0x0c1089d0

0c108128 <isr_SWI_dummy>:
 c108128:	e52dc004 	push	{ip}		; (str ip, [sp, #-4]!)
 c10812c:	e1a0c00d 	mov	ip, sp
 c108130:	e92dd81f 	push	{r0, r1, r2, r3, r4, fp, ip, lr, pc}
 c108134:	e24cb004 	sub	fp, ip, #4
 c108138:	e24dd00c 	sub	sp, sp, #12
 c10813c:	e1a0400e 	mov	r4, lr
 c108140:	e50b4028 	str	r4, [fp, #-40]	; 0xffffffd8
 c108144:	e3a00000 	mov	r0, #0
 c108148:	e59f1014 	ldr	r1, [pc, #20]	; c108164 <isr_SWI_dummy+0x3c>
 c10814c:	e51b2028 	ldr	r2, [fp, #-40]	; 0xffffffd8
 c108150:	eb000378 	bl	c108f38 <fatalerror>
 c108154:	e24bd020 	sub	sp, fp, #32
 c108158:	e89d681f 	ldm	sp, {r0, r1, r2, r3, r4, fp, sp, lr}
 c10815c:	e49dc004 	pop	{ip}		; (ldr ip, [sp], #4)
 c108160:	e1b0f00e 	movs	pc, lr
 c108164:	0c10c86c 	.word	0x0c10c86c

0c108168 <isr_UNDEF_dummy>:
 c108168:	e52dc004 	push	{ip}		; (str ip, [sp, #-4]!)
 c10816c:	e1a0c00d 	mov	ip, sp
 c108170:	e92dd81f 	push	{r0, r1, r2, r3, r4, fp, ip, lr, pc}
 c108174:	e24cb004 	sub	fp, ip, #4
 c108178:	e24dd00c 	sub	sp, sp, #12
 c10817c:	e1a0400e 	mov	r4, lr
 c108180:	e50b4028 	str	r4, [fp, #-40]	; 0xffffffd8
 c108184:	e3a00001 	mov	r0, #1
 c108188:	e59f1014 	ldr	r1, [pc, #20]	; c1081a4 <isr_UNDEF_dummy+0x3c>
 c10818c:	e51b2028 	ldr	r2, [fp, #-40]	; 0xffffffd8
 c108190:	eb000368 	bl	c108f38 <fatalerror>
 c108194:	e24bd020 	sub	sp, fp, #32
 c108198:	e89d681f 	ldm	sp, {r0, r1, r2, r3, r4, fp, sp, lr}
 c10819c:	e49dc004 	pop	{ip}		; (ldr ip, [sp], #4)
 c1081a0:	e1b0f00e 	movs	pc, lr
 c1081a4:	0c10c888 	.word	0x0c10c888

0c1081a8 <isr_IRQ_dummy>:
 c1081a8:	e52dc004 	push	{ip}		; (str ip, [sp, #-4]!)
 c1081ac:	e1a0c00d 	mov	ip, sp
 c1081b0:	e92dd81f 	push	{r0, r1, r2, r3, r4, fp, ip, lr, pc}
 c1081b4:	e24cb004 	sub	fp, ip, #4
 c1081b8:	e24dd00c 	sub	sp, sp, #12
 c1081bc:	e1a0400e 	mov	r4, lr
 c1081c0:	e50b4028 	str	r4, [fp, #-40]	; 0xffffffd8
 c1081c4:	e51b3028 	ldr	r3, [fp, #-40]	; 0xffffffd8
 c1081c8:	e2433004 	sub	r3, r3, #4
 c1081cc:	e3a00002 	mov	r0, #2
 c1081d0:	e59f1014 	ldr	r1, [pc, #20]	; c1081ec <isr_IRQ_dummy+0x44>
 c1081d4:	e1a02003 	mov	r2, r3
 c1081d8:	eb000356 	bl	c108f38 <fatalerror>
 c1081dc:	e24bd020 	sub	sp, fp, #32
 c1081e0:	e89d681f 	ldm	sp, {r0, r1, r2, r3, r4, fp, sp, lr}
 c1081e4:	e49dc004 	pop	{ip}		; (ldr ip, [sp], #4)
 c1081e8:	e25ef004 	subs	pc, lr, #4
 c1081ec:	0c10c8a4 	.word	0x0c10c8a4

0c1081f0 <isr_FIQ_dummy>:
 c1081f0:	e52dc004 	push	{ip}		; (str ip, [sp, #-4]!)
 c1081f4:	e1a0c00d 	mov	ip, sp
 c1081f8:	e92dd81f 	push	{r0, r1, r2, r3, r4, fp, ip, lr, pc}
 c1081fc:	e24cb004 	sub	fp, ip, #4
 c108200:	e24dd00c 	sub	sp, sp, #12
 c108204:	e1a0400e 	mov	r4, lr
 c108208:	e50b4028 	str	r4, [fp, #-40]	; 0xffffffd8
 c10820c:	e51b3028 	ldr	r3, [fp, #-40]	; 0xffffffd8
 c108210:	e2433004 	sub	r3, r3, #4
 c108214:	e3a00003 	mov	r0, #3
 c108218:	e59f1014 	ldr	r1, [pc, #20]	; c108234 <isr_FIQ_dummy+0x44>
 c10821c:	e1a02003 	mov	r2, r3
 c108220:	eb000344 	bl	c108f38 <fatalerror>
 c108224:	e24bd020 	sub	sp, fp, #32
 c108228:	e89d681f 	ldm	sp, {r0, r1, r2, r3, r4, fp, sp, lr}
 c10822c:	e49dc004 	pop	{ip}		; (ldr ip, [sp], #4)
 c108230:	e25ef004 	subs	pc, lr, #4
 c108234:	0c10c8c0 	.word	0x0c10c8c0

0c108238 <isr_PABORT_dummy>:
 c108238:	e52dc004 	push	{ip}		; (str ip, [sp, #-4]!)
 c10823c:	e1a0c00d 	mov	ip, sp
 c108240:	e92dd81f 	push	{r0, r1, r2, r3, r4, fp, ip, lr, pc}
 c108244:	e24cb004 	sub	fp, ip, #4
 c108248:	e24dd00c 	sub	sp, sp, #12
 c10824c:	e1a0400e 	mov	r4, lr
 c108250:	e50b4028 	str	r4, [fp, #-40]	; 0xffffffd8
 c108254:	e51b3028 	ldr	r3, [fp, #-40]	; 0xffffffd8
 c108258:	e2433004 	sub	r3, r3, #4
 c10825c:	e3a00004 	mov	r0, #4
 c108260:	e59f1014 	ldr	r1, [pc, #20]	; c10827c <isr_PABORT_dummy+0x44>
 c108264:	e1a02003 	mov	r2, r3
 c108268:	eb000332 	bl	c108f38 <fatalerror>
 c10826c:	e24bd020 	sub	sp, fp, #32
 c108270:	e89d681f 	ldm	sp, {r0, r1, r2, r3, r4, fp, sp, lr}
 c108274:	e49dc004 	pop	{ip}		; (ldr ip, [sp], #4)
 c108278:	e25ef004 	subs	pc, lr, #4
 c10827c:	0c10c8dc 	.word	0x0c10c8dc

0c108280 <isr_DABORT_dummy>:
 c108280:	e52dc004 	push	{ip}		; (str ip, [sp, #-4]!)
 c108284:	e1a0c00d 	mov	ip, sp
 c108288:	e92dd81f 	push	{r0, r1, r2, r3, r4, fp, ip, lr, pc}
 c10828c:	e24cb004 	sub	fp, ip, #4
 c108290:	e24dd00c 	sub	sp, sp, #12
 c108294:	e1a0400e 	mov	r4, lr
 c108298:	e50b4028 	str	r4, [fp, #-40]	; 0xffffffd8
 c10829c:	e51b3028 	ldr	r3, [fp, #-40]	; 0xffffffd8
 c1082a0:	e2433008 	sub	r3, r3, #8
 c1082a4:	e3a00005 	mov	r0, #5
 c1082a8:	e59f1014 	ldr	r1, [pc, #20]	; c1082c4 <isr_DABORT_dummy+0x44>
 c1082ac:	e1a02003 	mov	r2, r3
 c1082b0:	eb000320 	bl	c108f38 <fatalerror>
 c1082b4:	e24bd020 	sub	sp, fp, #32
 c1082b8:	e89d681f 	ldm	sp, {r0, r1, r2, r3, r4, fp, sp, lr}
 c1082bc:	e49dc004 	pop	{ip}		; (ldr ip, [sp], #4)
 c1082c0:	e25ef004 	subs	pc, lr, #4
 c1082c4:	0c10c8f8 	.word	0x0c10c8f8

0c1082c8 <isr_ADC_dummy>:
 c1082c8:	e52dc004 	push	{ip}		; (str ip, [sp, #-4]!)
 c1082cc:	e1a0c00d 	mov	ip, sp
 c1082d0:	e92dd81f 	push	{r0, r1, r2, r3, r4, fp, ip, lr, pc}
 c1082d4:	e24cb004 	sub	fp, ip, #4
 c1082d8:	e24dd00c 	sub	sp, sp, #12
 c1082dc:	e1a0400e 	mov	r4, lr
 c1082e0:	e50b4028 	str	r4, [fp, #-40]	; 0xffffffd8
 c1082e4:	e51b3028 	ldr	r3, [fp, #-40]	; 0xffffffd8
 c1082e8:	e2433004 	sub	r3, r3, #4
 c1082ec:	e3a0000b 	mov	r0, #11
 c1082f0:	e59f1014 	ldr	r1, [pc, #20]	; c10830c <isr_ADC_dummy+0x44>
 c1082f4:	e1a02003 	mov	r2, r3
 c1082f8:	eb00030e 	bl	c108f38 <fatalerror>
 c1082fc:	e24bd020 	sub	sp, fp, #32
 c108300:	e89d681f 	ldm	sp, {r0, r1, r2, r3, r4, fp, sp, lr}
 c108304:	e49dc004 	pop	{ip}		; (ldr ip, [sp], #4)
 c108308:	e25ef004 	subs	pc, lr, #4
 c10830c:	0c10c914 	.word	0x0c10c914

0c108310 <isr_RTC_dummy>:
 c108310:	e52dc004 	push	{ip}		; (str ip, [sp, #-4]!)
 c108314:	e1a0c00d 	mov	ip, sp
 c108318:	e92dd81f 	push	{r0, r1, r2, r3, r4, fp, ip, lr, pc}
 c10831c:	e24cb004 	sub	fp, ip, #4
 c108320:	e24dd00c 	sub	sp, sp, #12
 c108324:	e1a0400e 	mov	r4, lr
 c108328:	e50b4028 	str	r4, [fp, #-40]	; 0xffffffd8
 c10832c:	e51b3028 	ldr	r3, [fp, #-40]	; 0xffffffd8
 c108330:	e2433004 	sub	r3, r3, #4
 c108334:	e3a0000a 	mov	r0, #10
 c108338:	e59f1014 	ldr	r1, [pc, #20]	; c108354 <isr_RTC_dummy+0x44>
 c10833c:	e1a02003 	mov	r2, r3
 c108340:	eb0002fc 	bl	c108f38 <fatalerror>
 c108344:	e24bd020 	sub	sp, fp, #32
 c108348:	e89d681f 	ldm	sp, {r0, r1, r2, r3, r4, fp, sp, lr}
 c10834c:	e49dc004 	pop	{ip}		; (ldr ip, [sp], #4)
 c108350:	e25ef004 	subs	pc, lr, #4
 c108354:	0c10c930 	.word	0x0c10c930

0c108358 <isr_UTXD1_dummy>:
 c108358:	e52dc004 	push	{ip}		; (str ip, [sp, #-4]!)
 c10835c:	e1a0c00d 	mov	ip, sp
 c108360:	e92dd81f 	push	{r0, r1, r2, r3, r4, fp, ip, lr, pc}
 c108364:	e24cb004 	sub	fp, ip, #4
 c108368:	e24dd00c 	sub	sp, sp, #12
 c10836c:	e1a0400e 	mov	r4, lr
 c108370:	e50b4028 	str	r4, [fp, #-40]	; 0xffffffd8
 c108374:	e51b3028 	ldr	r3, [fp, #-40]	; 0xffffffd8
 c108378:	e2433004 	sub	r3, r3, #4
 c10837c:	e3a0000c 	mov	r0, #12
 c108380:	e59f1014 	ldr	r1, [pc, #20]	; c10839c <isr_UTXD1_dummy+0x44>
 c108384:	e1a02003 	mov	r2, r3
 c108388:	eb0002ea 	bl	c108f38 <fatalerror>
 c10838c:	e24bd020 	sub	sp, fp, #32
 c108390:	e89d681f 	ldm	sp, {r0, r1, r2, r3, r4, fp, sp, lr}
 c108394:	e49dc004 	pop	{ip}		; (ldr ip, [sp], #4)
 c108398:	e25ef004 	subs	pc, lr, #4
 c10839c:	0c10c94c 	.word	0x0c10c94c

0c1083a0 <isr_UTXD0_dummy>:
 c1083a0:	e52dc004 	push	{ip}		; (str ip, [sp, #-4]!)
 c1083a4:	e1a0c00d 	mov	ip, sp
 c1083a8:	e92dd81f 	push	{r0, r1, r2, r3, r4, fp, ip, lr, pc}
 c1083ac:	e24cb004 	sub	fp, ip, #4
 c1083b0:	e24dd00c 	sub	sp, sp, #12
 c1083b4:	e1a0400e 	mov	r4, lr
 c1083b8:	e50b4028 	str	r4, [fp, #-40]	; 0xffffffd8
 c1083bc:	e51b3028 	ldr	r3, [fp, #-40]	; 0xffffffd8
 c1083c0:	e2433004 	sub	r3, r3, #4
 c1083c4:	e3a00009 	mov	r0, #9
 c1083c8:	e59f1014 	ldr	r1, [pc, #20]	; c1083e4 <isr_UTXD0_dummy+0x44>
 c1083cc:	e1a02003 	mov	r2, r3
 c1083d0:	eb0002d8 	bl	c108f38 <fatalerror>
 c1083d4:	e24bd020 	sub	sp, fp, #32
 c1083d8:	e89d681f 	ldm	sp, {r0, r1, r2, r3, r4, fp, sp, lr}
 c1083dc:	e49dc004 	pop	{ip}		; (ldr ip, [sp], #4)
 c1083e0:	e25ef004 	subs	pc, lr, #4
 c1083e4:	0c10c968 	.word	0x0c10c968

0c1083e8 <isr_SIO_dummy>:
 c1083e8:	e52dc004 	push	{ip}		; (str ip, [sp, #-4]!)
 c1083ec:	e1a0c00d 	mov	ip, sp
 c1083f0:	e92dd81f 	push	{r0, r1, r2, r3, r4, fp, ip, lr, pc}
 c1083f4:	e24cb004 	sub	fp, ip, #4
 c1083f8:	e24dd00c 	sub	sp, sp, #12
 c1083fc:	e1a0400e 	mov	r4, lr
 c108400:	e50b4028 	str	r4, [fp, #-40]	; 0xffffffd8
 c108404:	e51b3028 	ldr	r3, [fp, #-40]	; 0xffffffd8
 c108408:	e2433004 	sub	r3, r3, #4
 c10840c:	e3a0000f 	mov	r0, #15
 c108410:	e59f1014 	ldr	r1, [pc, #20]	; c10842c <isr_SIO_dummy+0x44>
 c108414:	e1a02003 	mov	r2, r3
 c108418:	eb0002c6 	bl	c108f38 <fatalerror>
 c10841c:	e24bd020 	sub	sp, fp, #32
 c108420:	e89d681f 	ldm	sp, {r0, r1, r2, r3, r4, fp, sp, lr}
 c108424:	e49dc004 	pop	{ip}		; (ldr ip, [sp], #4)
 c108428:	e25ef004 	subs	pc, lr, #4
 c10842c:	0c10c984 	.word	0x0c10c984

0c108430 <isr_IIC_dummy>:
 c108430:	e52dc004 	push	{ip}		; (str ip, [sp, #-4]!)
 c108434:	e1a0c00d 	mov	ip, sp
 c108438:	e92dd81f 	push	{r0, r1, r2, r3, r4, fp, ip, lr, pc}
 c10843c:	e24cb004 	sub	fp, ip, #4
 c108440:	e24dd00c 	sub	sp, sp, #12
 c108444:	e1a0400e 	mov	r4, lr
 c108448:	e50b4028 	str	r4, [fp, #-40]	; 0xffffffd8
 c10844c:	e51b3028 	ldr	r3, [fp, #-40]	; 0xffffffd8
 c108450:	e2433004 	sub	r3, r3, #4
 c108454:	e3a0000c 	mov	r0, #12
 c108458:	e59f1014 	ldr	r1, [pc, #20]	; c108474 <isr_IIC_dummy+0x44>
 c10845c:	e1a02003 	mov	r2, r3
 c108460:	eb0002b4 	bl	c108f38 <fatalerror>
 c108464:	e24bd020 	sub	sp, fp, #32
 c108468:	e89d681f 	ldm	sp, {r0, r1, r2, r3, r4, fp, sp, lr}
 c10846c:	e49dc004 	pop	{ip}		; (ldr ip, [sp], #4)
 c108470:	e25ef004 	subs	pc, lr, #4
 c108474:	0c10c9a0 	.word	0x0c10c9a0

0c108478 <isr_URXD1_dummy>:
 c108478:	e52dc004 	push	{ip}		; (str ip, [sp, #-4]!)
 c10847c:	e1a0c00d 	mov	ip, sp
 c108480:	e92dd81f 	push	{r0, r1, r2, r3, r4, fp, ip, lr, pc}
 c108484:	e24cb004 	sub	fp, ip, #4
 c108488:	e24dd00c 	sub	sp, sp, #12
 c10848c:	e1a0400e 	mov	r4, lr
 c108490:	e50b4028 	str	r4, [fp, #-40]	; 0xffffffd8
 c108494:	e51b3028 	ldr	r3, [fp, #-40]	; 0xffffffd8
 c108498:	e2433004 	sub	r3, r3, #4
 c10849c:	e3a0000c 	mov	r0, #12
 c1084a0:	e59f1014 	ldr	r1, [pc, #20]	; c1084bc <isr_URXD1_dummy+0x44>
 c1084a4:	e1a02003 	mov	r2, r3
 c1084a8:	eb0002a2 	bl	c108f38 <fatalerror>
 c1084ac:	e24bd020 	sub	sp, fp, #32
 c1084b0:	e89d681f 	ldm	sp, {r0, r1, r2, r3, r4, fp, sp, lr}
 c1084b4:	e49dc004 	pop	{ip}		; (ldr ip, [sp], #4)
 c1084b8:	e25ef004 	subs	pc, lr, #4
 c1084bc:	0c10c9bc 	.word	0x0c10c9bc

0c1084c0 <isr_URXD0_dummy>:
 c1084c0:	e52dc004 	push	{ip}		; (str ip, [sp, #-4]!)
 c1084c4:	e1a0c00d 	mov	ip, sp
 c1084c8:	e92dd81f 	push	{r0, r1, r2, r3, r4, fp, ip, lr, pc}
 c1084cc:	e24cb004 	sub	fp, ip, #4
 c1084d0:	e24dd00c 	sub	sp, sp, #12
 c1084d4:	e1a0400e 	mov	r4, lr
 c1084d8:	e50b4028 	str	r4, [fp, #-40]	; 0xffffffd8
 c1084dc:	e51b3028 	ldr	r3, [fp, #-40]	; 0xffffffd8
 c1084e0:	e2433004 	sub	r3, r3, #4
 c1084e4:	e3a00008 	mov	r0, #8
 c1084e8:	e59f1014 	ldr	r1, [pc, #20]	; c108504 <isr_URXD0_dummy+0x44>
 c1084ec:	e1a02003 	mov	r2, r3
 c1084f0:	eb000290 	bl	c108f38 <fatalerror>
 c1084f4:	e24bd020 	sub	sp, fp, #32
 c1084f8:	e89d681f 	ldm	sp, {r0, r1, r2, r3, r4, fp, sp, lr}
 c1084fc:	e49dc004 	pop	{ip}		; (ldr ip, [sp], #4)
 c108500:	e25ef004 	subs	pc, lr, #4
 c108504:	0c10c9d8 	.word	0x0c10c9d8

0c108508 <isr_TIMER5_dummy>:
 c108508:	e52dc004 	push	{ip}		; (str ip, [sp, #-4]!)
 c10850c:	e1a0c00d 	mov	ip, sp
 c108510:	e92dd81f 	push	{r0, r1, r2, r3, r4, fp, ip, lr, pc}
 c108514:	e24cb004 	sub	fp, ip, #4
 c108518:	e24dd00c 	sub	sp, sp, #12
 c10851c:	e1a0400e 	mov	r4, lr
 c108520:	e50b4028 	str	r4, [fp, #-40]	; 0xffffffd8
 c108524:	e51b3028 	ldr	r3, [fp, #-40]	; 0xffffffd8
 c108528:	e2433004 	sub	r3, r3, #4
 c10852c:	e3a0000e 	mov	r0, #14
 c108530:	e59f1014 	ldr	r1, [pc, #20]	; c10854c <isr_TIMER5_dummy+0x44>
 c108534:	e1a02003 	mov	r2, r3
 c108538:	eb00027e 	bl	c108f38 <fatalerror>
 c10853c:	e24bd020 	sub	sp, fp, #32
 c108540:	e89d681f 	ldm	sp, {r0, r1, r2, r3, r4, fp, sp, lr}
 c108544:	e49dc004 	pop	{ip}		; (ldr ip, [sp], #4)
 c108548:	e25ef004 	subs	pc, lr, #4
 c10854c:	0c10c9f4 	.word	0x0c10c9f4

0c108550 <isr_TIMER4_dummy>:
 c108550:	e52dc004 	push	{ip}		; (str ip, [sp, #-4]!)
 c108554:	e1a0c00d 	mov	ip, sp
 c108558:	e92dd81f 	push	{r0, r1, r2, r3, r4, fp, ip, lr, pc}
 c10855c:	e24cb004 	sub	fp, ip, #4
 c108560:	e24dd00c 	sub	sp, sp, #12
 c108564:	e1a0400e 	mov	r4, lr
 c108568:	e50b4028 	str	r4, [fp, #-40]	; 0xffffffd8
 c10856c:	e51b3028 	ldr	r3, [fp, #-40]	; 0xffffffd8
 c108570:	e2433004 	sub	r3, r3, #4
 c108574:	e3a0000e 	mov	r0, #14
 c108578:	e59f1014 	ldr	r1, [pc, #20]	; c108594 <isr_TIMER4_dummy+0x44>
 c10857c:	e1a02003 	mov	r2, r3
 c108580:	eb00026c 	bl	c108f38 <fatalerror>
 c108584:	e24bd020 	sub	sp, fp, #32
 c108588:	e89d681f 	ldm	sp, {r0, r1, r2, r3, r4, fp, sp, lr}
 c10858c:	e49dc004 	pop	{ip}		; (ldr ip, [sp], #4)
 c108590:	e25ef004 	subs	pc, lr, #4
 c108594:	0c10ca10 	.word	0x0c10ca10

0c108598 <isr_TIMER3_dummy>:
 c108598:	e52dc004 	push	{ip}		; (str ip, [sp, #-4]!)
 c10859c:	e1a0c00d 	mov	ip, sp
 c1085a0:	e92dd81f 	push	{r0, r1, r2, r3, r4, fp, ip, lr, pc}
 c1085a4:	e24cb004 	sub	fp, ip, #4
 c1085a8:	e24dd00c 	sub	sp, sp, #12
 c1085ac:	e1a0400e 	mov	r4, lr
 c1085b0:	e50b4028 	str	r4, [fp, #-40]	; 0xffffffd8
 c1085b4:	e51b3028 	ldr	r3, [fp, #-40]	; 0xffffffd8
 c1085b8:	e2433004 	sub	r3, r3, #4
 c1085bc:	e3a0000e 	mov	r0, #14
 c1085c0:	e59f1014 	ldr	r1, [pc, #20]	; c1085dc <isr_TIMER3_dummy+0x44>
 c1085c4:	e1a02003 	mov	r2, r3
 c1085c8:	eb00025a 	bl	c108f38 <fatalerror>
 c1085cc:	e24bd020 	sub	sp, fp, #32
 c1085d0:	e89d681f 	ldm	sp, {r0, r1, r2, r3, r4, fp, sp, lr}
 c1085d4:	e49dc004 	pop	{ip}		; (ldr ip, [sp], #4)
 c1085d8:	e25ef004 	subs	pc, lr, #4
 c1085dc:	0c10ca2c 	.word	0x0c10ca2c

0c1085e0 <isr_TIMER2_dummy>:
 c1085e0:	e52dc004 	push	{ip}		; (str ip, [sp, #-4]!)
 c1085e4:	e1a0c00d 	mov	ip, sp
 c1085e8:	e92dd81f 	push	{r0, r1, r2, r3, r4, fp, ip, lr, pc}
 c1085ec:	e24cb004 	sub	fp, ip, #4
 c1085f0:	e24dd00c 	sub	sp, sp, #12
 c1085f4:	e1a0400e 	mov	r4, lr
 c1085f8:	e50b4028 	str	r4, [fp, #-40]	; 0xffffffd8
 c1085fc:	e51b3028 	ldr	r3, [fp, #-40]	; 0xffffffd8
 c108600:	e2433004 	sub	r3, r3, #4
 c108604:	e3a0000e 	mov	r0, #14
 c108608:	e59f1014 	ldr	r1, [pc, #20]	; c108624 <isr_TIMER2_dummy+0x44>
 c10860c:	e1a02003 	mov	r2, r3
 c108610:	eb000248 	bl	c108f38 <fatalerror>
 c108614:	e24bd020 	sub	sp, fp, #32
 c108618:	e89d681f 	ldm	sp, {r0, r1, r2, r3, r4, fp, sp, lr}
 c10861c:	e49dc004 	pop	{ip}		; (ldr ip, [sp], #4)
 c108620:	e25ef004 	subs	pc, lr, #4
 c108624:	0c10ca48 	.word	0x0c10ca48

0c108628 <isr_TIMER1_dummy>:
 c108628:	e52dc004 	push	{ip}		; (str ip, [sp, #-4]!)
 c10862c:	e1a0c00d 	mov	ip, sp
 c108630:	e92dd81f 	push	{r0, r1, r2, r3, r4, fp, ip, lr, pc}
 c108634:	e24cb004 	sub	fp, ip, #4
 c108638:	e24dd00c 	sub	sp, sp, #12
 c10863c:	e1a0400e 	mov	r4, lr
 c108640:	e50b4028 	str	r4, [fp, #-40]	; 0xffffffd8
 c108644:	e51b3028 	ldr	r3, [fp, #-40]	; 0xffffffd8
 c108648:	e2433004 	sub	r3, r3, #4
 c10864c:	e3a0000e 	mov	r0, #14
 c108650:	e59f1014 	ldr	r1, [pc, #20]	; c10866c <isr_TIMER1_dummy+0x44>
 c108654:	e1a02003 	mov	r2, r3
 c108658:	eb000236 	bl	c108f38 <fatalerror>
 c10865c:	e24bd020 	sub	sp, fp, #32
 c108660:	e89d681f 	ldm	sp, {r0, r1, r2, r3, r4, fp, sp, lr}
 c108664:	e49dc004 	pop	{ip}		; (ldr ip, [sp], #4)
 c108668:	e25ef004 	subs	pc, lr, #4
 c10866c:	0c10ca64 	.word	0x0c10ca64

0c108670 <isr_TIMER0_dummy>:
 c108670:	e52dc004 	push	{ip}		; (str ip, [sp, #-4]!)
 c108674:	e1a0c00d 	mov	ip, sp
 c108678:	e92dd81f 	push	{r0, r1, r2, r3, r4, fp, ip, lr, pc}
 c10867c:	e24cb004 	sub	fp, ip, #4
 c108680:	e24dd00c 	sub	sp, sp, #12
 c108684:	e1a0400e 	mov	r4, lr
 c108688:	e50b4028 	str	r4, [fp, #-40]	; 0xffffffd8
 c10868c:	e51b3028 	ldr	r3, [fp, #-40]	; 0xffffffd8
 c108690:	e2433004 	sub	r3, r3, #4
 c108694:	e3a0000e 	mov	r0, #14
 c108698:	e59f1014 	ldr	r1, [pc, #20]	; c1086b4 <isr_TIMER0_dummy+0x44>
 c10869c:	e1a02003 	mov	r2, r3
 c1086a0:	eb000224 	bl	c108f38 <fatalerror>
 c1086a4:	e24bd020 	sub	sp, fp, #32
 c1086a8:	e89d681f 	ldm	sp, {r0, r1, r2, r3, r4, fp, sp, lr}
 c1086ac:	e49dc004 	pop	{ip}		; (ldr ip, [sp], #4)
 c1086b0:	e25ef004 	subs	pc, lr, #4
 c1086b4:	0c10ca80 	.word	0x0c10ca80

0c1086b8 <isr_UERR01_dummy>:
 c1086b8:	e52dc004 	push	{ip}		; (str ip, [sp, #-4]!)
 c1086bc:	e1a0c00d 	mov	ip, sp
 c1086c0:	e92dd81f 	push	{r0, r1, r2, r3, r4, fp, ip, lr, pc}
 c1086c4:	e24cb004 	sub	fp, ip, #4
 c1086c8:	e24dd00c 	sub	sp, sp, #12
 c1086cc:	e1a0400e 	mov	r4, lr
 c1086d0:	e50b4028 	str	r4, [fp, #-40]	; 0xffffffd8
 c1086d4:	e51b3028 	ldr	r3, [fp, #-40]	; 0xffffffd8
 c1086d8:	e2433004 	sub	r3, r3, #4
 c1086dc:	e3a0000c 	mov	r0, #12
 c1086e0:	e59f1014 	ldr	r1, [pc, #20]	; c1086fc <isr_UERR01_dummy+0x44>
 c1086e4:	e1a02003 	mov	r2, r3
 c1086e8:	eb000212 	bl	c108f38 <fatalerror>
 c1086ec:	e24bd020 	sub	sp, fp, #32
 c1086f0:	e89d681f 	ldm	sp, {r0, r1, r2, r3, r4, fp, sp, lr}
 c1086f4:	e49dc004 	pop	{ip}		; (ldr ip, [sp], #4)
 c1086f8:	e25ef004 	subs	pc, lr, #4
 c1086fc:	0c10ca9c 	.word	0x0c10ca9c

0c108700 <isr_WDT_dummy>:
 c108700:	e52dc004 	push	{ip}		; (str ip, [sp, #-4]!)
 c108704:	e1a0c00d 	mov	ip, sp
 c108708:	e92dd81f 	push	{r0, r1, r2, r3, r4, fp, ip, lr, pc}
 c10870c:	e24cb004 	sub	fp, ip, #4
 c108710:	e24dd00c 	sub	sp, sp, #12
 c108714:	e1a0400e 	mov	r4, lr
 c108718:	e50b4028 	str	r4, [fp, #-40]	; 0xffffffd8
 c10871c:	e51b3028 	ldr	r3, [fp, #-40]	; 0xffffffd8
 c108720:	e2433004 	sub	r3, r3, #4
 c108724:	e3a0000e 	mov	r0, #14
 c108728:	e59f1014 	ldr	r1, [pc, #20]	; c108744 <isr_WDT_dummy+0x44>
 c10872c:	e1a02003 	mov	r2, r3
 c108730:	eb000200 	bl	c108f38 <fatalerror>
 c108734:	e24bd020 	sub	sp, fp, #32
 c108738:	e89d681f 	ldm	sp, {r0, r1, r2, r3, r4, fp, sp, lr}
 c10873c:	e49dc004 	pop	{ip}		; (ldr ip, [sp], #4)
 c108740:	e25ef004 	subs	pc, lr, #4
 c108744:	0c10cab8 	.word	0x0c10cab8

0c108748 <isr_BDMA1_dummy>:
 c108748:	e52dc004 	push	{ip}		; (str ip, [sp, #-4]!)
 c10874c:	e1a0c00d 	mov	ip, sp
 c108750:	e92dd81f 	push	{r0, r1, r2, r3, r4, fp, ip, lr, pc}
 c108754:	e24cb004 	sub	fp, ip, #4
 c108758:	e24dd00c 	sub	sp, sp, #12
 c10875c:	e1a0400e 	mov	r4, lr
 c108760:	e50b4028 	str	r4, [fp, #-40]	; 0xffffffd8
 c108764:	e51b3028 	ldr	r3, [fp, #-40]	; 0xffffffd8
 c108768:	e2433004 	sub	r3, r3, #4
 c10876c:	e3a0000d 	mov	r0, #13
 c108770:	e59f1014 	ldr	r1, [pc, #20]	; c10878c <isr_BDMA1_dummy+0x44>
 c108774:	e1a02003 	mov	r2, r3
 c108778:	eb0001ee 	bl	c108f38 <fatalerror>
 c10877c:	e24bd020 	sub	sp, fp, #32
 c108780:	e89d681f 	ldm	sp, {r0, r1, r2, r3, r4, fp, sp, lr}
 c108784:	e49dc004 	pop	{ip}		; (ldr ip, [sp], #4)
 c108788:	e25ef004 	subs	pc, lr, #4
 c10878c:	0c10cad4 	.word	0x0c10cad4

0c108790 <isr_BDMA0_dummy>:
 c108790:	e52dc004 	push	{ip}		; (str ip, [sp, #-4]!)
 c108794:	e1a0c00d 	mov	ip, sp
 c108798:	e92dd81f 	push	{r0, r1, r2, r3, r4, fp, ip, lr, pc}
 c10879c:	e24cb004 	sub	fp, ip, #4
 c1087a0:	e24dd00c 	sub	sp, sp, #12
 c1087a4:	e1a0400e 	mov	r4, lr
 c1087a8:	e50b4028 	str	r4, [fp, #-40]	; 0xffffffd8
 c1087ac:	e51b3028 	ldr	r3, [fp, #-40]	; 0xffffffd8
 c1087b0:	e2433004 	sub	r3, r3, #4
 c1087b4:	e3a0000d 	mov	r0, #13
 c1087b8:	e59f1014 	ldr	r1, [pc, #20]	; c1087d4 <isr_BDMA0_dummy+0x44>
 c1087bc:	e1a02003 	mov	r2, r3
 c1087c0:	eb0001dc 	bl	c108f38 <fatalerror>
 c1087c4:	e24bd020 	sub	sp, fp, #32
 c1087c8:	e89d681f 	ldm	sp, {r0, r1, r2, r3, r4, fp, sp, lr}
 c1087cc:	e49dc004 	pop	{ip}		; (ldr ip, [sp], #4)
 c1087d0:	e25ef004 	subs	pc, lr, #4
 c1087d4:	0c10caf0 	.word	0x0c10caf0

0c1087d8 <isr_ZDMA1_dummy>:
 c1087d8:	e52dc004 	push	{ip}		; (str ip, [sp, #-4]!)
 c1087dc:	e1a0c00d 	mov	ip, sp
 c1087e0:	e92dd81f 	push	{r0, r1, r2, r3, r4, fp, ip, lr, pc}
 c1087e4:	e24cb004 	sub	fp, ip, #4
 c1087e8:	e24dd00c 	sub	sp, sp, #12
 c1087ec:	e1a0400e 	mov	r4, lr
 c1087f0:	e50b4028 	str	r4, [fp, #-40]	; 0xffffffd8
 c1087f4:	e51b3028 	ldr	r3, [fp, #-40]	; 0xffffffd8
 c1087f8:	e2433004 	sub	r3, r3, #4
 c1087fc:	e3a0000d 	mov	r0, #13
 c108800:	e59f1014 	ldr	r1, [pc, #20]	; c10881c <isr_ZDMA1_dummy+0x44>
 c108804:	e1a02003 	mov	r2, r3
 c108808:	eb0001ca 	bl	c108f38 <fatalerror>
 c10880c:	e24bd020 	sub	sp, fp, #32
 c108810:	e89d681f 	ldm	sp, {r0, r1, r2, r3, r4, fp, sp, lr}
 c108814:	e49dc004 	pop	{ip}		; (ldr ip, [sp], #4)
 c108818:	e25ef004 	subs	pc, lr, #4
 c10881c:	0c10cb0c 	.word	0x0c10cb0c

0c108820 <isr_ZDMA0_dummy>:
 c108820:	e52dc004 	push	{ip}		; (str ip, [sp, #-4]!)
 c108824:	e1a0c00d 	mov	ip, sp
 c108828:	e92dd81f 	push	{r0, r1, r2, r3, r4, fp, ip, lr, pc}
 c10882c:	e24cb004 	sub	fp, ip, #4
 c108830:	e24dd00c 	sub	sp, sp, #12
 c108834:	e1a0400e 	mov	r4, lr
 c108838:	e50b4028 	str	r4, [fp, #-40]	; 0xffffffd8
 c10883c:	e51b3028 	ldr	r3, [fp, #-40]	; 0xffffffd8
 c108840:	e2433004 	sub	r3, r3, #4
 c108844:	e3a0000d 	mov	r0, #13
 c108848:	e59f1014 	ldr	r1, [pc, #20]	; c108864 <isr_ZDMA0_dummy+0x44>
 c10884c:	e1a02003 	mov	r2, r3
 c108850:	eb0001b8 	bl	c108f38 <fatalerror>
 c108854:	e24bd020 	sub	sp, fp, #32
 c108858:	e89d681f 	ldm	sp, {r0, r1, r2, r3, r4, fp, sp, lr}
 c10885c:	e49dc004 	pop	{ip}		; (ldr ip, [sp], #4)
 c108860:	e25ef004 	subs	pc, lr, #4
 c108864:	0c10caf0 	.word	0x0c10caf0

0c108868 <isr_TICK_dummy>:
 c108868:	e52dc004 	push	{ip}		; (str ip, [sp, #-4]!)
 c10886c:	e1a0c00d 	mov	ip, sp
 c108870:	e92dd81f 	push	{r0, r1, r2, r3, r4, fp, ip, lr, pc}
 c108874:	e24cb004 	sub	fp, ip, #4
 c108878:	e24dd00c 	sub	sp, sp, #12
 c10887c:	e1a0400e 	mov	r4, lr
 c108880:	e50b4028 	str	r4, [fp, #-40]	; 0xffffffd8
 c108884:	e51b3028 	ldr	r3, [fp, #-40]	; 0xffffffd8
 c108888:	e2433004 	sub	r3, r3, #4
 c10888c:	e3a0000a 	mov	r0, #10
 c108890:	e59f1014 	ldr	r1, [pc, #20]	; c1088ac <isr_TICK_dummy+0x44>
 c108894:	e1a02003 	mov	r2, r3
 c108898:	eb0001a6 	bl	c108f38 <fatalerror>
 c10889c:	e24bd020 	sub	sp, fp, #32
 c1088a0:	e89d681f 	ldm	sp, {r0, r1, r2, r3, r4, fp, sp, lr}
 c1088a4:	e49dc004 	pop	{ip}		; (ldr ip, [sp], #4)
 c1088a8:	e25ef004 	subs	pc, lr, #4
 c1088ac:	0c10cb28 	.word	0x0c10cb28

0c1088b0 <isr_PB_dummy>:
 c1088b0:	e52dc004 	push	{ip}		; (str ip, [sp, #-4]!)
 c1088b4:	e1a0c00d 	mov	ip, sp
 c1088b8:	e92dd81f 	push	{r0, r1, r2, r3, r4, fp, ip, lr, pc}
 c1088bc:	e24cb004 	sub	fp, ip, #4
 c1088c0:	e24dd00c 	sub	sp, sp, #12
 c1088c4:	e1a0400e 	mov	r4, lr
 c1088c8:	e50b4028 	str	r4, [fp, #-40]	; 0xffffffd8
 c1088cc:	e51b3028 	ldr	r3, [fp, #-40]	; 0xffffffd8
 c1088d0:	e2433004 	sub	r3, r3, #4
 c1088d4:	e3a00006 	mov	r0, #6
 c1088d8:	e59f1014 	ldr	r1, [pc, #20]	; c1088f4 <isr_PB_dummy+0x44>
 c1088dc:	e1a02003 	mov	r2, r3
 c1088e0:	eb000194 	bl	c108f38 <fatalerror>
 c1088e4:	e24bd020 	sub	sp, fp, #32
 c1088e8:	e89d681f 	ldm	sp, {r0, r1, r2, r3, r4, fp, sp, lr}
 c1088ec:	e49dc004 	pop	{ip}		; (ldr ip, [sp], #4)
 c1088f0:	e25ef004 	subs	pc, lr, #4
 c1088f4:	0c10cb44 	.word	0x0c10cb44

0c1088f8 <isr_ETHERNET_dummy>:
 c1088f8:	e52dc004 	push	{ip}		; (str ip, [sp, #-4]!)
 c1088fc:	e1a0c00d 	mov	ip, sp
 c108900:	e92dd81f 	push	{r0, r1, r2, r3, r4, fp, ip, lr, pc}
 c108904:	e24cb004 	sub	fp, ip, #4
 c108908:	e24dd00c 	sub	sp, sp, #12
 c10890c:	e1a0400e 	mov	r4, lr
 c108910:	e50b4028 	str	r4, [fp, #-40]	; 0xffffffd8
 c108914:	e51b3028 	ldr	r3, [fp, #-40]	; 0xffffffd8
 c108918:	e2433004 	sub	r3, r3, #4
 c10891c:	e3a0000f 	mov	r0, #15
 c108920:	e59f1014 	ldr	r1, [pc, #20]	; c10893c <isr_ETHERNET_dummy+0x44>
 c108924:	e1a02003 	mov	r2, r3
 c108928:	eb000182 	bl	c108f38 <fatalerror>
 c10892c:	e24bd020 	sub	sp, fp, #32
 c108930:	e89d681f 	ldm	sp, {r0, r1, r2, r3, r4, fp, sp, lr}
 c108934:	e49dc004 	pop	{ip}		; (ldr ip, [sp], #4)
 c108938:	e25ef004 	subs	pc, lr, #4
 c10893c:	0c10cb5c 	.word	0x0c10cb5c

0c108940 <isr_TS_dummy>:
 c108940:	e52dc004 	push	{ip}		; (str ip, [sp, #-4]!)
 c108944:	e1a0c00d 	mov	ip, sp
 c108948:	e92dd81f 	push	{r0, r1, r2, r3, r4, fp, ip, lr, pc}
 c10894c:	e24cb004 	sub	fp, ip, #4
 c108950:	e24dd00c 	sub	sp, sp, #12
 c108954:	e1a0400e 	mov	r4, lr
 c108958:	e50b4028 	str	r4, [fp, #-40]	; 0xffffffd8
 c10895c:	e51b3028 	ldr	r3, [fp, #-40]	; 0xffffffd8
 c108960:	e2433004 	sub	r3, r3, #4
 c108964:	e3a0000b 	mov	r0, #11
 c108968:	e59f1014 	ldr	r1, [pc, #20]	; c108984 <isr_TS_dummy+0x44>
 c10896c:	e1a02003 	mov	r2, r3
 c108970:	eb000170 	bl	c108f38 <fatalerror>
 c108974:	e24bd020 	sub	sp, fp, #32
 c108978:	e89d681f 	ldm	sp, {r0, r1, r2, r3, r4, fp, sp, lr}
 c10897c:	e49dc004 	pop	{ip}		; (ldr ip, [sp], #4)
 c108980:	e25ef004 	subs	pc, lr, #4
 c108984:	0c10cb7c 	.word	0x0c10cb7c

0c108988 <isr_KEYPAD_dummy>:
 c108988:	e52dc004 	push	{ip}		; (str ip, [sp, #-4]!)
 c10898c:	e1a0c00d 	mov	ip, sp
 c108990:	e92dd81f 	push	{r0, r1, r2, r3, r4, fp, ip, lr, pc}
 c108994:	e24cb004 	sub	fp, ip, #4
 c108998:	e24dd00c 	sub	sp, sp, #12
 c10899c:	e1a0400e 	mov	r4, lr
 c1089a0:	e50b4028 	str	r4, [fp, #-40]	; 0xffffffd8
 c1089a4:	e51b3028 	ldr	r3, [fp, #-40]	; 0xffffffd8
 c1089a8:	e2433004 	sub	r3, r3, #4
 c1089ac:	e3a00007 	mov	r0, #7
 c1089b0:	e59f1014 	ldr	r1, [pc, #20]	; c1089cc <isr_KEYPAD_dummy+0x44>
 c1089b4:	e1a02003 	mov	r2, r3
 c1089b8:	eb00015e 	bl	c108f38 <fatalerror>
 c1089bc:	e24bd020 	sub	sp, fp, #32
 c1089c0:	e89d681f 	ldm	sp, {r0, r1, r2, r3, r4, fp, sp, lr}
 c1089c4:	e49dc004 	pop	{ip}		; (ldr ip, [sp], #4)
 c1089c8:	e25ef004 	subs	pc, lr, #4
 c1089cc:	0c10cb94 	.word	0x0c10cb94

0c1089d0 <isr_USB_dummy>:
 c1089d0:	e52dc004 	push	{ip}		; (str ip, [sp, #-4]!)
 c1089d4:	e1a0c00d 	mov	ip, sp
 c1089d8:	e92dd81f 	push	{r0, r1, r2, r3, r4, fp, ip, lr, pc}
 c1089dc:	e24cb004 	sub	fp, ip, #4
 c1089e0:	e24dd00c 	sub	sp, sp, #12
 c1089e4:	e1a0400e 	mov	r4, lr
 c1089e8:	e50b4028 	str	r4, [fp, #-40]	; 0xffffffd8
 c1089ec:	e51b3028 	ldr	r3, [fp, #-40]	; 0xffffffd8
 c1089f0:	e2433004 	sub	r3, r3, #4
 c1089f4:	e3a0000f 	mov	r0, #15
 c1089f8:	e59f1014 	ldr	r1, [pc, #20]	; c108a14 <isr_USB_dummy+0x44>
 c1089fc:	e1a02003 	mov	r2, r3
 c108a00:	eb00014c 	bl	c108f38 <fatalerror>
 c108a04:	e24bd020 	sub	sp, fp, #32
 c108a08:	e89d681f 	ldm	sp, {r0, r1, r2, r3, r4, fp, sp, lr}
 c108a0c:	e49dc004 	pop	{ip}		; (ldr ip, [sp], #4)
 c108a10:	e25ef004 	subs	pc, lr, #4
 c108a14:	0c10cbb0 	.word	0x0c10cbb0

0c108a18 <show_sys_info>:
 c108a18:	e1a0c00d 	mov	ip, sp
 c108a1c:	e92dd810 	push	{r4, fp, ip, lr, pc}
 c108a20:	e24cb004 	sub	fp, ip, #4
 c108a24:	e24dd00c 	sub	sp, sp, #12
 c108a28:	e59f03a4 	ldr	r0, [pc, #932]	; c108dd4 <show_sys_info+0x3bc>
 c108a2c:	eb00073f 	bl	c10a730 <uart0_puts>
 c108a30:	e59f03a0 	ldr	r0, [pc, #928]	; c108dd8 <show_sys_info+0x3c0>
 c108a34:	eb00073d 	bl	c10a730 <uart0_puts>
 c108a38:	e59f039c 	ldr	r0, [pc, #924]	; c108ddc <show_sys_info+0x3c4>
 c108a3c:	eb00073b 	bl	c10a730 <uart0_puts>
 c108a40:	e59f0398 	ldr	r0, [pc, #920]	; c108de0 <show_sys_info+0x3c8>
 c108a44:	eb000739 	bl	c10a730 <uart0_puts>
 c108a48:	e59f0394 	ldr	r0, [pc, #916]	; c108de4 <show_sys_info+0x3cc>
 c108a4c:	eb000737 	bl	c10a730 <uart0_puts>
 c108a50:	e59f0390 	ldr	r0, [pc, #912]	; c108de8 <show_sys_info+0x3d0>
 c108a54:	eb000735 	bl	c10a730 <uart0_puts>
 c108a58:	e59f038c 	ldr	r0, [pc, #908]	; c108dec <show_sys_info+0x3d4>
 c108a5c:	eb000733 	bl	c10a730 <uart0_puts>
 c108a60:	e59f0388 	ldr	r0, [pc, #904]	; c108df0 <show_sys_info+0x3d8>
 c108a64:	eb000731 	bl	c10a730 <uart0_puts>
 c108a68:	e59f0384 	ldr	r0, [pc, #900]	; c108df4 <show_sys_info+0x3dc>
 c108a6c:	eb00072f 	bl	c10a730 <uart0_puts>
 c108a70:	e59f0380 	ldr	r0, [pc, #896]	; c108df8 <show_sys_info+0x3e0>
 c108a74:	eb00072d 	bl	c10a730 <uart0_puts>
 c108a78:	e59f037c 	ldr	r0, [pc, #892]	; c108dfc <show_sys_info+0x3e4>
 c108a7c:	eb00072b 	bl	c10a730 <uart0_puts>
 c108a80:	e59f0378 	ldr	r0, [pc, #888]	; c108e00 <show_sys_info+0x3e8>
 c108a84:	eb000729 	bl	c10a730 <uart0_puts>
 c108a88:	e59f0374 	ldr	r0, [pc, #884]	; c108e04 <show_sys_info+0x3ec>
 c108a8c:	eb000727 	bl	c10a730 <uart0_puts>
 c108a90:	e59f0370 	ldr	r0, [pc, #880]	; c108e08 <show_sys_info+0x3f0>
 c108a94:	eb000725 	bl	c10a730 <uart0_puts>
 c108a98:	e59f036c 	ldr	r0, [pc, #876]	; c108e0c <show_sys_info+0x3f4>
 c108a9c:	eb000723 	bl	c10a730 <uart0_puts>
 c108aa0:	e10f4000 	mrs	r4, CPSR
 c108aa4:	e50b4018 	str	r4, [fp, #-24]	; 0xffffffe8
 c108aa8:	e51b3018 	ldr	r3, [fp, #-24]	; 0xffffffe8
 c108aac:	e2033020 	and	r3, r3, #32
 c108ab0:	e3530000 	cmp	r3, #0
 c108ab4:	0a000002 	beq	c108ac4 <show_sys_info+0xac>
 c108ab8:	e59f0350 	ldr	r0, [pc, #848]	; c108e10 <show_sys_info+0x3f8>
 c108abc:	eb00071b 	bl	c10a730 <uart0_puts>
 c108ac0:	ea000001 	b	c108acc <show_sys_info+0xb4>
 c108ac4:	e59f0348 	ldr	r0, [pc, #840]	; c108e14 <show_sys_info+0x3fc>
 c108ac8:	eb000718 	bl	c10a730 <uart0_puts>
 c108acc:	e59f0344 	ldr	r0, [pc, #836]	; c108e18 <show_sys_info+0x400>
 c108ad0:	eb000716 	bl	c10a730 <uart0_puts>
 c108ad4:	e51b3018 	ldr	r3, [fp, #-24]	; 0xffffffe8
 c108ad8:	e203301f 	and	r3, r3, #31
 c108adc:	e2433010 	sub	r3, r3, #16
 c108ae0:	e353000f 	cmp	r3, #15
 c108ae4:	979ff103 	ldrls	pc, [pc, r3, lsl #2]
 c108ae8:	ea000024 	b	c108b80 <show_sys_info+0x168>
 c108aec:	0c108b2c 	.word	0x0c108b2c
 c108af0:	0c108b38 	.word	0x0c108b38
 c108af4:	0c108b44 	.word	0x0c108b44
 c108af8:	0c108b50 	.word	0x0c108b50
 c108afc:	0c108b80 	.word	0x0c108b80
 c108b00:	0c108b80 	.word	0x0c108b80
 c108b04:	0c108b80 	.word	0x0c108b80
 c108b08:	0c108b5c 	.word	0x0c108b5c
 c108b0c:	0c108b80 	.word	0x0c108b80
 c108b10:	0c108b80 	.word	0x0c108b80
 c108b14:	0c108b80 	.word	0x0c108b80
 c108b18:	0c108b68 	.word	0x0c108b68
 c108b1c:	0c108b80 	.word	0x0c108b80
 c108b20:	0c108b80 	.word	0x0c108b80
 c108b24:	0c108b80 	.word	0x0c108b80
 c108b28:	0c108b74 	.word	0x0c108b74
 c108b2c:	e59f02e8 	ldr	r0, [pc, #744]	; c108e1c <show_sys_info+0x404>
 c108b30:	eb0006fe 	bl	c10a730 <uart0_puts>
 c108b34:	ea000011 	b	c108b80 <show_sys_info+0x168>
 c108b38:	e59f02e0 	ldr	r0, [pc, #736]	; c108e20 <show_sys_info+0x408>
 c108b3c:	eb0006fb 	bl	c10a730 <uart0_puts>
 c108b40:	ea00000e 	b	c108b80 <show_sys_info+0x168>
 c108b44:	e59f02d8 	ldr	r0, [pc, #728]	; c108e24 <show_sys_info+0x40c>
 c108b48:	eb0006f8 	bl	c10a730 <uart0_puts>
 c108b4c:	ea00000b 	b	c108b80 <show_sys_info+0x168>
 c108b50:	e59f02d0 	ldr	r0, [pc, #720]	; c108e28 <show_sys_info+0x410>
 c108b54:	eb0006f5 	bl	c10a730 <uart0_puts>
 c108b58:	ea000008 	b	c108b80 <show_sys_info+0x168>
 c108b5c:	e59f02c8 	ldr	r0, [pc, #712]	; c108e2c <show_sys_info+0x414>
 c108b60:	eb0006f2 	bl	c10a730 <uart0_puts>
 c108b64:	ea000005 	b	c108b80 <show_sys_info+0x168>
 c108b68:	e59f02c0 	ldr	r0, [pc, #704]	; c108e30 <show_sys_info+0x418>
 c108b6c:	eb0006ef 	bl	c10a730 <uart0_puts>
 c108b70:	ea000002 	b	c108b80 <show_sys_info+0x168>
 c108b74:	e59f02b8 	ldr	r0, [pc, #696]	; c108e34 <show_sys_info+0x41c>
 c108b78:	eb0006ec 	bl	c10a730 <uart0_puts>
 c108b7c:	e1a00000 	nop			; (mov r0, r0)
 c108b80:	e59f02b0 	ldr	r0, [pc, #688]	; c108e38 <show_sys_info+0x420>
 c108b84:	eb0006e9 	bl	c10a730 <uart0_puts>
 c108b88:	e51b3018 	ldr	r3, [fp, #-24]	; 0xffffffe8
 c108b8c:	e2033080 	and	r3, r3, #128	; 0x80
 c108b90:	e3530000 	cmp	r3, #0
 c108b94:	0a000002 	beq	c108ba4 <show_sys_info+0x18c>
 c108b98:	e59f029c 	ldr	r0, [pc, #668]	; c108e3c <show_sys_info+0x424>
 c108b9c:	eb0006e3 	bl	c10a730 <uart0_puts>
 c108ba0:	ea000001 	b	c108bac <show_sys_info+0x194>
 c108ba4:	e59f0294 	ldr	r0, [pc, #660]	; c108e40 <show_sys_info+0x428>
 c108ba8:	eb0006e0 	bl	c10a730 <uart0_puts>
 c108bac:	e59f0290 	ldr	r0, [pc, #656]	; c108e44 <show_sys_info+0x42c>
 c108bb0:	eb0006de 	bl	c10a730 <uart0_puts>
 c108bb4:	e51b3018 	ldr	r3, [fp, #-24]	; 0xffffffe8
 c108bb8:	e2033040 	and	r3, r3, #64	; 0x40
 c108bbc:	e3530000 	cmp	r3, #0
 c108bc0:	0a000002 	beq	c108bd0 <show_sys_info+0x1b8>
 c108bc4:	e59f0270 	ldr	r0, [pc, #624]	; c108e3c <show_sys_info+0x424>
 c108bc8:	eb0006d8 	bl	c10a730 <uart0_puts>
 c108bcc:	ea000001 	b	c108bd8 <show_sys_info+0x1c0>
 c108bd0:	e59f0268 	ldr	r0, [pc, #616]	; c108e40 <show_sys_info+0x428>
 c108bd4:	eb0006d5 	bl	c10a730 <uart0_puts>
 c108bd8:	e59f0268 	ldr	r0, [pc, #616]	; c108e48 <show_sys_info+0x430>
 c108bdc:	eb0006d3 	bl	c10a730 <uart0_puts>
 c108be0:	e59f3264 	ldr	r3, [pc, #612]	; c108e4c <show_sys_info+0x434>
 c108be4:	e5932000 	ldr	r2, [r3]
 c108be8:	e59f3260 	ldr	r3, [pc, #608]	; c108e50 <show_sys_info+0x438>
 c108bec:	e0831392 	umull	r1, r3, r2, r3
 c108bf0:	e1a03923 	lsr	r3, r3, #18
 c108bf4:	e1a00003 	mov	r0, r3
 c108bf8:	eb0006e0 	bl	c10a780 <uart0_putint>
 c108bfc:	e59f0250 	ldr	r0, [pc, #592]	; c108e54 <show_sys_info+0x43c>
 c108c00:	eb0006ca 	bl	c10a730 <uart0_puts>
 c108c04:	e59f024c 	ldr	r0, [pc, #588]	; c108e58 <show_sys_info+0x440>
 c108c08:	eb0006c8 	bl	c10a730 <uart0_puts>
 c108c0c:	e3a03507 	mov	r3, #29360128	; 0x1c00000
 c108c10:	e5933000 	ldr	r3, [r3]
 c108c14:	e2033006 	and	r3, r3, #6
 c108c18:	e1a030a3 	lsr	r3, r3, #1
 c108c1c:	e3530001 	cmp	r3, #1
 c108c20:	0a000007 	beq	c108c44 <show_sys_info+0x22c>
 c108c24:	e3530001 	cmp	r3, #1
 c108c28:	3a000002 	bcc	c108c38 <show_sys_info+0x220>
 c108c2c:	e3530003 	cmp	r3, #3
 c108c30:	0a000006 	beq	c108c50 <show_sys_info+0x238>
 c108c34:	ea000008 	b	c108c5c <show_sys_info+0x244>
 c108c38:	e59f021c 	ldr	r0, [pc, #540]	; c108e5c <show_sys_info+0x444>
 c108c3c:	eb0006bb 	bl	c10a730 <uart0_puts>
 c108c40:	ea000005 	b	c108c5c <show_sys_info+0x244>
 c108c44:	e59f0214 	ldr	r0, [pc, #532]	; c108e60 <show_sys_info+0x448>
 c108c48:	eb0006b8 	bl	c10a730 <uart0_puts>
 c108c4c:	ea000002 	b	c108c5c <show_sys_info+0x244>
 c108c50:	e59f020c 	ldr	r0, [pc, #524]	; c108e64 <show_sys_info+0x44c>
 c108c54:	eb0006b5 	bl	c10a730 <uart0_puts>
 c108c58:	e1a00000 	nop			; (mov r0, r0)
 c108c5c:	e59f0204 	ldr	r0, [pc, #516]	; c108e68 <show_sys_info+0x450>
 c108c60:	eb0006b2 	bl	c10a730 <uart0_puts>
 c108c64:	e3a00002 	mov	r0, #2
 c108c68:	eb0006c4 	bl	c10a780 <uart0_putint>
 c108c6c:	e59f01f8 	ldr	r0, [pc, #504]	; c108e6c <show_sys_info+0x454>
 c108c70:	eb0006ae 	bl	c10a730 <uart0_puts>
 c108c74:	e59f01f4 	ldr	r0, [pc, #500]	; c108e70 <show_sys_info+0x458>
 c108c78:	eb0006ac 	bl	c10a730 <uart0_puts>
 c108c7c:	e3a00008 	mov	r0, #8
 c108c80:	eb0006be 	bl	c10a780 <uart0_putint>
 c108c84:	e59f01e0 	ldr	r0, [pc, #480]	; c108e6c <show_sys_info+0x454>
 c108c88:	eb0006a8 	bl	c10a730 <uart0_puts>
 c108c8c:	e59f01e0 	ldr	r0, [pc, #480]	; c108e74 <show_sys_info+0x45c>
 c108c90:	eb0006a6 	bl	c10a730 <uart0_puts>
 c108c94:	e59f01dc 	ldr	r0, [pc, #476]	; c108e78 <show_sys_info+0x460>
 c108c98:	eb0006a4 	bl	c10a730 <uart0_puts>
 c108c9c:	e59f01d8 	ldr	r0, [pc, #472]	; c108e7c <show_sys_info+0x464>
 c108ca0:	eb0006a2 	bl	c10a730 <uart0_puts>
 c108ca4:	e59f31d4 	ldr	r3, [pc, #468]	; c108e80 <show_sys_info+0x468>
 c108ca8:	e1a03523 	lsr	r3, r3, #10
 c108cac:	e1a00003 	mov	r0, r3
 c108cb0:	eb0006b2 	bl	c10a780 <uart0_putint>
 c108cb4:	e59f01c8 	ldr	r0, [pc, #456]	; c108e84 <show_sys_info+0x46c>
 c108cb8:	eb00069c 	bl	c10a730 <uart0_puts>
 c108cbc:	e59f31bc 	ldr	r3, [pc, #444]	; c108e80 <show_sys_info+0x468>
 c108cc0:	e1a00003 	mov	r0, r3
 c108cc4:	eb0006ad 	bl	c10a780 <uart0_putint>
 c108cc8:	e59f01b8 	ldr	r0, [pc, #440]	; c108e88 <show_sys_info+0x470>
 c108ccc:	eb000697 	bl	c10a730 <uart0_puts>
 c108cd0:	e59f21a8 	ldr	r2, [pc, #424]	; c108e80 <show_sys_info+0x468>
 c108cd4:	e1a03002 	mov	r3, r2
 c108cd8:	e1a03103 	lsl	r3, r3, #2
 c108cdc:	e0833002 	add	r3, r3, r2
 c108ce0:	e1a02103 	lsl	r2, r3, #2
 c108ce4:	e0833002 	add	r3, r3, r2
 c108ce8:	e1a03103 	lsl	r3, r3, #2
 c108cec:	e1a03ba3 	lsr	r3, r3, #23
 c108cf0:	e1a00003 	mov	r0, r3
 c108cf4:	eb0006a1 	bl	c10a780 <uart0_putint>
 c108cf8:	e59f018c 	ldr	r0, [pc, #396]	; c108e8c <show_sys_info+0x474>
 c108cfc:	eb00068b 	bl	c10a730 <uart0_puts>
 c108d00:	e59f0188 	ldr	r0, [pc, #392]	; c108e90 <show_sys_info+0x478>
 c108d04:	eb000689 	bl	c10a730 <uart0_puts>
 c108d08:	e59f3184 	ldr	r3, [pc, #388]	; c108e94 <show_sys_info+0x47c>
 c108d0c:	e1a03523 	lsr	r3, r3, #10
 c108d10:	e1a00003 	mov	r0, r3
 c108d14:	eb000699 	bl	c10a780 <uart0_putint>
 c108d18:	e59f0164 	ldr	r0, [pc, #356]	; c108e84 <show_sys_info+0x46c>
 c108d1c:	eb000683 	bl	c10a730 <uart0_puts>
 c108d20:	e59f316c 	ldr	r3, [pc, #364]	; c108e94 <show_sys_info+0x47c>
 c108d24:	e1a00003 	mov	r0, r3
 c108d28:	eb000694 	bl	c10a780 <uart0_putint>
 c108d2c:	e59f0164 	ldr	r0, [pc, #356]	; c108e98 <show_sys_info+0x480>
 c108d30:	eb00067e 	bl	c10a730 <uart0_puts>
 c108d34:	e59f0160 	ldr	r0, [pc, #352]	; c108e9c <show_sys_info+0x484>
 c108d38:	eb00067c 	bl	c10a730 <uart0_puts>
 c108d3c:	e59f315c 	ldr	r3, [pc, #348]	; c108ea0 <show_sys_info+0x488>
 c108d40:	e1a00003 	mov	r0, r3
 c108d44:	eb0006e2 	bl	c10a8d4 <uart0_puthex>
 c108d48:	e59f0154 	ldr	r0, [pc, #340]	; c108ea4 <show_sys_info+0x48c>
 c108d4c:	eb000677 	bl	c10a730 <uart0_puts>
 c108d50:	e59f3150 	ldr	r3, [pc, #336]	; c108ea8 <show_sys_info+0x490>
 c108d54:	e2433001 	sub	r3, r3, #1
 c108d58:	e1a00003 	mov	r0, r3
 c108d5c:	eb0006dc 	bl	c10a8d4 <uart0_puthex>
 c108d60:	e59f0144 	ldr	r0, [pc, #324]	; c108eac <show_sys_info+0x494>
 c108d64:	eb000671 	bl	c10a730 <uart0_puts>
 c108d68:	e59f3140 	ldr	r3, [pc, #320]	; c108eb0 <show_sys_info+0x498>
 c108d6c:	e1a03523 	lsr	r3, r3, #10
 c108d70:	e1a00003 	mov	r0, r3
 c108d74:	eb000681 	bl	c10a780 <uart0_putint>
 c108d78:	e59f0104 	ldr	r0, [pc, #260]	; c108e84 <show_sys_info+0x46c>
 c108d7c:	eb00066b 	bl	c10a730 <uart0_puts>
 c108d80:	e59f3128 	ldr	r3, [pc, #296]	; c108eb0 <show_sys_info+0x498>
 c108d84:	e1a00003 	mov	r0, r3
 c108d88:	eb00067c 	bl	c10a780 <uart0_putint>
 c108d8c:	e59f0104 	ldr	r0, [pc, #260]	; c108e98 <show_sys_info+0x480>
 c108d90:	eb000666 	bl	c10a730 <uart0_puts>
 c108d94:	e59f0100 	ldr	r0, [pc, #256]	; c108e9c <show_sys_info+0x484>
 c108d98:	eb000664 	bl	c10a730 <uart0_puts>
 c108d9c:	e59f3110 	ldr	r3, [pc, #272]	; c108eb4 <show_sys_info+0x49c>
 c108da0:	e1a00003 	mov	r0, r3
 c108da4:	eb0006ca 	bl	c10a8d4 <uart0_puthex>
 c108da8:	e59f00f4 	ldr	r0, [pc, #244]	; c108ea4 <show_sys_info+0x48c>
 c108dac:	eb00065f 	bl	c10a730 <uart0_puts>
 c108db0:	e59f3100 	ldr	r3, [pc, #256]	; c108eb8 <show_sys_info+0x4a0>
 c108db4:	e2433001 	sub	r3, r3, #1
 c108db8:	e1a00003 	mov	r0, r3
 c108dbc:	eb0006c4 	bl	c10a8d4 <uart0_puthex>
 c108dc0:	e59f00f4 	ldr	r0, [pc, #244]	; c108ebc <show_sys_info+0x4a4>
 c108dc4:	eb000659 	bl	c10a730 <uart0_puts>
 c108dc8:	e24bd010 	sub	sp, fp, #16
 c108dcc:	e89d6810 	ldm	sp, {r4, fp, sp, lr}
 c108dd0:	e12fff1e 	bx	lr
 c108dd4:	0c10cbcc 	.word	0x0c10cbcc
 c108dd8:	0c10cbfc 	.word	0x0c10cbfc
 c108ddc:	0c10cc10 	.word	0x0c10cc10
 c108de0:	0c10cc28 	.word	0x0c10cc28
 c108de4:	0c10cc38 	.word	0x0c10cc38
 c108de8:	0c10cc44 	.word	0x0c10cc44
 c108dec:	0c10cc48 	.word	0x0c10cc48
 c108df0:	0c10cc54 	.word	0x0c10cc54
 c108df4:	0c10cc58 	.word	0x0c10cc58
 c108df8:	0c10cc78 	.word	0x0c10cc78
 c108dfc:	0c10cc80 	.word	0x0c10cc80
 c108e00:	0c10cca8 	.word	0x0c10cca8
 c108e04:	0c10ccc4 	.word	0x0c10ccc4
 c108e08:	0c10ccd0 	.word	0x0c10ccd0
 c108e0c:	0c10ccdc 	.word	0x0c10ccdc
 c108e10:	0c10ccf8 	.word	0x0c10ccf8
 c108e14:	0c10cd00 	.word	0x0c10cd00
 c108e18:	0c10cd04 	.word	0x0c10cd04
 c108e1c:	0c10cd20 	.word	0x0c10cd20
 c108e20:	0c10cd24 	.word	0x0c10cd24
 c108e24:	0c10cd28 	.word	0x0c10cd28
 c108e28:	0c10cd2c 	.word	0x0c10cd2c
 c108e2c:	0c10cd30 	.word	0x0c10cd30
 c108e30:	0c10cd34 	.word	0x0c10cd34
 c108e34:	0c10cd38 	.word	0x0c10cd38
 c108e38:	0c10cd3c 	.word	0x0c10cd3c
 c108e3c:	0c10cd58 	.word	0x0c10cd58
 c108e40:	0c10cd68 	.word	0x0c10cd68
 c108e44:	0c10cd74 	.word	0x0c10cd74
 c108e48:	0c10cd90 	.word	0x0c10cd90
 c108e4c:	0c10e00c 	.word	0x0c10e00c
 c108e50:	431bde83 	.word	0x431bde83
 c108e54:	0c10cdac 	.word	0x0c10cdac
 c108e58:	0c10cdb4 	.word	0x0c10cdb4
 c108e5c:	0c10cdd0 	.word	0x0c10cdd0
 c108e60:	0c10cde0 	.word	0x0c10cde0
 c108e64:	0c10cde8 	.word	0x0c10cde8
 c108e68:	0c10cdf0 	.word	0x0c10cdf0
 c108e6c:	0c10ce0c 	.word	0x0c10ce0c
 c108e70:	0c10ce10 	.word	0x0c10ce10
 c108e74:	0c10ce2c 	.word	0x0c10ce2c
 c108e78:	0c10ce4c 	.word	0x0c10ce4c
 c108e7c:	0c10ce5c 	.word	0x0c10ce5c
 c108e80:	0000e476 	.word	0x0000e476
 c108e84:	0c10ce74 	.word	0x0c10ce74
 c108e88:	0c10ce7c 	.word	0x0c10ce7c
 c108e8c:	0c10ce84 	.word	0x0c10ce84
 c108e90:	0c10ce88 	.word	0x0c10ce88
 c108e94:	0000c0c0 	.word	0x0000c0c0
 c108e98:	0c10cea4 	.word	0x0c10cea4
 c108e9c:	0c10cea8 	.word	0x0c10cea8
 c108ea0:	0c100000 	.word	0x0c100000
 c108ea4:	0c10cec4 	.word	0x0c10cec4
 c108ea8:	0c10c0c0 	.word	0x0c10c0c0
 c108eac:	0c10cee0 	.word	0x0c10cee0
 c108eb0:	000023b6 	.word	0x000023b6
 c108eb4:	0c10c0c0 	.word	0x0c10c0c0
 c108eb8:	0c117a7e 	.word	0x0c117a7e
 c108ebc:	0c10cefc 	.word	0x0c10cefc

0c108ec0 <getmem>:
 c108ec0:	e1a0c00d 	mov	ip, sp
 c108ec4:	e92dd800 	push	{fp, ip, lr, pc}
 c108ec8:	e24cb004 	sub	fp, ip, #4
 c108ecc:	e24dd010 	sub	sp, sp, #16
 c108ed0:	e50b0018 	str	r0, [fp, #-24]	; 0xffffffe8
 c108ed4:	e59f3058 	ldr	r3, [pc, #88]	; c108f34 <getmem+0x74>
 c108ed8:	e5933000 	ldr	r3, [r3]
 c108edc:	e2033003 	and	r3, r3, #3
 c108ee0:	e3530000 	cmp	r3, #0
 c108ee4:	0a000001 	beq	c108ef0 <getmem+0x30>
 c108ee8:	e3a03004 	mov	r3, #4
 c108eec:	ea000000 	b	c108ef4 <getmem+0x34>
 c108ef0:	e3a03000 	mov	r3, #0
 c108ef4:	e59f2038 	ldr	r2, [pc, #56]	; c108f34 <getmem+0x74>
 c108ef8:	e5922000 	ldr	r2, [r2]
 c108efc:	e3c22003 	bic	r2, r2, #3
 c108f00:	e0833002 	add	r3, r3, r2
 c108f04:	e50b3010 	str	r3, [fp, #-16]
 c108f08:	e59f3024 	ldr	r3, [pc, #36]	; c108f34 <getmem+0x74>
 c108f0c:	e5932000 	ldr	r2, [r3]
 c108f10:	e51b3018 	ldr	r3, [fp, #-24]	; 0xffffffe8
 c108f14:	e0822003 	add	r2, r2, r3
 c108f18:	e59f3014 	ldr	r3, [pc, #20]	; c108f34 <getmem+0x74>
 c108f1c:	e5832000 	str	r2, [r3]
 c108f20:	e51b3010 	ldr	r3, [fp, #-16]
 c108f24:	e1a00003 	mov	r0, r3
 c108f28:	e24bd00c 	sub	sp, fp, #12
 c108f2c:	e89d6800 	ldm	sp, {fp, sp, lr}
 c108f30:	e12fff1e 	bx	lr
 c108f34:	0c10e010 	.word	0x0c10e010

0c108f38 <fatalerror>:
 c108f38:	e1a0c00d 	mov	ip, sp
 c108f3c:	e92dd800 	push	{fp, ip, lr, pc}
 c108f40:	e24cb004 	sub	fp, ip, #4
 c108f44:	e24dd018 	sub	sp, sp, #24
 c108f48:	e1a03000 	mov	r3, r0
 c108f4c:	e50b101c 	str	r1, [fp, #-28]	; 0xffffffe4
 c108f50:	e50b2020 	str	r2, [fp, #-32]	; 0xffffffe0
 c108f54:	e54b3015 	strb	r3, [fp, #-21]	; 0xffffffeb
 c108f58:	e59f00a8 	ldr	r0, [pc, #168]	; c109008 <fatalerror+0xd0>
 c108f5c:	eb0005f3 	bl	c10a730 <uart0_puts>
 c108f60:	e51b001c 	ldr	r0, [fp, #-28]	; 0xffffffe4
 c108f64:	eb0005f1 	bl	c10a730 <uart0_puts>
 c108f68:	e59f009c 	ldr	r0, [pc, #156]	; c10900c <fatalerror+0xd4>
 c108f6c:	eb0005ef 	bl	c10a730 <uart0_puts>
 c108f70:	e51b0020 	ldr	r0, [fp, #-32]	; 0xffffffe0
 c108f74:	eb000656 	bl	c10a8d4 <uart0_puthex>
 c108f78:	e59f3090 	ldr	r3, [pc, #144]	; c109010 <fatalerror+0xd8>
 c108f7c:	e59f2090 	ldr	r2, [pc, #144]	; c109014 <fatalerror+0xdc>
 c108f80:	e5832000 	str	r2, [r3]
 c108f84:	e55b3015 	ldrb	r3, [fp, #-21]	; 0xffffffeb
 c108f88:	e1a00003 	mov	r0, r3
 c108f8c:	ebfffa0e 	bl	c1077cc <segs_putchar>
 c108f90:	e59f3080 	ldr	r3, [pc, #128]	; c109018 <fatalerror+0xe0>
 c108f94:	e3a02000 	mov	r2, #0
 c108f98:	e5832000 	str	r2, [r3]
 c108f9c:	e3a03000 	mov	r3, #0
 c108fa0:	e50b3010 	str	r3, [fp, #-16]
 c108fa4:	ea000002 	b	c108fb4 <fatalerror+0x7c>
 c108fa8:	e51b3010 	ldr	r3, [fp, #-16]
 c108fac:	e2833001 	add	r3, r3, #1
 c108fb0:	e50b3010 	str	r3, [fp, #-16]
 c108fb4:	e51b2010 	ldr	r2, [fp, #-16]
 c108fb8:	e59f305c 	ldr	r3, [pc, #92]	; c10901c <fatalerror+0xe4>
 c108fbc:	e1520003 	cmp	r2, r3
 c108fc0:	9afffff8 	bls	c108fa8 <fatalerror+0x70>
 c108fc4:	e3a03785 	mov	r3, #34865152	; 0x2140000
 c108fc8:	e3e02000 	mvn	r2, #0
 c108fcc:	e5c32000 	strb	r2, [r3]
 c108fd0:	e59f3040 	ldr	r3, [pc, #64]	; c109018 <fatalerror+0xe0>
 c108fd4:	e3a02c06 	mov	r2, #1536	; 0x600
 c108fd8:	e5832000 	str	r2, [r3]
 c108fdc:	e3a03000 	mov	r3, #0
 c108fe0:	e50b3010 	str	r3, [fp, #-16]
 c108fe4:	ea000002 	b	c108ff4 <fatalerror+0xbc>
 c108fe8:	e51b3010 	ldr	r3, [fp, #-16]
 c108fec:	e2833001 	add	r3, r3, #1
 c108ff0:	e50b3010 	str	r3, [fp, #-16]
 c108ff4:	e51b2010 	ldr	r2, [fp, #-16]
 c108ff8:	e59f301c 	ldr	r3, [pc, #28]	; c10901c <fatalerror+0xe4>
 c108ffc:	e1520003 	cmp	r2, r3
 c109000:	9afffff8 	bls	c108fe8 <fatalerror+0xb0>
 c109004:	eaffffde 	b	c108f84 <fatalerror+0x4c>
 c109008:	0c10cf2c 	.word	0x0c10cf2c
 c10900c:	0c10cf40 	.word	0x0c10cf40
 c109010:	01d20008 	.word	0x01d20008
 c109014:	0000014f 	.word	0x0000014f
 c109018:	01d2000c 	.word	0x01d2000c
 c10901c:	0001869f 	.word	0x0001869f

0c109020 <sleep>:
 c109020:	e1a0c00d 	mov	ip, sp
 c109024:	e92dd800 	push	{fp, ip, lr, pc}
 c109028:	e24cb004 	sub	fp, ip, #4
 c10902c:	e59f302c 	ldr	r3, [pc, #44]	; c109060 <sleep+0x40>
 c109030:	e59f2028 	ldr	r2, [pc, #40]	; c109060 <sleep+0x40>
 c109034:	e5922000 	ldr	r2, [r2]
 c109038:	e3822004 	orr	r2, r2, #4
 c10903c:	e5832000 	str	r2, [r3]
 c109040:	e59f3018 	ldr	r3, [pc, #24]	; c109060 <sleep+0x40>
 c109044:	e59f2014 	ldr	r2, [pc, #20]	; c109060 <sleep+0x40>
 c109048:	e5922000 	ldr	r2, [r2]
 c10904c:	e3c22004 	bic	r2, r2, #4
 c109050:	e5832000 	str	r2, [r3]
 c109054:	e24bd00c 	sub	sp, fp, #12
 c109058:	e89d6800 	ldm	sp, {fp, sp, lr}
 c10905c:	e12fff1e 	bx	lr
 c109060:	01d80004 	.word	0x01d80004

0c109064 <timers_init>:
 c109064:	e1a0c00d 	mov	ip, sp
 c109068:	e92dd800 	push	{fp, ip, lr, pc}
 c10906c:	e24cb004 	sub	fp, ip, #4
 c109070:	e3a00003 	mov	r0, #3
 c109074:	ebfff6e7 	bl	c106c18 <power_on>
 c109078:	e59f30bc 	ldr	r3, [pc, #188]	; c10913c <timers_init+0xd8>
 c10907c:	e3a02000 	mov	r2, #0
 c109080:	e5832000 	str	r2, [r3]
 c109084:	e59f30b4 	ldr	r3, [pc, #180]	; c109140 <timers_init+0xdc>
 c109088:	e3a02000 	mov	r2, #0
 c10908c:	e5832000 	str	r2, [r3]
 c109090:	e59f30ac 	ldr	r3, [pc, #172]	; c109144 <timers_init+0xe0>
 c109094:	e3a02000 	mov	r2, #0
 c109098:	e5832000 	str	r2, [r3]
 c10909c:	e59f30a4 	ldr	r3, [pc, #164]	; c109148 <timers_init+0xe4>
 c1090a0:	e3a02000 	mov	r2, #0
 c1090a4:	e5832000 	str	r2, [r3]
 c1090a8:	e59f309c 	ldr	r3, [pc, #156]	; c10914c <timers_init+0xe8>
 c1090ac:	e3a02000 	mov	r2, #0
 c1090b0:	e5832000 	str	r2, [r3]
 c1090b4:	e59f3094 	ldr	r3, [pc, #148]	; c109150 <timers_init+0xec>
 c1090b8:	e3a02000 	mov	r2, #0
 c1090bc:	e5832000 	str	r2, [r3]
 c1090c0:	e59f308c 	ldr	r3, [pc, #140]	; c109154 <timers_init+0xf0>
 c1090c4:	e3a02000 	mov	r2, #0
 c1090c8:	e5832000 	str	r2, [r3]
 c1090cc:	e59f3084 	ldr	r3, [pc, #132]	; c109158 <timers_init+0xf4>
 c1090d0:	e3a02000 	mov	r2, #0
 c1090d4:	e5832000 	str	r2, [r3]
 c1090d8:	e59f307c 	ldr	r3, [pc, #124]	; c10915c <timers_init+0xf8>
 c1090dc:	e3a02000 	mov	r2, #0
 c1090e0:	e5832000 	str	r2, [r3]
 c1090e4:	e59f3074 	ldr	r3, [pc, #116]	; c109160 <timers_init+0xfc>
 c1090e8:	e3a02000 	mov	r2, #0
 c1090ec:	e5832000 	str	r2, [r3]
 c1090f0:	e59f306c 	ldr	r3, [pc, #108]	; c109164 <timers_init+0x100>
 c1090f4:	e3a02000 	mov	r2, #0
 c1090f8:	e5832000 	str	r2, [r3]
 c1090fc:	e59f3064 	ldr	r3, [pc, #100]	; c109168 <timers_init+0x104>
 c109100:	e3a02000 	mov	r2, #0
 c109104:	e5832000 	str	r2, [r3]
 c109108:	e59f305c 	ldr	r3, [pc, #92]	; c10916c <timers_init+0x108>
 c10910c:	e3a02000 	mov	r2, #0
 c109110:	e5832000 	str	r2, [r3]
 c109114:	e59f3054 	ldr	r3, [pc, #84]	; c109170 <timers_init+0x10c>
 c109118:	e59f2054 	ldr	r2, [pc, #84]	; c109174 <timers_init+0x110>
 c10911c:	e5832000 	str	r2, [r3]
 c109120:	e59f3048 	ldr	r3, [pc, #72]	; c109170 <timers_init+0x10c>
 c109124:	e3a02000 	mov	r2, #0
 c109128:	e5832000 	str	r2, [r3]
 c10912c:	eb000011 	bl	c109178 <sw_delay_init>
 c109130:	e24bd00c 	sub	sp, fp, #12
 c109134:	e89d6800 	ldm	sp, {fp, sp, lr}
 c109138:	e12fff1e 	bx	lr
 c10913c:	01d50000 	.word	0x01d50000
 c109140:	01d50004 	.word	0x01d50004
 c109144:	01d5000c 	.word	0x01d5000c
 c109148:	01d50010 	.word	0x01d50010
 c10914c:	01d50018 	.word	0x01d50018
 c109150:	01d5001c 	.word	0x01d5001c
 c109154:	01d50024 	.word	0x01d50024
 c109158:	01d50028 	.word	0x01d50028
 c10915c:	01d50030 	.word	0x01d50030
 c109160:	01d50034 	.word	0x01d50034
 c109164:	01d5003c 	.word	0x01d5003c
 c109168:	01d50040 	.word	0x01d50040
 c10916c:	01d50048 	.word	0x01d50048
 c109170:	01d50008 	.word	0x01d50008
 c109174:	02222202 	.word	0x02222202

0c109178 <sw_delay_init>:
 c109178:	e1a0c00d 	mov	ip, sp
 c10917c:	e92dd810 	push	{r4, fp, ip, lr, pc}
 c109180:	e24cb004 	sub	fp, ip, #4
 c109184:	e24dd00c 	sub	sp, sp, #12
 c109188:	eb0000d2 	bl	c1094d8 <timer3_start>
 c10918c:	e59f3088 	ldr	r3, [pc, #136]	; c10921c <sw_delay_init+0xa4>
 c109190:	e50b3018 	str	r3, [fp, #-24]	; 0xffffffe8
 c109194:	ea000002 	b	c1091a4 <sw_delay_init+0x2c>
 c109198:	e51b3018 	ldr	r3, [fp, #-24]	; 0xffffffe8
 c10919c:	e2433001 	sub	r3, r3, #1
 c1091a0:	e50b3018 	str	r3, [fp, #-24]	; 0xffffffe8
 c1091a4:	e51b3018 	ldr	r3, [fp, #-24]	; 0xffffffe8
 c1091a8:	e3530000 	cmp	r3, #0
 c1091ac:	1afffff9 	bne	c109198 <sw_delay_init+0x20>
 c1091b0:	eb0000ff 	bl	c1095b4 <timer3_stop>
 c1091b4:	e1a03000 	mov	r3, r0
 c1091b8:	e1a02003 	mov	r2, r3
 c1091bc:	e1a03002 	mov	r3, r2
 c1091c0:	e3a04000 	mov	r4, #0
 c1091c4:	e3a00315 	mov	r0, #1409286144	; 0x54000000
 c1091c8:	e2800abe 	add	r0, r0, #778240	; 0xbe000
 c1091cc:	e2800b01 	add	r0, r0, #1024	; 0x400
 c1091d0:	e3a01002 	mov	r1, #2
 c1091d4:	e1a02003 	mov	r2, r3
 c1091d8:	e1a03004 	mov	r3, r4
 c1091dc:	eb00093f 	bl	c10b6e0 <__aeabi_uldivmod>
 c1091e0:	e1a03000 	mov	r3, r0
 c1091e4:	e1a04001 	mov	r4, r1
 c1091e8:	e1a02003 	mov	r2, r3
 c1091ec:	e59f302c 	ldr	r3, [pc, #44]	; c109220 <sw_delay_init+0xa8>
 c1091f0:	e5832000 	str	r2, [r3]
 c1091f4:	e59f3024 	ldr	r3, [pc, #36]	; c109220 <sw_delay_init+0xa8>
 c1091f8:	e5932000 	ldr	r2, [r3]
 c1091fc:	e59f3020 	ldr	r3, [pc, #32]	; c109224 <sw_delay_init+0xac>
 c109200:	e0831392 	umull	r1, r3, r2, r3
 c109204:	e1a02323 	lsr	r2, r3, #6
 c109208:	e59f3018 	ldr	r3, [pc, #24]	; c109228 <sw_delay_init+0xb0>
 c10920c:	e5832000 	str	r2, [r3]
 c109210:	e24bd010 	sub	sp, fp, #16
 c109214:	e89d6810 	ldm	sp, {r4, fp, sp, lr}
 c109218:	e12fff1e 	bx	lr
 c10921c:	000f4240 	.word	0x000f4240
 c109220:	0c117a64 	.word	0x0c117a64
 c109224:	10624dd3 	.word	0x10624dd3
 c109228:	0c117a60 	.word	0x0c117a60

0c10922c <timer3_delay_ms>:
 c10922c:	e1a0c00d 	mov	ip, sp
 c109230:	e92dd800 	push	{fp, ip, lr, pc}
 c109234:	e24cb004 	sub	fp, ip, #4
 c109238:	e24dd008 	sub	sp, sp, #8
 c10923c:	e1a03000 	mov	r3, r0
 c109240:	e14b30be 	strh	r3, [fp, #-14]
 c109244:	ea00002b 	b	c1092f8 <timer3_delay_ms+0xcc>
 c109248:	e59f30c0 	ldr	r3, [pc, #192]	; c109310 <timer3_delay_ms+0xe4>
 c10924c:	e59f20bc 	ldr	r2, [pc, #188]	; c109310 <timer3_delay_ms+0xe4>
 c109250:	e5922000 	ldr	r2, [r2]
 c109254:	e3c22cff 	bic	r2, r2, #65280	; 0xff00
 c109258:	e5832000 	str	r2, [r3]
 c10925c:	e59f30b0 	ldr	r3, [pc, #176]	; c109314 <timer3_delay_ms+0xe8>
 c109260:	e59f20ac 	ldr	r2, [pc, #172]	; c109314 <timer3_delay_ms+0xe8>
 c109264:	e5922000 	ldr	r2, [r2]
 c109268:	e3c22a0f 	bic	r2, r2, #61440	; 0xf000
 c10926c:	e5832000 	str	r2, [r3]
 c109270:	e59f30a0 	ldr	r3, [pc, #160]	; c109318 <timer3_delay_ms+0xec>
 c109274:	e59f20a0 	ldr	r2, [pc, #160]	; c10931c <timer3_delay_ms+0xf0>
 c109278:	e5921000 	ldr	r1, [r2]
 c10927c:	e59f209c 	ldr	r2, [pc, #156]	; c109320 <timer3_delay_ms+0xf4>
 c109280:	e0820291 	umull	r0, r2, r1, r2
 c109284:	e1a023a2 	lsr	r2, r2, #7
 c109288:	e1a02802 	lsl	r2, r2, #16
 c10928c:	e1a02822 	lsr	r2, r2, #16
 c109290:	e5832000 	str	r2, [r3]
 c109294:	e59f3088 	ldr	r3, [pc, #136]	; c109324 <timer3_delay_ms+0xf8>
 c109298:	e59f2084 	ldr	r2, [pc, #132]	; c109324 <timer3_delay_ms+0xf8>
 c10929c:	e5922000 	ldr	r2, [r2]
 c1092a0:	e3c2280f 	bic	r2, r2, #983040	; 0xf0000
 c1092a4:	e3822802 	orr	r2, r2, #131072	; 0x20000
 c1092a8:	e5832000 	str	r2, [r3]
 c1092ac:	e59f3070 	ldr	r3, [pc, #112]	; c109324 <timer3_delay_ms+0xf8>
 c1092b0:	e59f206c 	ldr	r2, [pc, #108]	; c109324 <timer3_delay_ms+0xf8>
 c1092b4:	e5922000 	ldr	r2, [r2]
 c1092b8:	e3c2280f 	bic	r2, r2, #983040	; 0xf0000
 c1092bc:	e3822801 	orr	r2, r2, #65536	; 0x10000
 c1092c0:	e5832000 	str	r2, [r3]
 c1092c4:	e1a00000 	nop			; (mov r0, r0)
 c1092c8:	e59f3058 	ldr	r3, [pc, #88]	; c109328 <timer3_delay_ms+0xfc>
 c1092cc:	e5933000 	ldr	r3, [r3]
 c1092d0:	e3530000 	cmp	r3, #0
 c1092d4:	0afffffb 	beq	c1092c8 <timer3_delay_ms+0x9c>
 c1092d8:	e1a00000 	nop			; (mov r0, r0)
 c1092dc:	e59f3044 	ldr	r3, [pc, #68]	; c109328 <timer3_delay_ms+0xfc>
 c1092e0:	e5933000 	ldr	r3, [r3]
 c1092e4:	e3530000 	cmp	r3, #0
 c1092e8:	1afffffb 	bne	c1092dc <timer3_delay_ms+0xb0>
 c1092ec:	e15b30be 	ldrh	r3, [fp, #-14]
 c1092f0:	e2433001 	sub	r3, r3, #1
 c1092f4:	e14b30be 	strh	r3, [fp, #-14]
 c1092f8:	e15b30be 	ldrh	r3, [fp, #-14]
 c1092fc:	e3530000 	cmp	r3, #0
 c109300:	1affffd0 	bne	c109248 <timer3_delay_ms+0x1c>
 c109304:	e24bd00c 	sub	sp, fp, #12
 c109308:	e89d6800 	ldm	sp, {fp, sp, lr}
 c10930c:	e12fff1e 	bx	lr
 c109310:	01d50000 	.word	0x01d50000
 c109314:	01d50004 	.word	0x01d50004
 c109318:	01d50030 	.word	0x01d50030
 c10931c:	0c10e00c 	.word	0x0c10e00c
 c109320:	10624dd3 	.word	0x10624dd3
 c109324:	01d50008 	.word	0x01d50008
 c109328:	01d50038 	.word	0x01d50038

0c10932c <sw_delay_ms>:
 c10932c:	e1a0c00d 	mov	ip, sp
 c109330:	e92dd800 	push	{fp, ip, lr, pc}
 c109334:	e24cb004 	sub	fp, ip, #4
 c109338:	e24dd010 	sub	sp, sp, #16
 c10933c:	e1a03000 	mov	r3, r0
 c109340:	e14b31b6 	strh	r3, [fp, #-22]	; 0xffffffea
 c109344:	e15b31b6 	ldrh	r3, [fp, #-22]	; 0xffffffea
 c109348:	e59f2030 	ldr	r2, [pc, #48]	; c109380 <sw_delay_ms+0x54>
 c10934c:	e5922000 	ldr	r2, [r2]
 c109350:	e0030392 	mul	r3, r2, r3
 c109354:	e50b3010 	str	r3, [fp, #-16]
 c109358:	ea000002 	b	c109368 <sw_delay_ms+0x3c>
 c10935c:	e51b3010 	ldr	r3, [fp, #-16]
 c109360:	e2433001 	sub	r3, r3, #1
 c109364:	e50b3010 	str	r3, [fp, #-16]
 c109368:	e51b3010 	ldr	r3, [fp, #-16]
 c10936c:	e3530000 	cmp	r3, #0
 c109370:	1afffff9 	bne	c10935c <sw_delay_ms+0x30>
 c109374:	e24bd00c 	sub	sp, fp, #12
 c109378:	e89d6800 	ldm	sp, {fp, sp, lr}
 c10937c:	e12fff1e 	bx	lr
 c109380:	0c117a60 	.word	0x0c117a60

0c109384 <timer3_delay_s>:
 c109384:	e1a0c00d 	mov	ip, sp
 c109388:	e92dd800 	push	{fp, ip, lr, pc}
 c10938c:	e24cb004 	sub	fp, ip, #4
 c109390:	e24dd008 	sub	sp, sp, #8
 c109394:	e1a03000 	mov	r3, r0
 c109398:	e14b30be 	strh	r3, [fp, #-14]
 c10939c:	ea00002b 	b	c109450 <timer3_delay_s+0xcc>
 c1093a0:	e59f30c0 	ldr	r3, [pc, #192]	; c109468 <timer3_delay_s+0xe4>
 c1093a4:	e59f20bc 	ldr	r2, [pc, #188]	; c109468 <timer3_delay_s+0xe4>
 c1093a8:	e5922000 	ldr	r2, [r2]
 c1093ac:	e3c22cff 	bic	r2, r2, #65280	; 0xff00
 c1093b0:	e3822c3f 	orr	r2, r2, #16128	; 0x3f00
 c1093b4:	e5832000 	str	r2, [r3]
 c1093b8:	e59f30ac 	ldr	r3, [pc, #172]	; c10946c <timer3_delay_s+0xe8>
 c1093bc:	e59f20a8 	ldr	r2, [pc, #168]	; c10946c <timer3_delay_s+0xe8>
 c1093c0:	e5922000 	ldr	r2, [r2]
 c1093c4:	e3c22a0f 	bic	r2, r2, #61440	; 0xf000
 c1093c8:	e3822901 	orr	r2, r2, #16384	; 0x4000
 c1093cc:	e5832000 	str	r2, [r3]
 c1093d0:	e59f3098 	ldr	r3, [pc, #152]	; c109470 <timer3_delay_s+0xec>
 c1093d4:	e59f2098 	ldr	r2, [pc, #152]	; c109474 <timer3_delay_s+0xf0>
 c1093d8:	e5922000 	ldr	r2, [r2]
 c1093dc:	e1a025a2 	lsr	r2, r2, #11
 c1093e0:	e1a02802 	lsl	r2, r2, #16
 c1093e4:	e1a02822 	lsr	r2, r2, #16
 c1093e8:	e5832000 	str	r2, [r3]
 c1093ec:	e59f3084 	ldr	r3, [pc, #132]	; c109478 <timer3_delay_s+0xf4>
 c1093f0:	e59f2080 	ldr	r2, [pc, #128]	; c109478 <timer3_delay_s+0xf4>
 c1093f4:	e5922000 	ldr	r2, [r2]
 c1093f8:	e3c2280f 	bic	r2, r2, #983040	; 0xf0000
 c1093fc:	e3822802 	orr	r2, r2, #131072	; 0x20000
 c109400:	e5832000 	str	r2, [r3]
 c109404:	e59f306c 	ldr	r3, [pc, #108]	; c109478 <timer3_delay_s+0xf4>
 c109408:	e59f2068 	ldr	r2, [pc, #104]	; c109478 <timer3_delay_s+0xf4>
 c10940c:	e5922000 	ldr	r2, [r2]
 c109410:	e3c2280f 	bic	r2, r2, #983040	; 0xf0000
 c109414:	e3822801 	orr	r2, r2, #65536	; 0x10000
 c109418:	e5832000 	str	r2, [r3]
 c10941c:	e1a00000 	nop			; (mov r0, r0)
 c109420:	e59f3054 	ldr	r3, [pc, #84]	; c10947c <timer3_delay_s+0xf8>
 c109424:	e5933000 	ldr	r3, [r3]
 c109428:	e3530000 	cmp	r3, #0
 c10942c:	0afffffb 	beq	c109420 <timer3_delay_s+0x9c>
 c109430:	e1a00000 	nop			; (mov r0, r0)
 c109434:	e59f3040 	ldr	r3, [pc, #64]	; c10947c <timer3_delay_s+0xf8>
 c109438:	e5933000 	ldr	r3, [r3]
 c10943c:	e3530000 	cmp	r3, #0
 c109440:	1afffffb 	bne	c109434 <timer3_delay_s+0xb0>
 c109444:	e15b30be 	ldrh	r3, [fp, #-14]
 c109448:	e2433001 	sub	r3, r3, #1
 c10944c:	e14b30be 	strh	r3, [fp, #-14]
 c109450:	e15b30be 	ldrh	r3, [fp, #-14]
 c109454:	e3530000 	cmp	r3, #0
 c109458:	1affffd0 	bne	c1093a0 <timer3_delay_s+0x1c>
 c10945c:	e24bd00c 	sub	sp, fp, #12
 c109460:	e89d6800 	ldm	sp, {fp, sp, lr}
 c109464:	e12fff1e 	bx	lr
 c109468:	01d50000 	.word	0x01d50000
 c10946c:	01d50004 	.word	0x01d50004
 c109470:	01d50030 	.word	0x01d50030
 c109474:	0c10e00c 	.word	0x0c10e00c
 c109478:	01d50008 	.word	0x01d50008
 c10947c:	01d50038 	.word	0x01d50038

0c109480 <sw_delay_s>:
 c109480:	e1a0c00d 	mov	ip, sp
 c109484:	e92dd800 	push	{fp, ip, lr, pc}
 c109488:	e24cb004 	sub	fp, ip, #4
 c10948c:	e24dd010 	sub	sp, sp, #16
 c109490:	e1a03000 	mov	r3, r0
 c109494:	e14b31b6 	strh	r3, [fp, #-22]	; 0xffffffea
 c109498:	e15b31b6 	ldrh	r3, [fp, #-22]	; 0xffffffea
 c10949c:	e59f2030 	ldr	r2, [pc, #48]	; c1094d4 <sw_delay_s+0x54>
 c1094a0:	e5922000 	ldr	r2, [r2]
 c1094a4:	e0030392 	mul	r3, r2, r3
 c1094a8:	e50b3010 	str	r3, [fp, #-16]
 c1094ac:	ea000002 	b	c1094bc <sw_delay_s+0x3c>
 c1094b0:	e51b3010 	ldr	r3, [fp, #-16]
 c1094b4:	e2433001 	sub	r3, r3, #1
 c1094b8:	e50b3010 	str	r3, [fp, #-16]
 c1094bc:	e51b3010 	ldr	r3, [fp, #-16]
 c1094c0:	e3530000 	cmp	r3, #0
 c1094c4:	1afffff9 	bne	c1094b0 <sw_delay_s+0x30>
 c1094c8:	e24bd00c 	sub	sp, fp, #12
 c1094cc:	e89d6800 	ldm	sp, {fp, sp, lr}
 c1094d0:	e12fff1e 	bx	lr
 c1094d4:	0c117a64 	.word	0x0c117a64

0c1094d8 <timer3_start>:
 c1094d8:	e1a0c00d 	mov	ip, sp
 c1094dc:	e92dd800 	push	{fp, ip, lr, pc}
 c1094e0:	e24cb004 	sub	fp, ip, #4
 c1094e4:	e59f30a8 	ldr	r3, [pc, #168]	; c109594 <timer3_start+0xbc>
 c1094e8:	e59f20a4 	ldr	r2, [pc, #164]	; c109594 <timer3_start+0xbc>
 c1094ec:	e5922000 	ldr	r2, [r2]
 c1094f0:	e3c21cff 	bic	r1, r2, #65280	; 0xff00
 c1094f4:	e59f209c 	ldr	r2, [pc, #156]	; c109598 <timer3_start+0xc0>
 c1094f8:	e5920000 	ldr	r0, [r2]
 c1094fc:	e59f2098 	ldr	r2, [pc, #152]	; c10959c <timer3_start+0xc4>
 c109500:	e082c290 	umull	ip, r2, r0, r2
 c109504:	e1a02922 	lsr	r2, r2, #18
 c109508:	e20220ff 	and	r2, r2, #255	; 0xff
 c10950c:	e2422001 	sub	r2, r2, #1
 c109510:	e20220ff 	and	r2, r2, #255	; 0xff
 c109514:	e1a02402 	lsl	r2, r2, #8
 c109518:	e1812002 	orr	r2, r1, r2
 c10951c:	e5832000 	str	r2, [r3]
 c109520:	e59f3078 	ldr	r3, [pc, #120]	; c1095a0 <timer3_start+0xc8>
 c109524:	e59f2074 	ldr	r2, [pc, #116]	; c1095a0 <timer3_start+0xc8>
 c109528:	e5922000 	ldr	r2, [r2]
 c10952c:	e3c22a0f 	bic	r2, r2, #61440	; 0xf000
 c109530:	e3822901 	orr	r2, r2, #16384	; 0x4000
 c109534:	e5832000 	str	r2, [r3]
 c109538:	e59f3064 	ldr	r3, [pc, #100]	; c1095a4 <timer3_start+0xcc>
 c10953c:	e59f2064 	ldr	r2, [pc, #100]	; c1095a8 <timer3_start+0xd0>
 c109540:	e5832000 	str	r2, [r3]
 c109544:	e59f3060 	ldr	r3, [pc, #96]	; c1095ac <timer3_start+0xd4>
 c109548:	e59f205c 	ldr	r2, [pc, #92]	; c1095ac <timer3_start+0xd4>
 c10954c:	e5922000 	ldr	r2, [r2]
 c109550:	e3c2280f 	bic	r2, r2, #983040	; 0xf0000
 c109554:	e3822802 	orr	r2, r2, #131072	; 0x20000
 c109558:	e5832000 	str	r2, [r3]
 c10955c:	e59f3048 	ldr	r3, [pc, #72]	; c1095ac <timer3_start+0xd4>
 c109560:	e59f2044 	ldr	r2, [pc, #68]	; c1095ac <timer3_start+0xd4>
 c109564:	e5922000 	ldr	r2, [r2]
 c109568:	e3c2280f 	bic	r2, r2, #983040	; 0xf0000
 c10956c:	e3822801 	orr	r2, r2, #65536	; 0x10000
 c109570:	e5832000 	str	r2, [r3]
 c109574:	e1a00000 	nop			; (mov r0, r0)
 c109578:	e59f3030 	ldr	r3, [pc, #48]	; c1095b0 <timer3_start+0xd8>
 c10957c:	e5933000 	ldr	r3, [r3]
 c109580:	e3530000 	cmp	r3, #0
 c109584:	0afffffb 	beq	c109578 <timer3_start+0xa0>
 c109588:	e24bd00c 	sub	sp, fp, #12
 c10958c:	e89d6800 	ldm	sp, {fp, sp, lr}
 c109590:	e12fff1e 	bx	lr
 c109594:	01d50000 	.word	0x01d50000
 c109598:	0c10e00c 	.word	0x0c10e00c
 c10959c:	d1b71759 	.word	0xd1b71759
 c1095a0:	01d50004 	.word	0x01d50004
 c1095a4:	01d50030 	.word	0x01d50030
 c1095a8:	0000ffff 	.word	0x0000ffff
 c1095ac:	01d50008 	.word	0x01d50008
 c1095b0:	01d50038 	.word	0x01d50038

0c1095b4 <timer3_stop>:
 c1095b4:	e1a0c00d 	mov	ip, sp
 c1095b8:	e92dd800 	push	{fp, ip, lr, pc}
 c1095bc:	e24cb004 	sub	fp, ip, #4
 c1095c0:	e59f3038 	ldr	r3, [pc, #56]	; c109600 <timer3_stop+0x4c>
 c1095c4:	e59f2034 	ldr	r2, [pc, #52]	; c109600 <timer3_stop+0x4c>
 c1095c8:	e5922000 	ldr	r2, [r2]
 c1095cc:	e3c22801 	bic	r2, r2, #65536	; 0x10000
 c1095d0:	e5832000 	str	r2, [r3]
 c1095d4:	e59f3028 	ldr	r3, [pc, #40]	; c109604 <timer3_stop+0x50>
 c1095d8:	e5933000 	ldr	r3, [r3]
 c1095dc:	e1a03803 	lsl	r3, r3, #16
 c1095e0:	e1a03823 	lsr	r3, r3, #16
 c1095e4:	e1e03003 	mvn	r3, r3
 c1095e8:	e1a03803 	lsl	r3, r3, #16
 c1095ec:	e1a03823 	lsr	r3, r3, #16
 c1095f0:	e1a00003 	mov	r0, r3
 c1095f4:	e24bd00c 	sub	sp, fp, #12
 c1095f8:	e89d6800 	ldm	sp, {fp, sp, lr}
 c1095fc:	e12fff1e 	bx	lr
 c109600:	01d50008 	.word	0x01d50008
 c109604:	01d50038 	.word	0x01d50038

0c109608 <timer3_start_timeout>:
 c109608:	e1a0c00d 	mov	ip, sp
 c10960c:	e92dd800 	push	{fp, ip, lr, pc}
 c109610:	e24cb004 	sub	fp, ip, #4
 c109614:	e24dd008 	sub	sp, sp, #8
 c109618:	e1a03000 	mov	r3, r0
 c10961c:	e14b30be 	strh	r3, [fp, #-14]
 c109620:	e59f30a8 	ldr	r3, [pc, #168]	; c1096d0 <timer3_start_timeout+0xc8>
 c109624:	e59f20a4 	ldr	r2, [pc, #164]	; c1096d0 <timer3_start_timeout+0xc8>
 c109628:	e5922000 	ldr	r2, [r2]
 c10962c:	e3c21cff 	bic	r1, r2, #65280	; 0xff00
 c109630:	e59f209c 	ldr	r2, [pc, #156]	; c1096d4 <timer3_start_timeout+0xcc>
 c109634:	e5920000 	ldr	r0, [r2]
 c109638:	e59f2098 	ldr	r2, [pc, #152]	; c1096d8 <timer3_start_timeout+0xd0>
 c10963c:	e082c290 	umull	ip, r2, r0, r2
 c109640:	e1a02922 	lsr	r2, r2, #18
 c109644:	e20220ff 	and	r2, r2, #255	; 0xff
 c109648:	e2422001 	sub	r2, r2, #1
 c10964c:	e20220ff 	and	r2, r2, #255	; 0xff
 c109650:	e1a02402 	lsl	r2, r2, #8
 c109654:	e1812002 	orr	r2, r1, r2
 c109658:	e5832000 	str	r2, [r3]
 c10965c:	e59f3078 	ldr	r3, [pc, #120]	; c1096dc <timer3_start_timeout+0xd4>
 c109660:	e59f2074 	ldr	r2, [pc, #116]	; c1096dc <timer3_start_timeout+0xd4>
 c109664:	e5922000 	ldr	r2, [r2]
 c109668:	e3c22a0f 	bic	r2, r2, #61440	; 0xf000
 c10966c:	e3822901 	orr	r2, r2, #16384	; 0x4000
 c109670:	e5832000 	str	r2, [r3]
 c109674:	e59f3064 	ldr	r3, [pc, #100]	; c1096e0 <timer3_start_timeout+0xd8>
 c109678:	e15b20be 	ldrh	r2, [fp, #-14]
 c10967c:	e5832000 	str	r2, [r3]
 c109680:	e59f305c 	ldr	r3, [pc, #92]	; c1096e4 <timer3_start_timeout+0xdc>
 c109684:	e59f2058 	ldr	r2, [pc, #88]	; c1096e4 <timer3_start_timeout+0xdc>
 c109688:	e5922000 	ldr	r2, [r2]
 c10968c:	e3c2280f 	bic	r2, r2, #983040	; 0xf0000
 c109690:	e3822802 	orr	r2, r2, #131072	; 0x20000
 c109694:	e5832000 	str	r2, [r3]
 c109698:	e59f3044 	ldr	r3, [pc, #68]	; c1096e4 <timer3_start_timeout+0xdc>
 c10969c:	e59f2040 	ldr	r2, [pc, #64]	; c1096e4 <timer3_start_timeout+0xdc>
 c1096a0:	e5922000 	ldr	r2, [r2]
 c1096a4:	e3c2280f 	bic	r2, r2, #983040	; 0xf0000
 c1096a8:	e3822801 	orr	r2, r2, #65536	; 0x10000
 c1096ac:	e5832000 	str	r2, [r3]
 c1096b0:	e1a00000 	nop			; (mov r0, r0)
 c1096b4:	e59f302c 	ldr	r3, [pc, #44]	; c1096e8 <timer3_start_timeout+0xe0>
 c1096b8:	e5933000 	ldr	r3, [r3]
 c1096bc:	e3530000 	cmp	r3, #0
 c1096c0:	0afffffb 	beq	c1096b4 <timer3_start_timeout+0xac>
 c1096c4:	e24bd00c 	sub	sp, fp, #12
 c1096c8:	e89d6800 	ldm	sp, {fp, sp, lr}
 c1096cc:	e12fff1e 	bx	lr
 c1096d0:	01d50000 	.word	0x01d50000
 c1096d4:	0c10e00c 	.word	0x0c10e00c
 c1096d8:	d1b71759 	.word	0xd1b71759
 c1096dc:	01d50004 	.word	0x01d50004
 c1096e0:	01d50030 	.word	0x01d50030
 c1096e4:	01d50008 	.word	0x01d50008
 c1096e8:	01d50038 	.word	0x01d50038

0c1096ec <timer3_timeout>:
 c1096ec:	e1a0c00d 	mov	ip, sp
 c1096f0:	e92dd800 	push	{fp, ip, lr, pc}
 c1096f4:	e24cb004 	sub	fp, ip, #4
 c1096f8:	e59f3024 	ldr	r3, [pc, #36]	; c109724 <timer3_timeout+0x38>
 c1096fc:	e5933000 	ldr	r3, [r3]
 c109700:	e3530000 	cmp	r3, #0
 c109704:	13a03000 	movne	r3, #0
 c109708:	03a03001 	moveq	r3, #1
 c10970c:	e1a03803 	lsl	r3, r3, #16
 c109710:	e1a03823 	lsr	r3, r3, #16
 c109714:	e1a00003 	mov	r0, r3
 c109718:	e24bd00c 	sub	sp, fp, #12
 c10971c:	e89d6800 	ldm	sp, {fp, sp, lr}
 c109720:	e12fff1e 	bx	lr
 c109724:	01d50038 	.word	0x01d50038

0c109728 <timer0_open_tick>:
 c109728:	e1a0c00d 	mov	ip, sp
 c10972c:	e92dd810 	push	{r4, fp, ip, lr, pc}
 c109730:	e24cb004 	sub	fp, ip, #4
 c109734:	e24dd00c 	sub	sp, sp, #12
 c109738:	e50b0018 	str	r0, [fp, #-24]	; 0xffffffe8
 c10973c:	e1a03001 	mov	r3, r1
 c109740:	e14b31ba 	strh	r3, [fp, #-26]	; 0xffffffe6
 c109744:	e59f3204 	ldr	r3, [pc, #516]	; c109950 <timer0_open_tick+0x228>
 c109748:	e59f2200 	ldr	r2, [pc, #512]	; c109950 <timer0_open_tick+0x228>
 c10974c:	e5922000 	ldr	r2, [r2]
 c109750:	e3822088 	orr	r2, r2, #136	; 0x88
 c109754:	e5832000 	str	r2, [r3]
 c109758:	e59f31f4 	ldr	r3, [pc, #500]	; c109954 <timer0_open_tick+0x22c>
 c10975c:	e51b2018 	ldr	r2, [fp, #-24]	; 0xffffffe8
 c109760:	e5832000 	str	r2, [r3]
 c109764:	e59f31ec 	ldr	r3, [pc, #492]	; c109958 <timer0_open_tick+0x230>
 c109768:	e3a02a02 	mov	r2, #8192	; 0x2000
 c10976c:	e5832000 	str	r2, [r3]
 c109770:	e59f21e4 	ldr	r2, [pc, #484]	; c10995c <timer0_open_tick+0x234>
 c109774:	e59f31e0 	ldr	r3, [pc, #480]	; c10995c <timer0_open_tick+0x234>
 c109778:	e5933000 	ldr	r3, [r3]
 c10977c:	e3c33301 	bic	r3, r3, #67108864	; 0x4000000
 c109780:	e3c33a02 	bic	r3, r3, #8192	; 0x2000
 c109784:	e5823000 	str	r3, [r2]
 c109788:	e15b31ba 	ldrh	r3, [fp, #-26]	; 0xffffffe6
 c10978c:	e3530000 	cmp	r3, #0
 c109790:	0a000018 	beq	c1097f8 <timer0_open_tick+0xd0>
 c109794:	e15b31ba 	ldrh	r3, [fp, #-26]	; 0xffffffe6
 c109798:	e353000a 	cmp	r3, #10
 c10979c:	8a000015 	bhi	c1097f8 <timer0_open_tick+0xd0>
 c1097a0:	e59f31b8 	ldr	r3, [pc, #440]	; c109960 <timer0_open_tick+0x238>
 c1097a4:	e59f21b4 	ldr	r2, [pc, #436]	; c109960 <timer0_open_tick+0x238>
 c1097a8:	e5922000 	ldr	r2, [r2]
 c1097ac:	e3c220ff 	bic	r2, r2, #255	; 0xff
 c1097b0:	e3822031 	orr	r2, r2, #49	; 0x31
 c1097b4:	e5832000 	str	r2, [r3]
 c1097b8:	e59f31a4 	ldr	r3, [pc, #420]	; c109964 <timer0_open_tick+0x23c>
 c1097bc:	e59f21a0 	ldr	r2, [pc, #416]	; c109964 <timer0_open_tick+0x23c>
 c1097c0:	e5922000 	ldr	r2, [r2]
 c1097c4:	e3c2200f 	bic	r2, r2, #15
 c1097c8:	e3822004 	orr	r2, r2, #4
 c1097cc:	e5832000 	str	r2, [r3]
 c1097d0:	e59f4190 	ldr	r4, [pc, #400]	; c109968 <timer0_open_tick+0x240>
 c1097d4:	e15b31ba 	ldrh	r3, [fp, #-26]	; 0xffffffe6
 c1097d8:	e59f018c 	ldr	r0, [pc, #396]	; c10996c <timer0_open_tick+0x244>
 c1097dc:	e1a01003 	mov	r1, r3
 c1097e0:	eb000726 	bl	c10b480 <__aeabi_uidiv>
 c1097e4:	e1a03000 	mov	r3, r0
 c1097e8:	e1a03803 	lsl	r3, r3, #16
 c1097ec:	e1a03823 	lsr	r3, r3, #16
 c1097f0:	e5843000 	str	r3, [r4]
 c1097f4:	ea000046 	b	c109914 <timer0_open_tick+0x1ec>
 c1097f8:	e15b31ba 	ldrh	r3, [fp, #-26]	; 0xffffffe6
 c1097fc:	e353000a 	cmp	r3, #10
 c109800:	9a000016 	bls	c109860 <timer0_open_tick+0x138>
 c109804:	e15b31ba 	ldrh	r3, [fp, #-26]	; 0xffffffe6
 c109808:	e3530064 	cmp	r3, #100	; 0x64
 c10980c:	8a000013 	bhi	c109860 <timer0_open_tick+0x138>
 c109810:	e59f3148 	ldr	r3, [pc, #328]	; c109960 <timer0_open_tick+0x238>
 c109814:	e59f2144 	ldr	r2, [pc, #324]	; c109960 <timer0_open_tick+0x238>
 c109818:	e5922000 	ldr	r2, [r2]
 c10981c:	e3c220ff 	bic	r2, r2, #255	; 0xff
 c109820:	e3822004 	orr	r2, r2, #4
 c109824:	e5832000 	str	r2, [r3]
 c109828:	e59f3134 	ldr	r3, [pc, #308]	; c109964 <timer0_open_tick+0x23c>
 c10982c:	e59f2130 	ldr	r2, [pc, #304]	; c109964 <timer0_open_tick+0x23c>
 c109830:	e5922000 	ldr	r2, [r2]
 c109834:	e3c2200f 	bic	r2, r2, #15
 c109838:	e3822004 	orr	r2, r2, #4
 c10983c:	e5832000 	str	r2, [r3]
 c109840:	e59f4120 	ldr	r4, [pc, #288]	; c109968 <timer0_open_tick+0x240>
 c109844:	e15b31ba 	ldrh	r3, [fp, #-26]	; 0xffffffe6
 c109848:	e59f0120 	ldr	r0, [pc, #288]	; c109970 <timer0_open_tick+0x248>
 c10984c:	e1a01003 	mov	r1, r3
 c109850:	eb00070a 	bl	c10b480 <__aeabi_uidiv>
 c109854:	e1a03000 	mov	r3, r0
 c109858:	e5843000 	str	r3, [r4]
 c10985c:	ea00002c 	b	c109914 <timer0_open_tick+0x1ec>
 c109860:	e15b31ba 	ldrh	r3, [fp, #-26]	; 0xffffffe6
 c109864:	e3530064 	cmp	r3, #100	; 0x64
 c109868:	9a000015 	bls	c1098c4 <timer0_open_tick+0x19c>
 c10986c:	e15b31ba 	ldrh	r3, [fp, #-26]	; 0xffffffe6
 c109870:	e3530ffa 	cmp	r3, #1000	; 0x3e8
 c109874:	8a000012 	bhi	c1098c4 <timer0_open_tick+0x19c>
 c109878:	e59f30e0 	ldr	r3, [pc, #224]	; c109960 <timer0_open_tick+0x238>
 c10987c:	e59f20dc 	ldr	r2, [pc, #220]	; c109960 <timer0_open_tick+0x238>
 c109880:	e5922000 	ldr	r2, [r2]
 c109884:	e3c220ff 	bic	r2, r2, #255	; 0xff
 c109888:	e5832000 	str	r2, [r3]
 c10988c:	e59f30d0 	ldr	r3, [pc, #208]	; c109964 <timer0_open_tick+0x23c>
 c109890:	e59f20cc 	ldr	r2, [pc, #204]	; c109964 <timer0_open_tick+0x23c>
 c109894:	e5922000 	ldr	r2, [r2]
 c109898:	e3c2200f 	bic	r2, r2, #15
 c10989c:	e3822003 	orr	r2, r2, #3
 c1098a0:	e5832000 	str	r2, [r3]
 c1098a4:	e59f40bc 	ldr	r4, [pc, #188]	; c109968 <timer0_open_tick+0x240>
 c1098a8:	e15b31ba 	ldrh	r3, [fp, #-26]	; 0xffffffe6
 c1098ac:	e59f00c0 	ldr	r0, [pc, #192]	; c109974 <timer0_open_tick+0x24c>
 c1098b0:	e1a01003 	mov	r1, r3
 c1098b4:	eb0006f1 	bl	c10b480 <__aeabi_uidiv>
 c1098b8:	e1a03000 	mov	r3, r0
 c1098bc:	e5843000 	str	r3, [r4]
 c1098c0:	ea000013 	b	c109914 <timer0_open_tick+0x1ec>
 c1098c4:	e15b31ba 	ldrh	r3, [fp, #-26]	; 0xffffffe6
 c1098c8:	e3530ffa 	cmp	r3, #1000	; 0x3e8
 c1098cc:	9a000010 	bls	c109914 <timer0_open_tick+0x1ec>
 c1098d0:	e59f3088 	ldr	r3, [pc, #136]	; c109960 <timer0_open_tick+0x238>
 c1098d4:	e59f2084 	ldr	r2, [pc, #132]	; c109960 <timer0_open_tick+0x238>
 c1098d8:	e5922000 	ldr	r2, [r2]
 c1098dc:	e3c220ff 	bic	r2, r2, #255	; 0xff
 c1098e0:	e5832000 	str	r2, [r3]
 c1098e4:	e59f3078 	ldr	r3, [pc, #120]	; c109964 <timer0_open_tick+0x23c>
 c1098e8:	e59f2074 	ldr	r2, [pc, #116]	; c109964 <timer0_open_tick+0x23c>
 c1098ec:	e5922000 	ldr	r2, [r2]
 c1098f0:	e3c2200f 	bic	r2, r2, #15
 c1098f4:	e5832000 	str	r2, [r3]
 c1098f8:	e59f4068 	ldr	r4, [pc, #104]	; c109968 <timer0_open_tick+0x240>
 c1098fc:	e15b31ba 	ldrh	r3, [fp, #-26]	; 0xffffffe6
 c109900:	e59f0070 	ldr	r0, [pc, #112]	; c109978 <timer0_open_tick+0x250>
 c109904:	e1a01003 	mov	r1, r3
 c109908:	eb0006dc 	bl	c10b480 <__aeabi_uidiv>
 c10990c:	e1a03000 	mov	r3, r0
 c109910:	e5843000 	str	r3, [r4]
 c109914:	e59f3060 	ldr	r3, [pc, #96]	; c10997c <timer0_open_tick+0x254>
 c109918:	e59f205c 	ldr	r2, [pc, #92]	; c10997c <timer0_open_tick+0x254>
 c10991c:	e5922000 	ldr	r2, [r2]
 c109920:	e3c2200f 	bic	r2, r2, #15
 c109924:	e382200a 	orr	r2, r2, #10
 c109928:	e5832000 	str	r2, [r3]
 c10992c:	e59f3048 	ldr	r3, [pc, #72]	; c10997c <timer0_open_tick+0x254>
 c109930:	e59f2044 	ldr	r2, [pc, #68]	; c10997c <timer0_open_tick+0x254>
 c109934:	e5922000 	ldr	r2, [r2]
 c109938:	e3c2200f 	bic	r2, r2, #15
 c10993c:	e3822009 	orr	r2, r2, #9
 c109940:	e5832000 	str	r2, [r3]
 c109944:	e24bd010 	sub	sp, fp, #16
 c109948:	e89d6810 	ldm	sp, {r4, fp, sp, lr}
 c10994c:	e12fff1e 	bx	lr
 c109950:	01d80004 	.word	0x01d80004
 c109954:	0c7fff54 	.word	0x0c7fff54
 c109958:	01e00024 	.word	0x01e00024
 c10995c:	01e0000c 	.word	0x01e0000c
 c109960:	01d50000 	.word	0x01d50000
 c109964:	01d50004 	.word	0x01d50004
 c109968:	01d5000c 	.word	0x01d5000c
 c10996c:	00009c40 	.word	0x00009c40
 c109970:	00061a80 	.word	0x00061a80
 c109974:	003d0900 	.word	0x003d0900
 c109978:	01e84800 	.word	0x01e84800
 c10997c:	01d50008 	.word	0x01d50008

0c109980 <timer0_open_ms>:
 c109980:	e1a0c00d 	mov	ip, sp
 c109984:	e92dd800 	push	{fp, ip, lr, pc}
 c109988:	e24cb004 	sub	fp, ip, #4
 c10998c:	e24dd008 	sub	sp, sp, #8
 c109990:	e50b0010 	str	r0, [fp, #-16]
 c109994:	e1a03002 	mov	r3, r2
 c109998:	e14b11b2 	strh	r1, [fp, #-18]	; 0xffffffee
 c10999c:	e54b3013 	strb	r3, [fp, #-19]	; 0xffffffed
 c1099a0:	e59f30dc 	ldr	r3, [pc, #220]	; c109a84 <timer0_open_ms+0x104>
 c1099a4:	e59f20d8 	ldr	r2, [pc, #216]	; c109a84 <timer0_open_ms+0x104>
 c1099a8:	e5922000 	ldr	r2, [r2]
 c1099ac:	e3822088 	orr	r2, r2, #136	; 0x88
 c1099b0:	e5832000 	str	r2, [r3]
 c1099b4:	e59f30cc 	ldr	r3, [pc, #204]	; c109a88 <timer0_open_ms+0x108>
 c1099b8:	e51b2010 	ldr	r2, [fp, #-16]
 c1099bc:	e5832000 	str	r2, [r3]
 c1099c0:	e59f30c4 	ldr	r3, [pc, #196]	; c109a8c <timer0_open_ms+0x10c>
 c1099c4:	e3a02a02 	mov	r2, #8192	; 0x2000
 c1099c8:	e5832000 	str	r2, [r3]
 c1099cc:	e59f20bc 	ldr	r2, [pc, #188]	; c109a90 <timer0_open_ms+0x110>
 c1099d0:	e59f30b8 	ldr	r3, [pc, #184]	; c109a90 <timer0_open_ms+0x110>
 c1099d4:	e5933000 	ldr	r3, [r3]
 c1099d8:	e3c33301 	bic	r3, r3, #67108864	; 0x4000000
 c1099dc:	e3c33a02 	bic	r3, r3, #8192	; 0x2000
 c1099e0:	e5823000 	str	r3, [r2]
 c1099e4:	e59f30a8 	ldr	r3, [pc, #168]	; c109a94 <timer0_open_ms+0x114>
 c1099e8:	e59f20a4 	ldr	r2, [pc, #164]	; c109a94 <timer0_open_ms+0x114>
 c1099ec:	e5922000 	ldr	r2, [r2]
 c1099f0:	e3c220ff 	bic	r2, r2, #255	; 0xff
 c1099f4:	e38220c7 	orr	r2, r2, #199	; 0xc7
 c1099f8:	e5832000 	str	r2, [r3]
 c1099fc:	e59f3094 	ldr	r3, [pc, #148]	; c109a98 <timer0_open_ms+0x118>
 c109a00:	e59f2090 	ldr	r2, [pc, #144]	; c109a98 <timer0_open_ms+0x118>
 c109a04:	e5922000 	ldr	r2, [r2]
 c109a08:	e3c2200f 	bic	r2, r2, #15
 c109a0c:	e3822004 	orr	r2, r2, #4
 c109a10:	e5832000 	str	r2, [r3]
 c109a14:	e59f1080 	ldr	r1, [pc, #128]	; c109a9c <timer0_open_ms+0x11c>
 c109a18:	e15b21b2 	ldrh	r2, [fp, #-18]	; 0xffffffee
 c109a1c:	e1a03002 	mov	r3, r2
 c109a20:	e1a03103 	lsl	r3, r3, #2
 c109a24:	e0833002 	add	r3, r3, r2
 c109a28:	e1a03083 	lsl	r3, r3, #1
 c109a2c:	e5813000 	str	r3, [r1]
 c109a30:	e59f3068 	ldr	r3, [pc, #104]	; c109aa0 <timer0_open_ms+0x120>
 c109a34:	e59f2064 	ldr	r2, [pc, #100]	; c109aa0 <timer0_open_ms+0x120>
 c109a38:	e5922000 	ldr	r2, [r2]
 c109a3c:	e3c2100f 	bic	r1, r2, #15
 c109a40:	e55b2013 	ldrb	r2, [fp, #-19]	; 0xffffffed
 c109a44:	e1a02182 	lsl	r2, r2, #3
 c109a48:	e1812002 	orr	r2, r1, r2
 c109a4c:	e3822002 	orr	r2, r2, #2
 c109a50:	e5832000 	str	r2, [r3]
 c109a54:	e59f3044 	ldr	r3, [pc, #68]	; c109aa0 <timer0_open_ms+0x120>
 c109a58:	e59f2040 	ldr	r2, [pc, #64]	; c109aa0 <timer0_open_ms+0x120>
 c109a5c:	e5922000 	ldr	r2, [r2]
 c109a60:	e3c2100f 	bic	r1, r2, #15
 c109a64:	e55b2013 	ldrb	r2, [fp, #-19]	; 0xffffffed
 c109a68:	e1a02182 	lsl	r2, r2, #3
 c109a6c:	e1812002 	orr	r2, r1, r2
 c109a70:	e3822001 	orr	r2, r2, #1
 c109a74:	e5832000 	str	r2, [r3]
 c109a78:	e24bd00c 	sub	sp, fp, #12
 c109a7c:	e89d6800 	ldm	sp, {fp, sp, lr}
 c109a80:	e12fff1e 	bx	lr
 c109a84:	01d80004 	.word	0x01d80004
 c109a88:	0c7fff54 	.word	0x0c7fff54
 c109a8c:	01e00024 	.word	0x01e00024
 c109a90:	01e0000c 	.word	0x01e0000c
 c109a94:	01d50000 	.word	0x01d50000
 c109a98:	01d50004 	.word	0x01d50004
 c109a9c:	01d5000c 	.word	0x01d5000c
 c109aa0:	01d50008 	.word	0x01d50008

0c109aa4 <timer0_close>:
 c109aa4:	e1a0c00d 	mov	ip, sp
 c109aa8:	e92dd800 	push	{fp, ip, lr, pc}
 c109aac:	e24cb004 	sub	fp, ip, #4
 c109ab0:	e59f3068 	ldr	r3, [pc, #104]	; c109b20 <timer0_close+0x7c>
 c109ab4:	e3a02000 	mov	r2, #0
 c109ab8:	e5832000 	str	r2, [r3]
 c109abc:	e59f3060 	ldr	r3, [pc, #96]	; c109b24 <timer0_close+0x80>
 c109ac0:	e3a02000 	mov	r2, #0
 c109ac4:	e5832000 	str	r2, [r3]
 c109ac8:	e59f3058 	ldr	r3, [pc, #88]	; c109b28 <timer0_close+0x84>
 c109acc:	e59f2054 	ldr	r2, [pc, #84]	; c109b28 <timer0_close+0x84>
 c109ad0:	e5922000 	ldr	r2, [r2]
 c109ad4:	e3c2200f 	bic	r2, r2, #15
 c109ad8:	e3822002 	orr	r2, r2, #2
 c109adc:	e5832000 	str	r2, [r3]
 c109ae0:	e59f3040 	ldr	r3, [pc, #64]	; c109b28 <timer0_close+0x84>
 c109ae4:	e59f203c 	ldr	r2, [pc, #60]	; c109b28 <timer0_close+0x84>
 c109ae8:	e5922000 	ldr	r2, [r2]
 c109aec:	e3c2200f 	bic	r2, r2, #15
 c109af0:	e5832000 	str	r2, [r3]
 c109af4:	e59f3030 	ldr	r3, [pc, #48]	; c109b2c <timer0_close+0x88>
 c109af8:	e59f202c 	ldr	r2, [pc, #44]	; c109b2c <timer0_close+0x88>
 c109afc:	e5922000 	ldr	r2, [r2]
 c109b00:	e3822a02 	orr	r2, r2, #8192	; 0x2000
 c109b04:	e5832000 	str	r2, [r3]
 c109b08:	e59f3020 	ldr	r3, [pc, #32]	; c109b30 <timer0_close+0x8c>
 c109b0c:	e59f2020 	ldr	r2, [pc, #32]	; c109b34 <timer0_close+0x90>
 c109b10:	e5832000 	str	r2, [r3]
 c109b14:	e24bd00c 	sub	sp, fp, #12
 c109b18:	e89d6800 	ldm	sp, {fp, sp, lr}
 c109b1c:	e12fff1e 	bx	lr
 c109b20:	01d5000c 	.word	0x01d5000c
 c109b24:	01d50010 	.word	0x01d50010
 c109b28:	01d50008 	.word	0x01d50008
 c109b2c:	01e0000c 	.word	0x01e0000c
 c109b30:	0c7fff54 	.word	0x0c7fff54
 c109b34:	0c108670 	.word	0x0c108670

0c109b38 <ts_on>:
 c109b38:	e1a0c00d 	mov	ip, sp
 c109b3c:	e92dd800 	push	{fp, ip, lr, pc}
 c109b40:	e24cb004 	sub	fp, ip, #4
 c109b44:	eb0004cf 	bl	c10ae88 <adc_on>
 c109b48:	e59f3010 	ldr	r3, [pc, #16]	; c109b60 <ts_on+0x28>
 c109b4c:	e3a02001 	mov	r2, #1
 c109b50:	e5c32000 	strb	r2, [r3]
 c109b54:	e24bd00c 	sub	sp, fp, #12
 c109b58:	e89d6800 	ldm	sp, {fp, sp, lr}
 c109b5c:	e12fff1e 	bx	lr
 c109b60:	0c117a70 	.word	0x0c117a70

0c109b64 <ts_off>:
 c109b64:	e1a0c00d 	mov	ip, sp
 c109b68:	e92dd800 	push	{fp, ip, lr, pc}
 c109b6c:	e24cb004 	sub	fp, ip, #4
 c109b70:	eb0004d7 	bl	c10aed4 <adc_off>
 c109b74:	e59f3010 	ldr	r3, [pc, #16]	; c109b8c <ts_off+0x28>
 c109b78:	e3a02000 	mov	r2, #0
 c109b7c:	e5c32000 	strb	r2, [r3]
 c109b80:	e24bd00c 	sub	sp, fp, #12
 c109b84:	e89d6800 	ldm	sp, {fp, sp, lr}
 c109b88:	e12fff1e 	bx	lr
 c109b8c:	0c117a70 	.word	0x0c117a70

0c109b90 <ts_status>:
 c109b90:	e1a0c00d 	mov	ip, sp
 c109b94:	e92dd800 	push	{fp, ip, lr, pc}
 c109b98:	e24cb004 	sub	fp, ip, #4
 c109b9c:	e59f3010 	ldr	r3, [pc, #16]	; c109bb4 <ts_status+0x24>
 c109ba0:	e5d33000 	ldrb	r3, [r3]
 c109ba4:	e1a00003 	mov	r0, r3
 c109ba8:	e24bd00c 	sub	sp, fp, #12
 c109bac:	e89d6800 	ldm	sp, {fp, sp, lr}
 c109bb0:	e12fff1e 	bx	lr
 c109bb4:	0c117a70 	.word	0x0c117a70

0c109bb8 <ts_pressed>:
 c109bb8:	e1a0c00d 	mov	ip, sp
 c109bbc:	e92dd800 	push	{fp, ip, lr, pc}
 c109bc0:	e24cb004 	sub	fp, ip, #4
 c109bc4:	e59f3024 	ldr	r3, [pc, #36]	; c109bf0 <ts_pressed+0x38>
 c109bc8:	e5933000 	ldr	r3, [r3]
 c109bcc:	e2033004 	and	r3, r3, #4
 c109bd0:	e3530000 	cmp	r3, #0
 c109bd4:	13a03000 	movne	r3, #0
 c109bd8:	03a03001 	moveq	r3, #1
 c109bdc:	e20330ff 	and	r3, r3, #255	; 0xff
 c109be0:	e1a00003 	mov	r0, r3
 c109be4:	e24bd00c 	sub	sp, fp, #12
 c109be8:	e89d6800 	ldm	sp, {fp, sp, lr}
 c109bec:	e12fff1e 	bx	lr
 c109bf0:	01d20044 	.word	0x01d20044

0c109bf4 <ts_calibrate>:
 c109bf4:	e1a0c00d 	mov	ip, sp
 c109bf8:	e92dd800 	push	{fp, ip, lr, pc}
 c109bfc:	e24cb004 	sub	fp, ip, #4
 c109c00:	e24dd010 	sub	sp, sp, #16
 c109c04:	ebffee25 	bl	c1054a0 <lcd_on>
 c109c08:	ebffee4c 	bl	c105540 <lcd_clear>
 c109c0c:	e3a0000a 	mov	r0, #10
 c109c10:	e3a010c8 	mov	r1, #200	; 0xc8
 c109c14:	e3a0200f 	mov	r2, #15
 c109c18:	e59f3398 	ldr	r3, [pc, #920]	; c109fb8 <ts_calibrate+0x3c4>
 c109c1c:	ebfff04a 	bl	c105d4c <lcd_puts>
 c109c20:	e3a0000a 	mov	r0, #10
 c109c24:	e3a010d8 	mov	r1, #216	; 0xd8
 c109c28:	e3a0200f 	mov	r2, #15
 c109c2c:	e59f3388 	ldr	r3, [pc, #904]	; c109fbc <ts_calibrate+0x3c8>
 c109c30:	ebfff045 	bl	c105d4c <lcd_puts>
 c109c34:	e3a03001 	mov	r3, #1
 c109c38:	e58d3000 	str	r3, [sp]
 c109c3c:	e3a00000 	mov	r0, #0
 c109c40:	e3a01003 	mov	r1, #3
 c109c44:	e3a02000 	mov	r2, #0
 c109c48:	e3a0300f 	mov	r3, #15
 c109c4c:	ebffeeb5 	bl	c105728 <lcd_draw_hline>
 c109c50:	e3a03001 	mov	r3, #1
 c109c54:	e58d3000 	str	r3, [sp]
 c109c58:	e3a00000 	mov	r0, #0
 c109c5c:	e3a01003 	mov	r1, #3
 c109c60:	e3a02001 	mov	r2, #1
 c109c64:	e3a0300f 	mov	r3, #15
 c109c68:	ebffeeae 	bl	c105728 <lcd_draw_hline>
 c109c6c:	e3a03001 	mov	r3, #1
 c109c70:	e58d3000 	str	r3, [sp]
 c109c74:	e3a00000 	mov	r0, #0
 c109c78:	e3a01003 	mov	r1, #3
 c109c7c:	e3a02002 	mov	r2, #2
 c109c80:	e3a0300f 	mov	r3, #15
 c109c84:	ebffeea7 	bl	c105728 <lcd_draw_hline>
 c109c88:	e3a03001 	mov	r3, #1
 c109c8c:	e58d3000 	str	r3, [sp]
 c109c90:	e3a00000 	mov	r0, #0
 c109c94:	e3a01003 	mov	r1, #3
 c109c98:	e3a02003 	mov	r2, #3
 c109c9c:	e3a0300f 	mov	r3, #15
 c109ca0:	ebffeea0 	bl	c105728 <lcd_draw_hline>
 c109ca4:	e1a00000 	nop			; (mov r0, r0)
 c109ca8:	e59f3310 	ldr	r3, [pc, #784]	; c109fc0 <ts_calibrate+0x3cc>
 c109cac:	e5933000 	ldr	r3, [r3]
 c109cb0:	e2033004 	and	r3, r3, #4
 c109cb4:	e3530000 	cmp	r3, #0
 c109cb8:	1afffffa 	bne	c109ca8 <ts_calibrate+0xb4>
 c109cbc:	e3a0001e 	mov	r0, #30
 c109cc0:	ebfffd99 	bl	c10932c <sw_delay_ms>
 c109cc4:	e59f02f8 	ldr	r0, [pc, #760]	; c109fc4 <ts_calibrate+0x3d0>
 c109cc8:	e59f12f8 	ldr	r1, [pc, #760]	; c109fc8 <ts_calibrate+0x3d4>
 c109ccc:	eb000144 	bl	c10a1e4 <ts_scan>
 c109cd0:	e1a00000 	nop			; (mov r0, r0)
 c109cd4:	e59f32e4 	ldr	r3, [pc, #740]	; c109fc0 <ts_calibrate+0x3cc>
 c109cd8:	e5933000 	ldr	r3, [r3]
 c109cdc:	e2033004 	and	r3, r3, #4
 c109ce0:	e3530000 	cmp	r3, #0
 c109ce4:	0afffffa 	beq	c109cd4 <ts_calibrate+0xe0>
 c109ce8:	e3a00064 	mov	r0, #100	; 0x64
 c109cec:	ebfffd8e 	bl	c10932c <sw_delay_ms>
 c109cf0:	e3a03001 	mov	r3, #1
 c109cf4:	e58d3000 	str	r3, [sp]
 c109cf8:	e3a00000 	mov	r0, #0
 c109cfc:	e3a01003 	mov	r1, #3
 c109d00:	e3a02000 	mov	r2, #0
 c109d04:	e3a03000 	mov	r3, #0
 c109d08:	ebffee86 	bl	c105728 <lcd_draw_hline>
 c109d0c:	e3a03001 	mov	r3, #1
 c109d10:	e58d3000 	str	r3, [sp]
 c109d14:	e3a00000 	mov	r0, #0
 c109d18:	e3a01003 	mov	r1, #3
 c109d1c:	e3a02001 	mov	r2, #1
 c109d20:	e3a03000 	mov	r3, #0
 c109d24:	ebffee7f 	bl	c105728 <lcd_draw_hline>
 c109d28:	e3a03001 	mov	r3, #1
 c109d2c:	e58d3000 	str	r3, [sp]
 c109d30:	e3a00000 	mov	r0, #0
 c109d34:	e3a01003 	mov	r1, #3
 c109d38:	e3a02002 	mov	r2, #2
 c109d3c:	e3a03000 	mov	r3, #0
 c109d40:	ebffee78 	bl	c105728 <lcd_draw_hline>
 c109d44:	e3a03001 	mov	r3, #1
 c109d48:	e58d3000 	str	r3, [sp]
 c109d4c:	e3a00000 	mov	r0, #0
 c109d50:	e3a01003 	mov	r1, #3
 c109d54:	e3a02003 	mov	r2, #3
 c109d58:	e3a03000 	mov	r3, #0
 c109d5c:	ebffee71 	bl	c105728 <lcd_draw_hline>
 c109d60:	e3a00e13 	mov	r0, #304	; 0x130
 c109d64:	e3a010d8 	mov	r1, #216	; 0xd8
 c109d68:	e3a0200f 	mov	r2, #15
 c109d6c:	e59f3258 	ldr	r3, [pc, #600]	; c109fcc <ts_calibrate+0x3d8>
 c109d70:	ebffeff5 	bl	c105d4c <lcd_puts>
 c109d74:	e3a0000a 	mov	r0, #10
 c109d78:	e3a010d8 	mov	r1, #216	; 0xd8
 c109d7c:	e3a0200f 	mov	r2, #15
 c109d80:	e59f3248 	ldr	r3, [pc, #584]	; c109fd0 <ts_calibrate+0x3dc>
 c109d84:	ebffeff0 	bl	c105d4c <lcd_puts>
 c109d88:	e3a03001 	mov	r3, #1
 c109d8c:	e58d3000 	str	r3, [sp]
 c109d90:	e3a00f4f 	mov	r0, #316	; 0x13c
 c109d94:	e59f1238 	ldr	r1, [pc, #568]	; c109fd4 <ts_calibrate+0x3e0>
 c109d98:	e3a020ec 	mov	r2, #236	; 0xec
 c109d9c:	e3a0300f 	mov	r3, #15
 c109da0:	ebffee60 	bl	c105728 <lcd_draw_hline>
 c109da4:	e3a03001 	mov	r3, #1
 c109da8:	e58d3000 	str	r3, [sp]
 c109dac:	e3a00f4f 	mov	r0, #316	; 0x13c
 c109db0:	e59f121c 	ldr	r1, [pc, #540]	; c109fd4 <ts_calibrate+0x3e0>
 c109db4:	e3a020ed 	mov	r2, #237	; 0xed
 c109db8:	e3a0300f 	mov	r3, #15
 c109dbc:	ebffee59 	bl	c105728 <lcd_draw_hline>
 c109dc0:	e3a03001 	mov	r3, #1
 c109dc4:	e58d3000 	str	r3, [sp]
 c109dc8:	e3a00f4f 	mov	r0, #316	; 0x13c
 c109dcc:	e59f1200 	ldr	r1, [pc, #512]	; c109fd4 <ts_calibrate+0x3e0>
 c109dd0:	e3a020ee 	mov	r2, #238	; 0xee
 c109dd4:	e3a0300f 	mov	r3, #15
 c109dd8:	ebffee52 	bl	c105728 <lcd_draw_hline>
 c109ddc:	e3a03001 	mov	r3, #1
 c109de0:	e58d3000 	str	r3, [sp]
 c109de4:	e3a00f4f 	mov	r0, #316	; 0x13c
 c109de8:	e59f11e4 	ldr	r1, [pc, #484]	; c109fd4 <ts_calibrate+0x3e0>
 c109dec:	e3a020ef 	mov	r2, #239	; 0xef
 c109df0:	e3a0300f 	mov	r3, #15
 c109df4:	ebffee4b 	bl	c105728 <lcd_draw_hline>
 c109df8:	e1a00000 	nop			; (mov r0, r0)
 c109dfc:	e59f31bc 	ldr	r3, [pc, #444]	; c109fc0 <ts_calibrate+0x3cc>
 c109e00:	e5933000 	ldr	r3, [r3]
 c109e04:	e2033004 	and	r3, r3, #4
 c109e08:	e3530000 	cmp	r3, #0
 c109e0c:	1afffffa 	bne	c109dfc <ts_calibrate+0x208>
 c109e10:	e3a0001e 	mov	r0, #30
 c109e14:	ebfffd44 	bl	c10932c <sw_delay_ms>
 c109e18:	e59f01b8 	ldr	r0, [pc, #440]	; c109fd8 <ts_calibrate+0x3e4>
 c109e1c:	e59f11b8 	ldr	r1, [pc, #440]	; c109fdc <ts_calibrate+0x3e8>
 c109e20:	eb0000ef 	bl	c10a1e4 <ts_scan>
 c109e24:	e1a00000 	nop			; (mov r0, r0)
 c109e28:	e59f3190 	ldr	r3, [pc, #400]	; c109fc0 <ts_calibrate+0x3cc>
 c109e2c:	e5933000 	ldr	r3, [r3]
 c109e30:	e2033004 	and	r3, r3, #4
 c109e34:	e3530000 	cmp	r3, #0
 c109e38:	0afffffa 	beq	c109e28 <ts_calibrate+0x234>
 c109e3c:	e3a00064 	mov	r0, #100	; 0x64
 c109e40:	ebfffd39 	bl	c10932c <sw_delay_ms>
 c109e44:	e3a03001 	mov	r3, #1
 c109e48:	e58d3000 	str	r3, [sp]
 c109e4c:	e3a00f4f 	mov	r0, #316	; 0x13c
 c109e50:	e59f117c 	ldr	r1, [pc, #380]	; c109fd4 <ts_calibrate+0x3e0>
 c109e54:	e3a020ec 	mov	r2, #236	; 0xec
 c109e58:	e3a03000 	mov	r3, #0
 c109e5c:	ebffee31 	bl	c105728 <lcd_draw_hline>
 c109e60:	e3a03001 	mov	r3, #1
 c109e64:	e58d3000 	str	r3, [sp]
 c109e68:	e3a00f4f 	mov	r0, #316	; 0x13c
 c109e6c:	e59f1160 	ldr	r1, [pc, #352]	; c109fd4 <ts_calibrate+0x3e0>
 c109e70:	e3a020ed 	mov	r2, #237	; 0xed
 c109e74:	e3a03000 	mov	r3, #0
 c109e78:	ebffee2a 	bl	c105728 <lcd_draw_hline>
 c109e7c:	e3a03001 	mov	r3, #1
 c109e80:	e58d3000 	str	r3, [sp]
 c109e84:	e3a00f4f 	mov	r0, #316	; 0x13c
 c109e88:	e59f1144 	ldr	r1, [pc, #324]	; c109fd4 <ts_calibrate+0x3e0>
 c109e8c:	e3a020ee 	mov	r2, #238	; 0xee
 c109e90:	e3a03000 	mov	r3, #0
 c109e94:	ebffee23 	bl	c105728 <lcd_draw_hline>
 c109e98:	e3a03001 	mov	r3, #1
 c109e9c:	e58d3000 	str	r3, [sp]
 c109ea0:	e3a00f4f 	mov	r0, #316	; 0x13c
 c109ea4:	e59f1128 	ldr	r1, [pc, #296]	; c109fd4 <ts_calibrate+0x3e0>
 c109ea8:	e3a020ef 	mov	r2, #239	; 0xef
 c109eac:	e3a03000 	mov	r3, #0
 c109eb0:	ebffee1c 	bl	c105728 <lcd_draw_hline>
 c109eb4:	e3a00e12 	mov	r0, #288	; 0x120
 c109eb8:	e3a010d8 	mov	r1, #216	; 0xd8
 c109ebc:	e3a0200f 	mov	r2, #15
 c109ec0:	e59f3104 	ldr	r3, [pc, #260]	; c109fcc <ts_calibrate+0x3d8>
 c109ec4:	ebffefa0 	bl	c105d4c <lcd_puts>
 c109ec8:	e3a0000a 	mov	r0, #10
 c109ecc:	e3a010d8 	mov	r1, #216	; 0xd8
 c109ed0:	e3a0200f 	mov	r2, #15
 c109ed4:	e59f3104 	ldr	r3, [pc, #260]	; c109fe0 <ts_calibrate+0x3ec>
 c109ed8:	ebffef9b 	bl	c105d4c <lcd_puts>
 c109edc:	e3a03001 	mov	r3, #1
 c109ee0:	e58d3000 	str	r3, [sp]
 c109ee4:	e3a0009b 	mov	r0, #155	; 0x9b
 c109ee8:	e3a010a5 	mov	r1, #165	; 0xa5
 c109eec:	e3a02078 	mov	r2, #120	; 0x78
 c109ef0:	e3a0300f 	mov	r3, #15
 c109ef4:	ebffee0b 	bl	c105728 <lcd_draw_hline>
 c109ef8:	e3a03001 	mov	r3, #1
 c109efc:	e58d3000 	str	r3, [sp]
 c109f00:	e3a00073 	mov	r0, #115	; 0x73
 c109f04:	e3a0107d 	mov	r1, #125	; 0x7d
 c109f08:	e3a020a0 	mov	r2, #160	; 0xa0
 c109f0c:	e3a0300f 	mov	r3, #15
 c109f10:	ebffee5a 	bl	c105880 <lcd_draw_vline>
 c109f14:	e24b200e 	sub	r2, fp, #14
 c109f18:	e24b3010 	sub	r3, fp, #16
 c109f1c:	e1a00002 	mov	r0, r2
 c109f20:	e1a01003 	mov	r1, r3
 c109f24:	eb00018b 	bl	c10a558 <ts_getpos>
 c109f28:	e3a03001 	mov	r3, #1
 c109f2c:	e58d3000 	str	r3, [sp]
 c109f30:	e3a0009b 	mov	r0, #155	; 0x9b
 c109f34:	e3a010a5 	mov	r1, #165	; 0xa5
 c109f38:	e3a02078 	mov	r2, #120	; 0x78
 c109f3c:	e3a03000 	mov	r3, #0
 c109f40:	ebffedf8 	bl	c105728 <lcd_draw_hline>
 c109f44:	e3a03001 	mov	r3, #1
 c109f48:	e58d3000 	str	r3, [sp]
 c109f4c:	e3a00073 	mov	r0, #115	; 0x73
 c109f50:	e3a0107d 	mov	r1, #125	; 0x7d
 c109f54:	e3a020a0 	mov	r2, #160	; 0xa0
 c109f58:	e3a03000 	mov	r3, #0
 c109f5c:	ebffee47 	bl	c105880 <lcd_draw_vline>
 c109f60:	e3a000b2 	mov	r0, #178	; 0xb2
 c109f64:	e3a010d8 	mov	r1, #216	; 0xd8
 c109f68:	e3a0200f 	mov	r2, #15
 c109f6c:	e59f3058 	ldr	r3, [pc, #88]	; c109fcc <ts_calibrate+0x3d8>
 c109f70:	ebffef75 	bl	c105d4c <lcd_puts>
 c109f74:	e15b30be 	ldrh	r3, [fp, #-14]
 c109f78:	e35300a5 	cmp	r3, #165	; 0xa5
 c109f7c:	8affff21 	bhi	c109c08 <ts_calibrate+0x14>
 c109f80:	e15b30be 	ldrh	r3, [fp, #-14]
 c109f84:	e353009a 	cmp	r3, #154	; 0x9a
 c109f88:	9affff1e 	bls	c109c08 <ts_calibrate+0x14>
 c109f8c:	e15b31b0 	ldrh	r3, [fp, #-16]
 c109f90:	e353007d 	cmp	r3, #125	; 0x7d
 c109f94:	8affff1b 	bhi	c109c08 <ts_calibrate+0x14>
 c109f98:	e15b31b0 	ldrh	r3, [fp, #-16]
 c109f9c:	e3530072 	cmp	r3, #114	; 0x72
 c109fa0:	9affff18 	bls	c109c08 <ts_calibrate+0x14>
 c109fa4:	ebffed65 	bl	c105540 <lcd_clear>
 c109fa8:	ebffed4b 	bl	c1054dc <lcd_off>
 c109fac:	e24bd00c 	sub	sp, fp, #12
 c109fb0:	e89d6800 	ldm	sp, {fp, sp, lr}
 c109fb4:	e12fff1e 	bx	lr
 c109fb8:	0c10cf54 	.word	0x0c10cf54
 c109fbc:	0c10cf78 	.word	0x0c10cf78
 c109fc0:	01d20044 	.word	0x01d20044
 c109fc4:	0c117a68 	.word	0x0c117a68
 c109fc8:	0c117a6e 	.word	0x0c117a6e
 c109fcc:	0c10cfa0 	.word	0x0c10cfa0
 c109fd0:	0c10cfa4 	.word	0x0c10cfa4
 c109fd4:	0000013f 	.word	0x0000013f
 c109fd8:	0c117a6a 	.word	0x0c117a6a
 c109fdc:	0c117a6c 	.word	0x0c117a6c
 c109fe0:	0c10cfcc 	.word	0x0c10cfcc

0c109fe4 <ts_getpostime>:
 c109fe4:	e1a0c00d 	mov	ip, sp
 c109fe8:	e92dd800 	push	{fp, ip, lr, pc}
 c109fec:	e24cb004 	sub	fp, ip, #4
 c109ff0:	e24dd018 	sub	sp, sp, #24
 c109ff4:	e50b0018 	str	r0, [fp, #-24]	; 0xffffffe8
 c109ff8:	e50b101c 	str	r1, [fp, #-28]	; 0xffffffe4
 c109ffc:	e50b2020 	str	r2, [fp, #-32]	; 0xffffffe0
 c10a000:	e1a00000 	nop			; (mov r0, r0)
 c10a004:	e59f309c 	ldr	r3, [pc, #156]	; c10a0a8 <ts_getpostime+0xc4>
 c10a008:	e5933000 	ldr	r3, [r3]
 c10a00c:	e2033004 	and	r3, r3, #4
 c10a010:	e3530000 	cmp	r3, #0
 c10a014:	1afffffa 	bne	c10a004 <ts_getpostime+0x20>
 c10a018:	ebfffd2e 	bl	c1094d8 <timer3_start>
 c10a01c:	e3a0001e 	mov	r0, #30
 c10a020:	ebfffcc1 	bl	c10932c <sw_delay_ms>
 c10a024:	e24b200e 	sub	r2, fp, #14
 c10a028:	e24b3010 	sub	r3, fp, #16
 c10a02c:	e1a00002 	mov	r0, r2
 c10a030:	e1a01003 	mov	r1, r3
 c10a034:	eb00006a 	bl	c10a1e4 <ts_scan>
 c10a038:	e15b20be 	ldrh	r2, [fp, #-14]
 c10a03c:	e15b31b0 	ldrh	r3, [fp, #-16]
 c10a040:	e1a00002 	mov	r0, r2
 c10a044:	e1a01003 	mov	r1, r3
 c10a048:	e51b2018 	ldr	r2, [fp, #-24]	; 0xffffffe8
 c10a04c:	e51b301c 	ldr	r3, [fp, #-28]	; 0xffffffe4
 c10a050:	eb000084 	bl	c10a268 <ts_sample2coord>
 c10a054:	e1a00000 	nop			; (mov r0, r0)
 c10a058:	e59f3048 	ldr	r3, [pc, #72]	; c10a0a8 <ts_getpostime+0xc4>
 c10a05c:	e5933000 	ldr	r3, [r3]
 c10a060:	e2033004 	and	r3, r3, #4
 c10a064:	e3530000 	cmp	r3, #0
 c10a068:	0afffffa 	beq	c10a058 <ts_getpostime+0x74>
 c10a06c:	ebfffd50 	bl	c1095b4 <timer3_stop>
 c10a070:	e1a03000 	mov	r3, r0
 c10a074:	e1a02003 	mov	r2, r3
 c10a078:	e59f302c 	ldr	r3, [pc, #44]	; c10a0ac <ts_getpostime+0xc8>
 c10a07c:	e0831392 	umull	r1, r3, r2, r3
 c10a080:	e1a031a3 	lsr	r3, r3, #3
 c10a084:	e1a03803 	lsl	r3, r3, #16
 c10a088:	e1a02823 	lsr	r2, r3, #16
 c10a08c:	e51b3020 	ldr	r3, [fp, #-32]	; 0xffffffe0
 c10a090:	e1c320b0 	strh	r2, [r3]
 c10a094:	e3a00064 	mov	r0, #100	; 0x64
 c10a098:	ebfffca3 	bl	c10932c <sw_delay_ms>
 c10a09c:	e24bd00c 	sub	sp, fp, #12
 c10a0a0:	e89d6800 	ldm	sp, {fp, sp, lr}
 c10a0a4:	e12fff1e 	bx	lr
 c10a0a8:	01d20044 	.word	0x01d20044
 c10a0ac:	cccccccd 	.word	0xcccccccd

0c10a0b0 <ts_timeout_getpos>:
 c10a0b0:	e1a0c00d 	mov	ip, sp
 c10a0b4:	e92dd800 	push	{fp, ip, lr, pc}
 c10a0b8:	e24cb004 	sub	fp, ip, #4
 c10a0bc:	e24dd018 	sub	sp, sp, #24
 c10a0c0:	e50b0018 	str	r0, [fp, #-24]	; 0xffffffe8
 c10a0c4:	e50b101c 	str	r1, [fp, #-28]	; 0xffffffe4
 c10a0c8:	e1a03002 	mov	r3, r2
 c10a0cc:	e14b31be 	strh	r3, [fp, #-30]	; 0xffffffe2
 c10a0d0:	e51b3018 	ldr	r3, [fp, #-24]	; 0xffffffe8
 c10a0d4:	e3a02000 	mov	r2, #0
 c10a0d8:	e1c320b0 	strh	r2, [r3]
 c10a0dc:	e51b301c 	ldr	r3, [fp, #-28]	; 0xffffffe4
 c10a0e0:	e3a02000 	mov	r2, #0
 c10a0e4:	e1c320b0 	strh	r2, [r3]
 c10a0e8:	e15b31be 	ldrh	r3, [fp, #-30]	; 0xffffffe2
 c10a0ec:	e1a02003 	mov	r2, r3
 c10a0f0:	e1a02102 	lsl	r2, r2, #2
 c10a0f4:	e0823003 	add	r3, r2, r3
 c10a0f8:	e1a03083 	lsl	r3, r3, #1
 c10a0fc:	e1a03803 	lsl	r3, r3, #16
 c10a100:	e1a03823 	lsr	r3, r3, #16
 c10a104:	e1a00003 	mov	r0, r3
 c10a108:	ebfffd3e 	bl	c109608 <timer3_start_timeout>
 c10a10c:	e1a00000 	nop			; (mov r0, r0)
 c10a110:	e59f30c8 	ldr	r3, [pc, #200]	; c10a1e0 <ts_timeout_getpos+0x130>
 c10a114:	e5933000 	ldr	r3, [r3]
 c10a118:	e2033004 	and	r3, r3, #4
 c10a11c:	e3530000 	cmp	r3, #0
 c10a120:	0a000003 	beq	c10a134 <ts_timeout_getpos+0x84>
 c10a124:	ebfffd70 	bl	c1096ec <timer3_timeout>
 c10a128:	e1a03000 	mov	r3, r0
 c10a12c:	e3530000 	cmp	r3, #0
 c10a130:	0afffff6 	beq	c10a110 <ts_timeout_getpos+0x60>
 c10a134:	ebfffd6c 	bl	c1096ec <timer3_timeout>
 c10a138:	e1a03000 	mov	r3, r0
 c10a13c:	e3530000 	cmp	r3, #0
 c10a140:	0a000001 	beq	c10a14c <ts_timeout_getpos+0x9c>
 c10a144:	e3a030fe 	mov	r3, #254	; 0xfe
 c10a148:	ea000020 	b	c10a1d0 <ts_timeout_getpos+0x120>
 c10a14c:	e3a0001e 	mov	r0, #30
 c10a150:	ebfffc75 	bl	c10932c <sw_delay_ms>
 c10a154:	e24b200e 	sub	r2, fp, #14
 c10a158:	e24b3010 	sub	r3, fp, #16
 c10a15c:	e1a00002 	mov	r0, r2
 c10a160:	e1a01003 	mov	r1, r3
 c10a164:	eb00001e 	bl	c10a1e4 <ts_scan>
 c10a168:	e15b20be 	ldrh	r2, [fp, #-14]
 c10a16c:	e15b31b0 	ldrh	r3, [fp, #-16]
 c10a170:	e1a00002 	mov	r0, r2
 c10a174:	e1a01003 	mov	r1, r3
 c10a178:	e51b2018 	ldr	r2, [fp, #-24]	; 0xffffffe8
 c10a17c:	e51b301c 	ldr	r3, [fp, #-28]	; 0xffffffe4
 c10a180:	eb000038 	bl	c10a268 <ts_sample2coord>
 c10a184:	e1a00000 	nop			; (mov r0, r0)
 c10a188:	e59f3050 	ldr	r3, [pc, #80]	; c10a1e0 <ts_timeout_getpos+0x130>
 c10a18c:	e5933000 	ldr	r3, [r3]
 c10a190:	e2033004 	and	r3, r3, #4
 c10a194:	e3530000 	cmp	r3, #0
 c10a198:	1a000003 	bne	c10a1ac <ts_timeout_getpos+0xfc>
 c10a19c:	ebfffd52 	bl	c1096ec <timer3_timeout>
 c10a1a0:	e1a03000 	mov	r3, r0
 c10a1a4:	e3530000 	cmp	r3, #0
 c10a1a8:	0afffff6 	beq	c10a188 <ts_timeout_getpos+0xd8>
 c10a1ac:	ebfffd4e 	bl	c1096ec <timer3_timeout>
 c10a1b0:	e1a03000 	mov	r3, r0
 c10a1b4:	e3530000 	cmp	r3, #0
 c10a1b8:	0a000001 	beq	c10a1c4 <ts_timeout_getpos+0x114>
 c10a1bc:	e3a030fe 	mov	r3, #254	; 0xfe
 c10a1c0:	ea000002 	b	c10a1d0 <ts_timeout_getpos+0x120>
 c10a1c4:	e3a00064 	mov	r0, #100	; 0x64
 c10a1c8:	ebfffc57 	bl	c10932c <sw_delay_ms>
 c10a1cc:	e3a03001 	mov	r3, #1
 c10a1d0:	e1a00003 	mov	r0, r3
 c10a1d4:	e24bd00c 	sub	sp, fp, #12
 c10a1d8:	e89d6800 	ldm	sp, {fp, sp, lr}
 c10a1dc:	e12fff1e 	bx	lr
 c10a1e0:	01d20044 	.word	0x01d20044

0c10a1e4 <ts_scan>:
 c10a1e4:	e1a0c00d 	mov	ip, sp
 c10a1e8:	e92dd800 	push	{fp, ip, lr, pc}
 c10a1ec:	e24cb004 	sub	fp, ip, #4
 c10a1f0:	e24dd008 	sub	sp, sp, #8
 c10a1f4:	e50b0010 	str	r0, [fp, #-16]
 c10a1f8:	e50b1014 	str	r1, [fp, #-20]	; 0xffffffec
 c10a1fc:	e59f3060 	ldr	r3, [pc, #96]	; c10a264 <ts_scan+0x80>
 c10a200:	e3a02060 	mov	r2, #96	; 0x60
 c10a204:	e5832000 	str	r2, [r3]
 c10a208:	e3a00001 	mov	r0, #1
 c10a20c:	eb000383 	bl	c10b020 <adc_getSample>
 c10a210:	e1a03000 	mov	r3, r0
 c10a214:	e1a02003 	mov	r2, r3
 c10a218:	e51b3010 	ldr	r3, [fp, #-16]
 c10a21c:	e1c320b0 	strh	r2, [r3]
 c10a220:	e59f303c 	ldr	r3, [pc, #60]	; c10a264 <ts_scan+0x80>
 c10a224:	e3a02090 	mov	r2, #144	; 0x90
 c10a228:	e5832000 	str	r2, [r3]
 c10a22c:	e3a00000 	mov	r0, #0
 c10a230:	eb00037a 	bl	c10b020 <adc_getSample>
 c10a234:	e1a03000 	mov	r3, r0
 c10a238:	e1a02003 	mov	r2, r3
 c10a23c:	e51b3014 	ldr	r3, [fp, #-20]	; 0xffffffec
 c10a240:	e1c320b0 	strh	r2, [r3]
 c10a244:	e59f3018 	ldr	r3, [pc, #24]	; c10a264 <ts_scan+0x80>
 c10a248:	e3a020b0 	mov	r2, #176	; 0xb0
 c10a24c:	e5832000 	str	r2, [r3]
 c10a250:	e3a00001 	mov	r0, #1
 c10a254:	ebfffc34 	bl	c10932c <sw_delay_ms>
 c10a258:	e24bd00c 	sub	sp, fp, #12
 c10a25c:	e89d6800 	ldm	sp, {fp, sp, lr}
 c10a260:	e12fff1e 	bx	lr
 c10a264:	01d2002c 	.word	0x01d2002c

0c10a268 <ts_sample2coord>:
 c10a268:	e1a0c00d 	mov	ip, sp
 c10a26c:	e92dd800 	push	{fp, ip, lr, pc}
 c10a270:	e24cb004 	sub	fp, ip, #4
 c10a274:	e24dd010 	sub	sp, sp, #16
 c10a278:	e50b2014 	str	r2, [fp, #-20]	; 0xffffffec
 c10a27c:	e50b3018 	str	r3, [fp, #-24]	; 0xffffffe8
 c10a280:	e14b00be 	strh	r0, [fp, #-14]
 c10a284:	e14b11b0 	strh	r1, [fp, #-16]
 c10a288:	e59f3150 	ldr	r3, [pc, #336]	; c10a3e0 <ts_sample2coord+0x178>
 c10a28c:	e1d330b0 	ldrh	r3, [r3]
 c10a290:	e15b20be 	ldrh	r2, [fp, #-14]
 c10a294:	e1520003 	cmp	r2, r3
 c10a298:	2a000003 	bcs	c10a2ac <ts_sample2coord+0x44>
 c10a29c:	e51b3014 	ldr	r3, [fp, #-20]	; 0xffffffec
 c10a2a0:	e3a02000 	mov	r2, #0
 c10a2a4:	e1c320b0 	strh	r2, [r3]
 c10a2a8:	ea00001f 	b	c10a32c <ts_sample2coord+0xc4>
 c10a2ac:	e59f3130 	ldr	r3, [pc, #304]	; c10a3e4 <ts_sample2coord+0x17c>
 c10a2b0:	e1d330b0 	ldrh	r3, [r3]
 c10a2b4:	e15b20be 	ldrh	r2, [fp, #-14]
 c10a2b8:	e1520003 	cmp	r2, r3
 c10a2bc:	9a000003 	bls	c10a2d0 <ts_sample2coord+0x68>
 c10a2c0:	e51b3014 	ldr	r3, [fp, #-20]	; 0xffffffec
 c10a2c4:	e59f211c 	ldr	r2, [pc, #284]	; c10a3e8 <ts_sample2coord+0x180>
 c10a2c8:	e1c320b0 	strh	r2, [r3]
 c10a2cc:	ea000016 	b	c10a32c <ts_sample2coord+0xc4>
 c10a2d0:	e15b20be 	ldrh	r2, [fp, #-14]
 c10a2d4:	e59f3104 	ldr	r3, [pc, #260]	; c10a3e0 <ts_sample2coord+0x178>
 c10a2d8:	e1d330b0 	ldrh	r3, [r3]
 c10a2dc:	e0632002 	rsb	r2, r3, r2
 c10a2e0:	e1a03002 	mov	r3, r2
 c10a2e4:	e1a03103 	lsl	r3, r3, #2
 c10a2e8:	e0833002 	add	r3, r3, r2
 c10a2ec:	e1a03303 	lsl	r3, r3, #6
 c10a2f0:	e1a02003 	mov	r2, r3
 c10a2f4:	e59f30e8 	ldr	r3, [pc, #232]	; c10a3e4 <ts_sample2coord+0x17c>
 c10a2f8:	e1d330b0 	ldrh	r3, [r3]
 c10a2fc:	e1a01003 	mov	r1, r3
 c10a300:	e59f30d8 	ldr	r3, [pc, #216]	; c10a3e0 <ts_sample2coord+0x178>
 c10a304:	e1d330b0 	ldrh	r3, [r3]
 c10a308:	e0633001 	rsb	r3, r3, r1
 c10a30c:	e1a00002 	mov	r0, r2
 c10a310:	e1a01003 	mov	r1, r3
 c10a314:	eb00049e 	bl	c10b594 <__aeabi_idiv>
 c10a318:	e1a03000 	mov	r3, r0
 c10a31c:	e1a03803 	lsl	r3, r3, #16
 c10a320:	e1a02823 	lsr	r2, r3, #16
 c10a324:	e51b3014 	ldr	r3, [fp, #-20]	; 0xffffffec
 c10a328:	e1c320b0 	strh	r2, [r3]
 c10a32c:	e59f30b8 	ldr	r3, [pc, #184]	; c10a3ec <ts_sample2coord+0x184>
 c10a330:	e1d330b0 	ldrh	r3, [r3]
 c10a334:	e15b21b0 	ldrh	r2, [fp, #-16]
 c10a338:	e1520003 	cmp	r2, r3
 c10a33c:	2a000003 	bcs	c10a350 <ts_sample2coord+0xe8>
 c10a340:	e51b3018 	ldr	r3, [fp, #-24]	; 0xffffffe8
 c10a344:	e3a020ef 	mov	r2, #239	; 0xef
 c10a348:	e1c320b0 	strh	r2, [r3]
 c10a34c:	ea000020 	b	c10a3d4 <ts_sample2coord+0x16c>
 c10a350:	e59f3098 	ldr	r3, [pc, #152]	; c10a3f0 <ts_sample2coord+0x188>
 c10a354:	e1d330b0 	ldrh	r3, [r3]
 c10a358:	e15b21b0 	ldrh	r2, [fp, #-16]
 c10a35c:	e1520003 	cmp	r2, r3
 c10a360:	9a000003 	bls	c10a374 <ts_sample2coord+0x10c>
 c10a364:	e51b3018 	ldr	r3, [fp, #-24]	; 0xffffffe8
 c10a368:	e3a02000 	mov	r2, #0
 c10a36c:	e1c320b0 	strh	r2, [r3]
 c10a370:	ea000017 	b	c10a3d4 <ts_sample2coord+0x16c>
 c10a374:	e59f3074 	ldr	r3, [pc, #116]	; c10a3f0 <ts_sample2coord+0x188>
 c10a378:	e1d330b0 	ldrh	r3, [r3]
 c10a37c:	e1a02003 	mov	r2, r3
 c10a380:	e15b31b0 	ldrh	r3, [fp, #-16]
 c10a384:	e0632002 	rsb	r2, r3, r2
 c10a388:	e1a03002 	mov	r3, r2
 c10a38c:	e1a03203 	lsl	r3, r3, #4
 c10a390:	e0623003 	rsb	r3, r2, r3
 c10a394:	e1a03203 	lsl	r3, r3, #4
 c10a398:	e1a02003 	mov	r2, r3
 c10a39c:	e59f304c 	ldr	r3, [pc, #76]	; c10a3f0 <ts_sample2coord+0x188>
 c10a3a0:	e1d330b0 	ldrh	r3, [r3]
 c10a3a4:	e1a01003 	mov	r1, r3
 c10a3a8:	e59f303c 	ldr	r3, [pc, #60]	; c10a3ec <ts_sample2coord+0x184>
 c10a3ac:	e1d330b0 	ldrh	r3, [r3]
 c10a3b0:	e0633001 	rsb	r3, r3, r1
 c10a3b4:	e1a00002 	mov	r0, r2
 c10a3b8:	e1a01003 	mov	r1, r3
 c10a3bc:	eb000474 	bl	c10b594 <__aeabi_idiv>
 c10a3c0:	e1a03000 	mov	r3, r0
 c10a3c4:	e1a03803 	lsl	r3, r3, #16
 c10a3c8:	e1a02823 	lsr	r2, r3, #16
 c10a3cc:	e51b3018 	ldr	r3, [fp, #-24]	; 0xffffffe8
 c10a3d0:	e1c320b0 	strh	r2, [r3]
 c10a3d4:	e24bd00c 	sub	sp, fp, #12
 c10a3d8:	e89d6800 	ldm	sp, {fp, sp, lr}
 c10a3dc:	e12fff1e 	bx	lr
 c10a3e0:	0c117a68 	.word	0x0c117a68
 c10a3e4:	0c117a6a 	.word	0x0c117a6a
 c10a3e8:	0000013f 	.word	0x0000013f
 c10a3ec:	0c117a6c 	.word	0x0c117a6c
 c10a3f0:	0c117a6e 	.word	0x0c117a6e

0c10a3f4 <ts_open>:
 c10a3f4:	e1a0c00d 	mov	ip, sp
 c10a3f8:	e92dd800 	push	{fp, ip, lr, pc}
 c10a3fc:	e24cb004 	sub	fp, ip, #4
 c10a400:	e24dd008 	sub	sp, sp, #8
 c10a404:	e50b0010 	str	r0, [fp, #-16]
 c10a408:	e59f3030 	ldr	r3, [pc, #48]	; c10a440 <ts_open+0x4c>
 c10a40c:	e51b2010 	ldr	r2, [fp, #-16]
 c10a410:	e5832000 	str	r2, [r3]
 c10a414:	e59f3028 	ldr	r3, [pc, #40]	; c10a444 <ts_open+0x50>
 c10a418:	e3a02502 	mov	r2, #8388608	; 0x800000
 c10a41c:	e5832000 	str	r2, [r3]
 c10a420:	e59f3020 	ldr	r3, [pc, #32]	; c10a448 <ts_open+0x54>
 c10a424:	e59f201c 	ldr	r2, [pc, #28]	; c10a448 <ts_open+0x54>
 c10a428:	e5922000 	ldr	r2, [r2]
 c10a42c:	e3c22512 	bic	r2, r2, #75497472	; 0x4800000
 c10a430:	e5832000 	str	r2, [r3]
 c10a434:	e24bd00c 	sub	sp, fp, #12
 c10a438:	e89d6800 	ldm	sp, {fp, sp, lr}
 c10a43c:	e12fff1e 	bx	lr
 c10a440:	0c7fff7c 	.word	0x0c7fff7c
 c10a444:	01e00024 	.word	0x01e00024
 c10a448:	01e0000c 	.word	0x01e0000c

0c10a44c <ts_close>:
 c10a44c:	e1a0c00d 	mov	ip, sp
 c10a450:	e92dd800 	push	{fp, ip, lr, pc}
 c10a454:	e24cb004 	sub	fp, ip, #4
 c10a458:	e59f3024 	ldr	r3, [pc, #36]	; c10a484 <ts_close+0x38>
 c10a45c:	e59f2020 	ldr	r2, [pc, #32]	; c10a484 <ts_close+0x38>
 c10a460:	e5922000 	ldr	r2, [r2]
 c10a464:	e3822502 	orr	r2, r2, #8388608	; 0x800000
 c10a468:	e5832000 	str	r2, [r3]
 c10a46c:	e59f3014 	ldr	r3, [pc, #20]	; c10a488 <ts_close+0x3c>
 c10a470:	e59f2014 	ldr	r2, [pc, #20]	; c10a48c <ts_close+0x40>
 c10a474:	e5832000 	str	r2, [r3]
 c10a478:	e24bd00c 	sub	sp, fp, #12
 c10a47c:	e89d6800 	ldm	sp, {fp, sp, lr}
 c10a480:	e12fff1e 	bx	lr
 c10a484:	01e0000c 	.word	0x01e0000c
 c10a488:	0c7fff7c 	.word	0x0c7fff7c
 c10a48c:	0c108940 	.word	0x0c108940

0c10a490 <ts_init>:
 c10a490:	e1a0c00d 	mov	ip, sp
 c10a494:	e92dd800 	push	{fp, ip, lr, pc}
 c10a498:	e24cb004 	sub	fp, ip, #4
 c10a49c:	e59f309c 	ldr	r3, [pc, #156]	; c10a540 <ts_init+0xb0>
 c10a4a0:	e59f2098 	ldr	r2, [pc, #152]	; c10a540 <ts_init+0xb0>
 c10a4a4:	e5922000 	ldr	r2, [r2]
 c10a4a8:	e3822d52 	orr	r2, r2, #5248	; 0x1480
 c10a4ac:	e5832000 	str	r2, [r3]
 c10a4b0:	e59f308c 	ldr	r3, [pc, #140]	; c10a544 <ts_init+0xb4>
 c10a4b4:	e59f2088 	ldr	r2, [pc, #136]	; c10a544 <ts_init+0xb4>
 c10a4b8:	e5922000 	ldr	r2, [r2]
 c10a4bc:	e3c22cff 	bic	r2, r2, #65280	; 0xff00
 c10a4c0:	e3822c55 	orr	r2, r2, #21760	; 0x5500
 c10a4c4:	e5832000 	str	r2, [r3]
 c10a4c8:	e59f3078 	ldr	r3, [pc, #120]	; c10a548 <ts_init+0xb8>
 c10a4cc:	e59f2074 	ldr	r2, [pc, #116]	; c10a548 <ts_init+0xb8>
 c10a4d0:	e5922000 	ldr	r2, [r2]
 c10a4d4:	e38220f0 	orr	r2, r2, #240	; 0xf0
 c10a4d8:	e5832000 	str	r2, [r3]
 c10a4dc:	e59f3068 	ldr	r3, [pc, #104]	; c10a54c <ts_init+0xbc>
 c10a4e0:	e59f2064 	ldr	r2, [pc, #100]	; c10a54c <ts_init+0xbc>
 c10a4e4:	e5922000 	ldr	r2, [r2]
 c10a4e8:	e3822030 	orr	r2, r2, #48	; 0x30
 c10a4ec:	e5832000 	str	r2, [r3]
 c10a4f0:	e59f3058 	ldr	r3, [pc, #88]	; c10a550 <ts_init+0xc0>
 c10a4f4:	e59f2054 	ldr	r2, [pc, #84]	; c10a550 <ts_init+0xc0>
 c10a4f8:	e5922000 	ldr	r2, [r2]
 c10a4fc:	e3c22c07 	bic	r2, r2, #1792	; 0x700
 c10a500:	e3822c02 	orr	r2, r2, #512	; 0x200
 c10a504:	e5832000 	str	r2, [r3]
 c10a508:	ebfffad5 	bl	c109064 <timers_init>
 c10a50c:	ebffeb77 	bl	c1052f0 <lcd_init>
 c10a510:	eb0002b1 	bl	c10afdc <adc_init>
 c10a514:	e59f3038 	ldr	r3, [pc, #56]	; c10a554 <ts_init+0xc4>
 c10a518:	e3a020b0 	mov	r2, #176	; 0xb0
 c10a51c:	e5832000 	str	r2, [r3]
 c10a520:	e3a00001 	mov	r0, #1
 c10a524:	ebfffb80 	bl	c10932c <sw_delay_ms>
 c10a528:	ebfffd82 	bl	c109b38 <ts_on>
 c10a52c:	ebfffdb0 	bl	c109bf4 <ts_calibrate>
 c10a530:	ebfffd8b 	bl	c109b64 <ts_off>
 c10a534:	e24bd00c 	sub	sp, fp, #12
 c10a538:	e89d6800 	ldm	sp, {fp, sp, lr}
 c10a53c:	e12fff1e 	bx	lr
 c10a540:	01d80004 	.word	0x01d80004
 c10a544:	01d20028 	.word	0x01d20028
 c10a548:	01d20030 	.word	0x01d20030
 c10a54c:	01d20040 	.word	0x01d20040
 c10a550:	01d20050 	.word	0x01d20050
 c10a554:	01d2002c 	.word	0x01d2002c

0c10a558 <ts_getpos>:
 c10a558:	e1a0c00d 	mov	ip, sp
 c10a55c:	e92dd800 	push	{fp, ip, lr, pc}
 c10a560:	e24cb004 	sub	fp, ip, #4
 c10a564:	e24dd010 	sub	sp, sp, #16
 c10a568:	e50b0018 	str	r0, [fp, #-24]	; 0xffffffe8
 c10a56c:	e50b101c 	str	r1, [fp, #-28]	; 0xffffffe4
 c10a570:	e1a00000 	nop			; (mov r0, r0)
 c10a574:	e59f3070 	ldr	r3, [pc, #112]	; c10a5ec <ts_getpos+0x94>
 c10a578:	e5933000 	ldr	r3, [r3]
 c10a57c:	e2033004 	and	r3, r3, #4
 c10a580:	e3530000 	cmp	r3, #0
 c10a584:	1afffffa 	bne	c10a574 <ts_getpos+0x1c>
 c10a588:	e3a0001e 	mov	r0, #30
 c10a58c:	ebfffb66 	bl	c10932c <sw_delay_ms>
 c10a590:	e24b200e 	sub	r2, fp, #14
 c10a594:	e24b3010 	sub	r3, fp, #16
 c10a598:	e1a00002 	mov	r0, r2
 c10a59c:	e1a01003 	mov	r1, r3
 c10a5a0:	ebffff0f 	bl	c10a1e4 <ts_scan>
 c10a5a4:	e15b20be 	ldrh	r2, [fp, #-14]
 c10a5a8:	e15b31b0 	ldrh	r3, [fp, #-16]
 c10a5ac:	e1a00002 	mov	r0, r2
 c10a5b0:	e1a01003 	mov	r1, r3
 c10a5b4:	e51b2018 	ldr	r2, [fp, #-24]	; 0xffffffe8
 c10a5b8:	e51b301c 	ldr	r3, [fp, #-28]	; 0xffffffe4
 c10a5bc:	ebffff29 	bl	c10a268 <ts_sample2coord>
 c10a5c0:	e1a00000 	nop			; (mov r0, r0)
 c10a5c4:	e59f3020 	ldr	r3, [pc, #32]	; c10a5ec <ts_getpos+0x94>
 c10a5c8:	e5933000 	ldr	r3, [r3]
 c10a5cc:	e2033004 	and	r3, r3, #4
 c10a5d0:	e3530000 	cmp	r3, #0
 c10a5d4:	0afffffa 	beq	c10a5c4 <ts_getpos+0x6c>
 c10a5d8:	e3a00064 	mov	r0, #100	; 0x64
 c10a5dc:	ebfffb52 	bl	c10932c <sw_delay_ms>
 c10a5e0:	e24bd00c 	sub	sp, fp, #12
 c10a5e4:	e89d6800 	ldm	sp, {fp, sp, lr}
 c10a5e8:	e12fff1e 	bx	lr
 c10a5ec:	01d20044 	.word	0x01d20044

0c10a5f0 <uart0_init>:
 c10a5f0:	e1a0c00d 	mov	ip, sp
 c10a5f4:	e92dd800 	push	{fp, ip, lr, pc}
 c10a5f8:	e24cb004 	sub	fp, ip, #4
 c10a5fc:	e3a00008 	mov	r0, #8
 c10a600:	ebfff184 	bl	c106c18 <power_on>
 c10a604:	e59f306c 	ldr	r3, [pc, #108]	; c10a678 <uart0_init+0x88>
 c10a608:	e59f2068 	ldr	r2, [pc, #104]	; c10a678 <uart0_init+0x88>
 c10a60c:	e5922000 	ldr	r2, [r2]
 c10a610:	e3c2203c 	bic	r2, r2, #60	; 0x3c
 c10a614:	e3822028 	orr	r2, r2, #40	; 0x28
 c10a618:	e5832000 	str	r2, [r3]
 c10a61c:	e59f3058 	ldr	r3, [pc, #88]	; c10a67c <uart0_init+0x8c>
 c10a620:	e59f2054 	ldr	r2, [pc, #84]	; c10a67c <uart0_init+0x8c>
 c10a624:	e5922000 	ldr	r2, [r2]
 c10a628:	e3822006 	orr	r2, r2, #6
 c10a62c:	e5832000 	str	r2, [r3]
 c10a630:	e59f3048 	ldr	r3, [pc, #72]	; c10a680 <uart0_init+0x90>
 c10a634:	e3a02001 	mov	r2, #1
 c10a638:	e5832000 	str	r2, [r3]
 c10a63c:	e59f3040 	ldr	r3, [pc, #64]	; c10a684 <uart0_init+0x94>
 c10a640:	e3a02000 	mov	r2, #0
 c10a644:	e5832000 	str	r2, [r3]
 c10a648:	e3a0361d 	mov	r3, #30408704	; 0x1d00000
 c10a64c:	e3a02003 	mov	r2, #3
 c10a650:	e5832000 	str	r2, [r3]
 c10a654:	e59f302c 	ldr	r3, [pc, #44]	; c10a688 <uart0_init+0x98>
 c10a658:	e3a02022 	mov	r2, #34	; 0x22
 c10a65c:	e5832000 	str	r2, [r3]
 c10a660:	e59f3024 	ldr	r3, [pc, #36]	; c10a68c <uart0_init+0x9c>
 c10a664:	e3a02005 	mov	r2, #5
 c10a668:	e5832000 	str	r2, [r3]
 c10a66c:	e24bd00c 	sub	sp, fp, #12
 c10a670:	e89d6800 	ldm	sp, {fp, sp, lr}
 c10a674:	e12fff1e 	bx	lr
 c10a678:	01d20028 	.word	0x01d20028
 c10a67c:	01d20030 	.word	0x01d20030
 c10a680:	01d00008 	.word	0x01d00008
 c10a684:	01d0000c 	.word	0x01d0000c
 c10a688:	01d00028 	.word	0x01d00028
 c10a68c:	01d00004 	.word	0x01d00004

0c10a690 <uart0_putchar>:
 c10a690:	e1a0c00d 	mov	ip, sp
 c10a694:	e92dd800 	push	{fp, ip, lr, pc}
 c10a698:	e24cb004 	sub	fp, ip, #4
 c10a69c:	e24dd008 	sub	sp, sp, #8
 c10a6a0:	e1a03000 	mov	r3, r0
 c10a6a4:	e54b300d 	strb	r3, [fp, #-13]
 c10a6a8:	e1a00000 	nop			; (mov r0, r0)
 c10a6ac:	e59f3024 	ldr	r3, [pc, #36]	; c10a6d8 <uart0_putchar+0x48>
 c10a6b0:	e5933000 	ldr	r3, [r3]
 c10a6b4:	e2033c02 	and	r3, r3, #512	; 0x200
 c10a6b8:	e3530000 	cmp	r3, #0
 c10a6bc:	1afffffa 	bne	c10a6ac <uart0_putchar+0x1c>
 c10a6c0:	e59f3014 	ldr	r3, [pc, #20]	; c10a6dc <uart0_putchar+0x4c>
 c10a6c4:	e55b200d 	ldrb	r2, [fp, #-13]
 c10a6c8:	e5832000 	str	r2, [r3]
 c10a6cc:	e24bd00c 	sub	sp, fp, #12
 c10a6d0:	e89d6800 	ldm	sp, {fp, sp, lr}
 c10a6d4:	e12fff1e 	bx	lr
 c10a6d8:	01d00018 	.word	0x01d00018
 c10a6dc:	01d00020 	.word	0x01d00020

0c10a6e0 <uart0_getchar>:
 c10a6e0:	e1a0c00d 	mov	ip, sp
 c10a6e4:	e92dd800 	push	{fp, ip, lr, pc}
 c10a6e8:	e24cb004 	sub	fp, ip, #4
 c10a6ec:	e24dd008 	sub	sp, sp, #8
 c10a6f0:	e1a00000 	nop			; (mov r0, r0)
 c10a6f4:	e59f302c 	ldr	r3, [pc, #44]	; c10a728 <uart0_getchar+0x48>
 c10a6f8:	e5933000 	ldr	r3, [r3]
 c10a6fc:	e203300f 	and	r3, r3, #15
 c10a700:	e3530000 	cmp	r3, #0
 c10a704:	0afffffa 	beq	c10a6f4 <uart0_getchar+0x14>
 c10a708:	e59f301c 	ldr	r3, [pc, #28]	; c10a72c <uart0_getchar+0x4c>
 c10a70c:	e5933000 	ldr	r3, [r3]
 c10a710:	e54b300d 	strb	r3, [fp, #-13]
 c10a714:	e55b300d 	ldrb	r3, [fp, #-13]
 c10a718:	e1a00003 	mov	r0, r3
 c10a71c:	e24bd00c 	sub	sp, fp, #12
 c10a720:	e89d6800 	ldm	sp, {fp, sp, lr}
 c10a724:	e12fff1e 	bx	lr
 c10a728:	01d00018 	.word	0x01d00018
 c10a72c:	01d00024 	.word	0x01d00024

0c10a730 <uart0_puts>:
 c10a730:	e1a0c00d 	mov	ip, sp
 c10a734:	e92dd800 	push	{fp, ip, lr, pc}
 c10a738:	e24cb004 	sub	fp, ip, #4
 c10a73c:	e24dd008 	sub	sp, sp, #8
 c10a740:	e50b0010 	str	r0, [fp, #-16]
 c10a744:	ea000006 	b	c10a764 <uart0_puts+0x34>
 c10a748:	e51b3010 	ldr	r3, [fp, #-16]
 c10a74c:	e5d33000 	ldrb	r3, [r3]
 c10a750:	e51b2010 	ldr	r2, [fp, #-16]
 c10a754:	e2822001 	add	r2, r2, #1
 c10a758:	e50b2010 	str	r2, [fp, #-16]
 c10a75c:	e1a00003 	mov	r0, r3
 c10a760:	ebffffca 	bl	c10a690 <uart0_putchar>
 c10a764:	e51b3010 	ldr	r3, [fp, #-16]
 c10a768:	e5d33000 	ldrb	r3, [r3]
 c10a76c:	e3530000 	cmp	r3, #0
 c10a770:	1afffff4 	bne	c10a748 <uart0_puts+0x18>
 c10a774:	e24bd00c 	sub	sp, fp, #12
 c10a778:	e89d6800 	ldm	sp, {fp, sp, lr}
 c10a77c:	e12fff1e 	bx	lr

0c10a780 <uart0_putint>:
 c10a780:	e1a0c00d 	mov	ip, sp
 c10a784:	e92dd800 	push	{fp, ip, lr, pc}
 c10a788:	e24cb004 	sub	fp, ip, #4
 c10a78c:	e24dd018 	sub	sp, sp, #24
 c10a790:	e50b0020 	str	r0, [fp, #-32]	; 0xffffffe0
 c10a794:	e24b301c 	sub	r3, fp, #28
 c10a798:	e283300b 	add	r3, r3, #11
 c10a79c:	e50b3010 	str	r3, [fp, #-16]
 c10a7a0:	e51b3010 	ldr	r3, [fp, #-16]
 c10a7a4:	e3a02000 	mov	r2, #0
 c10a7a8:	e5c32000 	strb	r2, [r3]
 c10a7ac:	e51b3020 	ldr	r3, [fp, #-32]	; 0xffffffe0
 c10a7b0:	e3530000 	cmp	r3, #0
 c10a7b4:	ba00001d 	blt	c10a830 <uart0_putint+0xb0>
 c10a7b8:	e51b3010 	ldr	r3, [fp, #-16]
 c10a7bc:	e2433001 	sub	r3, r3, #1
 c10a7c0:	e50b3010 	str	r3, [fp, #-16]
 c10a7c4:	e51b1020 	ldr	r1, [fp, #-32]	; 0xffffffe0
 c10a7c8:	e59f3100 	ldr	r3, [pc, #256]	; c10a8d0 <uart0_putint+0x150>
 c10a7cc:	e0c32391 	smull	r2, r3, r1, r3
 c10a7d0:	e1a02143 	asr	r2, r3, #2
 c10a7d4:	e1a03fc1 	asr	r3, r1, #31
 c10a7d8:	e0632002 	rsb	r2, r3, r2
 c10a7dc:	e1a03002 	mov	r3, r2
 c10a7e0:	e1a03103 	lsl	r3, r3, #2
 c10a7e4:	e0833002 	add	r3, r3, r2
 c10a7e8:	e1a03083 	lsl	r3, r3, #1
 c10a7ec:	e0632001 	rsb	r2, r3, r1
 c10a7f0:	e20230ff 	and	r3, r2, #255	; 0xff
 c10a7f4:	e2833030 	add	r3, r3, #48	; 0x30
 c10a7f8:	e20320ff 	and	r2, r3, #255	; 0xff
 c10a7fc:	e51b3010 	ldr	r3, [fp, #-16]
 c10a800:	e5c32000 	strb	r2, [r3]
 c10a804:	e51b3020 	ldr	r3, [fp, #-32]	; 0xffffffe0
 c10a808:	e59f20c0 	ldr	r2, [pc, #192]	; c10a8d0 <uart0_putint+0x150>
 c10a80c:	e0c21293 	smull	r1, r2, r3, r2
 c10a810:	e1a02142 	asr	r2, r2, #2
 c10a814:	e1a03fc3 	asr	r3, r3, #31
 c10a818:	e0633002 	rsb	r3, r3, r2
 c10a81c:	e50b3020 	str	r3, [fp, #-32]	; 0xffffffe0
 c10a820:	e51b3020 	ldr	r3, [fp, #-32]	; 0xffffffe0
 c10a824:	e3530000 	cmp	r3, #0
 c10a828:	1affffe2 	bne	c10a7b8 <uart0_putint+0x38>
 c10a82c:	ea000022 	b	c10a8bc <uart0_putint+0x13c>
 c10a830:	e51b3010 	ldr	r3, [fp, #-16]
 c10a834:	e2433001 	sub	r3, r3, #1
 c10a838:	e50b3010 	str	r3, [fp, #-16]
 c10a83c:	e51b1020 	ldr	r1, [fp, #-32]	; 0xffffffe0
 c10a840:	e59f3088 	ldr	r3, [pc, #136]	; c10a8d0 <uart0_putint+0x150>
 c10a844:	e0c32391 	smull	r2, r3, r1, r3
 c10a848:	e1a02143 	asr	r2, r3, #2
 c10a84c:	e1a03fc1 	asr	r3, r1, #31
 c10a850:	e0632002 	rsb	r2, r3, r2
 c10a854:	e1a03002 	mov	r3, r2
 c10a858:	e1a03103 	lsl	r3, r3, #2
 c10a85c:	e0833002 	add	r3, r3, r2
 c10a860:	e1a03083 	lsl	r3, r3, #1
 c10a864:	e0632001 	rsb	r2, r3, r1
 c10a868:	e20230ff 	and	r3, r2, #255	; 0xff
 c10a86c:	e2633030 	rsb	r3, r3, #48	; 0x30
 c10a870:	e20320ff 	and	r2, r3, #255	; 0xff
 c10a874:	e51b3010 	ldr	r3, [fp, #-16]
 c10a878:	e5c32000 	strb	r2, [r3]
 c10a87c:	e51b3020 	ldr	r3, [fp, #-32]	; 0xffffffe0
 c10a880:	e59f2048 	ldr	r2, [pc, #72]	; c10a8d0 <uart0_putint+0x150>
 c10a884:	e0c21293 	smull	r1, r2, r3, r2
 c10a888:	e1a02142 	asr	r2, r2, #2
 c10a88c:	e1a03fc3 	asr	r3, r3, #31
 c10a890:	e0633002 	rsb	r3, r3, r2
 c10a894:	e50b3020 	str	r3, [fp, #-32]	; 0xffffffe0
 c10a898:	e51b3020 	ldr	r3, [fp, #-32]	; 0xffffffe0
 c10a89c:	e3530000 	cmp	r3, #0
 c10a8a0:	1affffe2 	bne	c10a830 <uart0_putint+0xb0>
 c10a8a4:	e51b3010 	ldr	r3, [fp, #-16]
 c10a8a8:	e2433001 	sub	r3, r3, #1
 c10a8ac:	e50b3010 	str	r3, [fp, #-16]
 c10a8b0:	e51b3010 	ldr	r3, [fp, #-16]
 c10a8b4:	e3a0202d 	mov	r2, #45	; 0x2d
 c10a8b8:	e5c32000 	strb	r2, [r3]
 c10a8bc:	e51b0010 	ldr	r0, [fp, #-16]
 c10a8c0:	ebffff9a 	bl	c10a730 <uart0_puts>
 c10a8c4:	e24bd00c 	sub	sp, fp, #12
 c10a8c8:	e89d6800 	ldm	sp, {fp, sp, lr}
 c10a8cc:	e12fff1e 	bx	lr
 c10a8d0:	66666667 	.word	0x66666667

0c10a8d4 <uart0_puthex>:
 c10a8d4:	e1a0c00d 	mov	ip, sp
 c10a8d8:	e92dd800 	push	{fp, ip, lr, pc}
 c10a8dc:	e24cb004 	sub	fp, ip, #4
 c10a8e0:	e24dd018 	sub	sp, sp, #24
 c10a8e4:	e50b0020 	str	r0, [fp, #-32]	; 0xffffffe0
 c10a8e8:	e24b301c 	sub	r3, fp, #28
 c10a8ec:	e2833008 	add	r3, r3, #8
 c10a8f0:	e50b3010 	str	r3, [fp, #-16]
 c10a8f4:	e51b3010 	ldr	r3, [fp, #-16]
 c10a8f8:	e3a02000 	mov	r2, #0
 c10a8fc:	e5c32000 	strb	r2, [r3]
 c10a900:	e51b3020 	ldr	r3, [fp, #-32]	; 0xffffffe0
 c10a904:	e20330ff 	and	r3, r3, #255	; 0xff
 c10a908:	e203300f 	and	r3, r3, #15
 c10a90c:	e54b3011 	strb	r3, [fp, #-17]	; 0xffffffef
 c10a910:	e55b3011 	ldrb	r3, [fp, #-17]	; 0xffffffef
 c10a914:	e3530009 	cmp	r3, #9
 c10a918:	8a000008 	bhi	c10a940 <uart0_puthex+0x6c>
 c10a91c:	e51b3010 	ldr	r3, [fp, #-16]
 c10a920:	e2433001 	sub	r3, r3, #1
 c10a924:	e50b3010 	str	r3, [fp, #-16]
 c10a928:	e55b3011 	ldrb	r3, [fp, #-17]	; 0xffffffef
 c10a92c:	e2833030 	add	r3, r3, #48	; 0x30
 c10a930:	e20320ff 	and	r2, r3, #255	; 0xff
 c10a934:	e51b3010 	ldr	r3, [fp, #-16]
 c10a938:	e5c32000 	strb	r2, [r3]
 c10a93c:	ea000007 	b	c10a960 <uart0_puthex+0x8c>
 c10a940:	e51b3010 	ldr	r3, [fp, #-16]
 c10a944:	e2433001 	sub	r3, r3, #1
 c10a948:	e50b3010 	str	r3, [fp, #-16]
 c10a94c:	e55b3011 	ldrb	r3, [fp, #-17]	; 0xffffffef
 c10a950:	e2833057 	add	r3, r3, #87	; 0x57
 c10a954:	e20320ff 	and	r2, r3, #255	; 0xff
 c10a958:	e51b3010 	ldr	r3, [fp, #-16]
 c10a95c:	e5c32000 	strb	r2, [r3]
 c10a960:	e51b3020 	ldr	r3, [fp, #-32]	; 0xffffffe0
 c10a964:	e1a03223 	lsr	r3, r3, #4
 c10a968:	e50b3020 	str	r3, [fp, #-32]	; 0xffffffe0
 c10a96c:	e51b3020 	ldr	r3, [fp, #-32]	; 0xffffffe0
 c10a970:	e3530000 	cmp	r3, #0
 c10a974:	1affffe1 	bne	c10a900 <uart0_puthex+0x2c>
 c10a978:	e51b0010 	ldr	r0, [fp, #-16]
 c10a97c:	ebffff6b 	bl	c10a730 <uart0_puts>
 c10a980:	e24bd00c 	sub	sp, fp, #12
 c10a984:	e89d6800 	ldm	sp, {fp, sp, lr}
 c10a988:	e12fff1e 	bx	lr

0c10a98c <uart0_gets>:
 c10a98c:	e1a0c00d 	mov	ip, sp
 c10a990:	e92dd800 	push	{fp, ip, lr, pc}
 c10a994:	e24cb004 	sub	fp, ip, #4
 c10a998:	e24dd010 	sub	sp, sp, #16
 c10a99c:	e50b0018 	str	r0, [fp, #-24]	; 0xffffffe8
 c10a9a0:	ea000005 	b	c10a9bc <uart0_gets+0x30>
 c10a9a4:	e51b3018 	ldr	r3, [fp, #-24]	; 0xffffffe8
 c10a9a8:	e55b200d 	ldrb	r2, [fp, #-13]
 c10a9ac:	e5c32000 	strb	r2, [r3]
 c10a9b0:	e51b3018 	ldr	r3, [fp, #-24]	; 0xffffffe8
 c10a9b4:	e2833001 	add	r3, r3, #1
 c10a9b8:	e50b3018 	str	r3, [fp, #-24]	; 0xffffffe8
 c10a9bc:	ebffff47 	bl	c10a6e0 <uart0_getchar>
 c10a9c0:	e1a03000 	mov	r3, r0
 c10a9c4:	e54b300d 	strb	r3, [fp, #-13]
 c10a9c8:	e55b300d 	ldrb	r3, [fp, #-13]
 c10a9cc:	e353000a 	cmp	r3, #10
 c10a9d0:	1afffff3 	bne	c10a9a4 <uart0_gets+0x18>
 c10a9d4:	e51b3018 	ldr	r3, [fp, #-24]	; 0xffffffe8
 c10a9d8:	e3a02000 	mov	r2, #0
 c10a9dc:	e5c32000 	strb	r2, [r3]
 c10a9e0:	e24bd00c 	sub	sp, fp, #12
 c10a9e4:	e89d6800 	ldm	sp, {fp, sp, lr}
 c10a9e8:	e12fff1e 	bx	lr

0c10a9ec <uart0_getint>:
 c10a9ec:	e1a0c00d 	mov	ip, sp
 c10a9f0:	e92dd800 	push	{fp, ip, lr, pc}
 c10a9f4:	e24cb004 	sub	fp, ip, #4
 c10a9f8:	e24dde11 	sub	sp, sp, #272	; 0x110
 c10a9fc:	e24b3f46 	sub	r3, fp, #280	; 0x118
 c10aa00:	e50b3010 	str	r3, [fp, #-16]
 c10aa04:	e3a03000 	mov	r3, #0
 c10aa08:	e50b3014 	str	r3, [fp, #-20]	; 0xffffffec
 c10aa0c:	e3a03000 	mov	r3, #0
 c10aa10:	e54b3015 	strb	r3, [fp, #-21]	; 0xffffffeb
 c10aa14:	e24b3f46 	sub	r3, fp, #280	; 0x118
 c10aa18:	e1a00003 	mov	r0, r3
 c10aa1c:	ebffffda 	bl	c10a98c <uart0_gets>
 c10aa20:	e51b3010 	ldr	r3, [fp, #-16]
 c10aa24:	e5d33000 	ldrb	r3, [r3]
 c10aa28:	e353002d 	cmp	r3, #45	; 0x2d
 c10aa2c:	1a000014 	bne	c10aa84 <uart0_getint+0x98>
 c10aa30:	e3a03001 	mov	r3, #1
 c10aa34:	e54b3015 	strb	r3, [fp, #-21]	; 0xffffffeb
 c10aa38:	e51b3010 	ldr	r3, [fp, #-16]
 c10aa3c:	e2833001 	add	r3, r3, #1
 c10aa40:	e50b3010 	str	r3, [fp, #-16]
 c10aa44:	ea00000f 	b	c10aa88 <uart0_getint+0x9c>
 c10aa48:	e51b2014 	ldr	r2, [fp, #-20]	; 0xffffffec
 c10aa4c:	e1a03002 	mov	r3, r2
 c10aa50:	e1a03103 	lsl	r3, r3, #2
 c10aa54:	e0833002 	add	r3, r3, r2
 c10aa58:	e1a03083 	lsl	r3, r3, #1
 c10aa5c:	e1a02003 	mov	r2, r3
 c10aa60:	e51b3010 	ldr	r3, [fp, #-16]
 c10aa64:	e5d33000 	ldrb	r3, [r3]
 c10aa68:	e2433030 	sub	r3, r3, #48	; 0x30
 c10aa6c:	e0823003 	add	r3, r2, r3
 c10aa70:	e50b3014 	str	r3, [fp, #-20]	; 0xffffffec
 c10aa74:	e51b3010 	ldr	r3, [fp, #-16]
 c10aa78:	e2833001 	add	r3, r3, #1
 c10aa7c:	e50b3010 	str	r3, [fp, #-16]
 c10aa80:	ea000000 	b	c10aa88 <uart0_getint+0x9c>
 c10aa84:	e1a00000 	nop			; (mov r0, r0)
 c10aa88:	e51b3010 	ldr	r3, [fp, #-16]
 c10aa8c:	e5d33000 	ldrb	r3, [r3]
 c10aa90:	e3530000 	cmp	r3, #0
 c10aa94:	1affffeb 	bne	c10aa48 <uart0_getint+0x5c>
 c10aa98:	e55b3015 	ldrb	r3, [fp, #-21]	; 0xffffffeb
 c10aa9c:	e3530000 	cmp	r3, #0
 c10aaa0:	0a000002 	beq	c10aab0 <uart0_getint+0xc4>
 c10aaa4:	e51b3014 	ldr	r3, [fp, #-20]	; 0xffffffec
 c10aaa8:	e2633000 	rsb	r3, r3, #0
 c10aaac:	e50b3014 	str	r3, [fp, #-20]	; 0xffffffec
 c10aab0:	e51b3014 	ldr	r3, [fp, #-20]	; 0xffffffec
 c10aab4:	e1a00003 	mov	r0, r3
 c10aab8:	e24bd00c 	sub	sp, fp, #12
 c10aabc:	e89d6800 	ldm	sp, {fp, sp, lr}
 c10aac0:	e12fff1e 	bx	lr

0c10aac4 <uart0_gethex>:
 c10aac4:	e1a0c00d 	mov	ip, sp
 c10aac8:	e92dd800 	push	{fp, ip, lr, pc}
 c10aacc:	e24cb004 	sub	fp, ip, #4
 c10aad0:	e24ddf42 	sub	sp, sp, #264	; 0x108
 c10aad4:	e24b3f45 	sub	r3, fp, #276	; 0x114
 c10aad8:	e50b3010 	str	r3, [fp, #-16]
 c10aadc:	e3a03000 	mov	r3, #0
 c10aae0:	e50b3014 	str	r3, [fp, #-20]	; 0xffffffec
 c10aae4:	e24b3f45 	sub	r3, fp, #276	; 0x114
 c10aae8:	e1a00003 	mov	r0, r3
 c10aaec:	ebffffa6 	bl	c10a98c <uart0_gets>
 c10aaf0:	ea00002f 	b	c10abb4 <uart0_gethex+0xf0>
 c10aaf4:	e51b3010 	ldr	r3, [fp, #-16]
 c10aaf8:	e5d33000 	ldrb	r3, [r3]
 c10aafc:	e3530040 	cmp	r3, #64	; 0x40
 c10ab00:	9a00000e 	bls	c10ab40 <uart0_gethex+0x7c>
 c10ab04:	e51b3010 	ldr	r3, [fp, #-16]
 c10ab08:	e5d33000 	ldrb	r3, [r3]
 c10ab0c:	e3530046 	cmp	r3, #70	; 0x46
 c10ab10:	8a00000a 	bhi	c10ab40 <uart0_gethex+0x7c>
 c10ab14:	e51b3014 	ldr	r3, [fp, #-20]	; 0xffffffec
 c10ab18:	e1a02203 	lsl	r2, r3, #4
 c10ab1c:	e51b3010 	ldr	r3, [fp, #-16]
 c10ab20:	e5d33000 	ldrb	r3, [r3]
 c10ab24:	e0823003 	add	r3, r2, r3
 c10ab28:	e2433037 	sub	r3, r3, #55	; 0x37
 c10ab2c:	e50b3014 	str	r3, [fp, #-20]	; 0xffffffec
 c10ab30:	e51b3010 	ldr	r3, [fp, #-16]
 c10ab34:	e2833001 	add	r3, r3, #1
 c10ab38:	e50b3010 	str	r3, [fp, #-16]
 c10ab3c:	ea00001c 	b	c10abb4 <uart0_gethex+0xf0>
 c10ab40:	e51b3010 	ldr	r3, [fp, #-16]
 c10ab44:	e5d33000 	ldrb	r3, [r3]
 c10ab48:	e3530060 	cmp	r3, #96	; 0x60
 c10ab4c:	9a00000e 	bls	c10ab8c <uart0_gethex+0xc8>
 c10ab50:	e51b3010 	ldr	r3, [fp, #-16]
 c10ab54:	e5d33000 	ldrb	r3, [r3]
 c10ab58:	e3530066 	cmp	r3, #102	; 0x66
 c10ab5c:	8a00000a 	bhi	c10ab8c <uart0_gethex+0xc8>
 c10ab60:	e51b3014 	ldr	r3, [fp, #-20]	; 0xffffffec
 c10ab64:	e1a02203 	lsl	r2, r3, #4
 c10ab68:	e51b3010 	ldr	r3, [fp, #-16]
 c10ab6c:	e5d33000 	ldrb	r3, [r3]
 c10ab70:	e0823003 	add	r3, r2, r3
 c10ab74:	e2433057 	sub	r3, r3, #87	; 0x57
 c10ab78:	e50b3014 	str	r3, [fp, #-20]	; 0xffffffec
 c10ab7c:	e51b3010 	ldr	r3, [fp, #-16]
 c10ab80:	e2833001 	add	r3, r3, #1
 c10ab84:	e50b3010 	str	r3, [fp, #-16]
 c10ab88:	ea000009 	b	c10abb4 <uart0_gethex+0xf0>
 c10ab8c:	e51b3014 	ldr	r3, [fp, #-20]	; 0xffffffec
 c10ab90:	e1a02203 	lsl	r2, r3, #4
 c10ab94:	e51b3010 	ldr	r3, [fp, #-16]
 c10ab98:	e5d33000 	ldrb	r3, [r3]
 c10ab9c:	e0823003 	add	r3, r2, r3
 c10aba0:	e2433030 	sub	r3, r3, #48	; 0x30
 c10aba4:	e50b3014 	str	r3, [fp, #-20]	; 0xffffffec
 c10aba8:	e51b3010 	ldr	r3, [fp, #-16]
 c10abac:	e2833001 	add	r3, r3, #1
 c10abb0:	e50b3010 	str	r3, [fp, #-16]
 c10abb4:	e51b3010 	ldr	r3, [fp, #-16]
 c10abb8:	e5d33000 	ldrb	r3, [r3]
 c10abbc:	e3530000 	cmp	r3, #0
 c10abc0:	1affffcb 	bne	c10aaf4 <uart0_gethex+0x30>
 c10abc4:	e51b3014 	ldr	r3, [fp, #-20]	; 0xffffffec
 c10abc8:	e1a00003 	mov	r0, r3
 c10abcc:	e24bd00c 	sub	sp, fp, #12
 c10abd0:	e89d6800 	ldm	sp, {fp, sp, lr}
 c10abd4:	e12fff1e 	bx	lr

0c10abd8 <uda1341ts_init>:
 c10abd8:	e1a0c00d 	mov	ip, sp
 c10abdc:	e92dd800 	push	{fp, ip, lr, pc}
 c10abe0:	e24cb004 	sub	fp, ip, #4
 c10abe4:	eb000188 	bl	c10b20c <L3_init>
 c10abe8:	e3a00016 	mov	r0, #22
 c10abec:	e3a01000 	mov	r1, #0
 c10abf0:	eb0001b5 	bl	c10b2cc <L3_putByte>
 c10abf4:	e3a00060 	mov	r0, #96	; 0x60
 c10abf8:	e3a01001 	mov	r1, #1
 c10abfc:	eb0001b2 	bl	c10b2cc <L3_putByte>
 c10ac00:	e3a00020 	mov	r0, #32
 c10ac04:	e3a01001 	mov	r1, #1
 c10ac08:	eb0001af 	bl	c10b2cc <L3_putByte>
 c10ac0c:	e3a00014 	mov	r0, #20
 c10ac10:	e3a01000 	mov	r1, #0
 c10ac14:	eb0001ac 	bl	c10b2cc <L3_putByte>
 c10ac18:	e3a000c2 	mov	r0, #194	; 0xc2
 c10ac1c:	e3a01001 	mov	r1, #1
 c10ac20:	eb0001a9 	bl	c10b2cc <L3_putByte>
 c10ac24:	e3a000e1 	mov	r0, #225	; 0xe1
 c10ac28:	e3a01001 	mov	r1, #1
 c10ac2c:	eb0001a6 	bl	c10b2cc <L3_putByte>
 c10ac30:	e3a0003f 	mov	r0, #63	; 0x3f
 c10ac34:	eb000070 	bl	c10adfc <uda1341ts_setvol>
 c10ac38:	e3a00001 	mov	r0, #1
 c10ac3c:	eb000019 	bl	c10aca8 <uda1341ts_on>
 c10ac40:	e3a00002 	mov	r0, #2
 c10ac44:	eb000017 	bl	c10aca8 <uda1341ts_on>
 c10ac48:	e24bd00c 	sub	sp, fp, #12
 c10ac4c:	e89d6800 	ldm	sp, {fp, sp, lr}
 c10ac50:	e12fff1e 	bx	lr

0c10ac54 <uda1341ts_mute>:
 c10ac54:	e1a0c00d 	mov	ip, sp
 c10ac58:	e92dd800 	push	{fp, ip, lr, pc}
 c10ac5c:	e24cb004 	sub	fp, ip, #4
 c10ac60:	e24dd008 	sub	sp, sp, #8
 c10ac64:	e1a03000 	mov	r3, r0
 c10ac68:	e54b300d 	strb	r3, [fp, #-13]
 c10ac6c:	e3a00014 	mov	r0, #20
 c10ac70:	e3a01000 	mov	r1, #0
 c10ac74:	eb000194 	bl	c10b2cc <L3_putByte>
 c10ac78:	e55b300d 	ldrb	r3, [fp, #-13]
 c10ac7c:	e3530000 	cmp	r3, #0
 c10ac80:	0a000001 	beq	c10ac8c <uda1341ts_mute+0x38>
 c10ac84:	e3a03084 	mov	r3, #132	; 0x84
 c10ac88:	ea000000 	b	c10ac90 <uda1341ts_mute+0x3c>
 c10ac8c:	e3a03080 	mov	r3, #128	; 0x80
 c10ac90:	e1a00003 	mov	r0, r3
 c10ac94:	e3a01001 	mov	r1, #1
 c10ac98:	eb00018b 	bl	c10b2cc <L3_putByte>
 c10ac9c:	e24bd00c 	sub	sp, fp, #12
 c10aca0:	e89d6800 	ldm	sp, {fp, sp, lr}
 c10aca4:	e12fff1e 	bx	lr

0c10aca8 <uda1341ts_on>:
 c10aca8:	e1a0c00d 	mov	ip, sp
 c10acac:	e92dd800 	push	{fp, ip, lr, pc}
 c10acb0:	e24cb004 	sub	fp, ip, #4
 c10acb4:	e24dd008 	sub	sp, sp, #8
 c10acb8:	e1a03000 	mov	r3, r0
 c10acbc:	e54b300d 	strb	r3, [fp, #-13]
 c10acc0:	e59f3050 	ldr	r3, [pc, #80]	; c10ad18 <uda1341ts_on+0x70>
 c10acc4:	e5d32000 	ldrb	r2, [r3]
 c10acc8:	e55b300d 	ldrb	r3, [fp, #-13]
 c10accc:	e1823003 	orr	r3, r2, r3
 c10acd0:	e20320ff 	and	r2, r3, #255	; 0xff
 c10acd4:	e59f303c 	ldr	r3, [pc, #60]	; c10ad18 <uda1341ts_on+0x70>
 c10acd8:	e5c32000 	strb	r2, [r3]
 c10acdc:	e3a00016 	mov	r0, #22
 c10ace0:	e3a01000 	mov	r1, #0
 c10ace4:	eb000178 	bl	c10b2cc <L3_putByte>
 c10ace8:	e59f3028 	ldr	r3, [pc, #40]	; c10ad18 <uda1341ts_on+0x70>
 c10acec:	e5d33000 	ldrb	r3, [r3]
 c10acf0:	e1e03003 	mvn	r3, r3
 c10acf4:	e203305f 	and	r3, r3, #95	; 0x5f
 c10acf8:	e1e03003 	mvn	r3, r3
 c10acfc:	e20330ff 	and	r3, r3, #255	; 0xff
 c10ad00:	e1a00003 	mov	r0, r3
 c10ad04:	e3a01001 	mov	r1, #1
 c10ad08:	eb00016f 	bl	c10b2cc <L3_putByte>
 c10ad0c:	e24bd00c 	sub	sp, fp, #12
 c10ad10:	e89d6800 	ldm	sp, {fp, sp, lr}
 c10ad14:	e12fff1e 	bx	lr
 c10ad18:	0c117a73 	.word	0x0c117a73

0c10ad1c <uda1341ts_off>:
 c10ad1c:	e1a0c00d 	mov	ip, sp
 c10ad20:	e92dd800 	push	{fp, ip, lr, pc}
 c10ad24:	e24cb004 	sub	fp, ip, #4
 c10ad28:	e24dd008 	sub	sp, sp, #8
 c10ad2c:	e1a03000 	mov	r3, r0
 c10ad30:	e54b300d 	strb	r3, [fp, #-13]
 c10ad34:	e55b300d 	ldrb	r3, [fp, #-13]
 c10ad38:	e1e03003 	mvn	r3, r3
 c10ad3c:	e20320ff 	and	r2, r3, #255	; 0xff
 c10ad40:	e59f3054 	ldr	r3, [pc, #84]	; c10ad9c <uda1341ts_off+0x80>
 c10ad44:	e5d33000 	ldrb	r3, [r3]
 c10ad48:	e20330ff 	and	r3, r3, #255	; 0xff
 c10ad4c:	e0023003 	and	r3, r2, r3
 c10ad50:	e20330ff 	and	r3, r3, #255	; 0xff
 c10ad54:	e20320ff 	and	r2, r3, #255	; 0xff
 c10ad58:	e59f303c 	ldr	r3, [pc, #60]	; c10ad9c <uda1341ts_off+0x80>
 c10ad5c:	e5c32000 	strb	r2, [r3]
 c10ad60:	e3a00016 	mov	r0, #22
 c10ad64:	e3a01000 	mov	r1, #0
 c10ad68:	eb000157 	bl	c10b2cc <L3_putByte>
 c10ad6c:	e59f3028 	ldr	r3, [pc, #40]	; c10ad9c <uda1341ts_off+0x80>
 c10ad70:	e5d33000 	ldrb	r3, [r3]
 c10ad74:	e1e03003 	mvn	r3, r3
 c10ad78:	e203305f 	and	r3, r3, #95	; 0x5f
 c10ad7c:	e1e03003 	mvn	r3, r3
 c10ad80:	e20330ff 	and	r3, r3, #255	; 0xff
 c10ad84:	e1a00003 	mov	r0, r3
 c10ad88:	e3a01001 	mov	r1, #1
 c10ad8c:	eb00014e 	bl	c10b2cc <L3_putByte>
 c10ad90:	e24bd00c 	sub	sp, fp, #12
 c10ad94:	e89d6800 	ldm	sp, {fp, sp, lr}
 c10ad98:	e12fff1e 	bx	lr
 c10ad9c:	0c117a73 	.word	0x0c117a73

0c10ada0 <uda1341ts_status>:
 c10ada0:	e1a0c00d 	mov	ip, sp
 c10ada4:	e92dd800 	push	{fp, ip, lr, pc}
 c10ada8:	e24cb004 	sub	fp, ip, #4
 c10adac:	e24dd008 	sub	sp, sp, #8
 c10adb0:	e1a03000 	mov	r3, r0
 c10adb4:	e54b300d 	strb	r3, [fp, #-13]
 c10adb8:	e59f3038 	ldr	r3, [pc, #56]	; c10adf8 <uda1341ts_status+0x58>
 c10adbc:	e5d32000 	ldrb	r2, [r3]
 c10adc0:	e55b300d 	ldrb	r3, [fp, #-13]
 c10adc4:	e0023003 	and	r3, r2, r3
 c10adc8:	e20330ff 	and	r3, r3, #255	; 0xff
 c10adcc:	e1a02003 	mov	r2, r3
 c10add0:	e55b300d 	ldrb	r3, [fp, #-13]
 c10add4:	e3530002 	cmp	r3, #2
 c10add8:	13a03000 	movne	r3, #0
 c10addc:	03a03001 	moveq	r3, #1
 c10ade0:	e1a03352 	asr	r3, r2, r3
 c10ade4:	e20330ff 	and	r3, r3, #255	; 0xff
 c10ade8:	e1a00003 	mov	r0, r3
 c10adec:	e24bd00c 	sub	sp, fp, #12
 c10adf0:	e89d6800 	ldm	sp, {fp, sp, lr}
 c10adf4:	e12fff1e 	bx	lr
 c10adf8:	0c117a73 	.word	0x0c117a73

0c10adfc <uda1341ts_setvol>:
 c10adfc:	e1a0c00d 	mov	ip, sp
 c10ae00:	e92dd800 	push	{fp, ip, lr, pc}
 c10ae04:	e24cb004 	sub	fp, ip, #4
 c10ae08:	e24dd008 	sub	sp, sp, #8
 c10ae0c:	e1a03000 	mov	r3, r0
 c10ae10:	e54b300d 	strb	r3, [fp, #-13]
 c10ae14:	e55b300d 	ldrb	r3, [fp, #-13]
 c10ae18:	e203303f 	and	r3, r3, #63	; 0x3f
 c10ae1c:	e20320ff 	and	r2, r3, #255	; 0xff
 c10ae20:	e59f3034 	ldr	r3, [pc, #52]	; c10ae5c <uda1341ts_setvol+0x60>
 c10ae24:	e5c32000 	strb	r2, [r3]
 c10ae28:	e3a00014 	mov	r0, #20
 c10ae2c:	e3a01000 	mov	r1, #0
 c10ae30:	eb000125 	bl	c10b2cc <L3_putByte>
 c10ae34:	e59f3020 	ldr	r3, [pc, #32]	; c10ae5c <uda1341ts_setvol+0x60>
 c10ae38:	e5d33000 	ldrb	r3, [r3]
 c10ae3c:	e263303f 	rsb	r3, r3, #63	; 0x3f
 c10ae40:	e20330ff 	and	r3, r3, #255	; 0xff
 c10ae44:	e1a00003 	mov	r0, r3
 c10ae48:	e3a01001 	mov	r1, #1
 c10ae4c:	eb00011e 	bl	c10b2cc <L3_putByte>
 c10ae50:	e24bd00c 	sub	sp, fp, #12
 c10ae54:	e89d6800 	ldm	sp, {fp, sp, lr}
 c10ae58:	e12fff1e 	bx	lr
 c10ae5c:	0c117a72 	.word	0x0c117a72

0c10ae60 <uda1341ts_getvol>:
 c10ae60:	e1a0c00d 	mov	ip, sp
 c10ae64:	e92dd800 	push	{fp, ip, lr, pc}
 c10ae68:	e24cb004 	sub	fp, ip, #4
 c10ae6c:	e59f3010 	ldr	r3, [pc, #16]	; c10ae84 <uda1341ts_getvol+0x24>
 c10ae70:	e5d33000 	ldrb	r3, [r3]
 c10ae74:	e1a00003 	mov	r0, r3
 c10ae78:	e24bd00c 	sub	sp, fp, #12
 c10ae7c:	e89d6800 	ldm	sp, {fp, sp, lr}
 c10ae80:	e12fff1e 	bx	lr
 c10ae84:	0c117a72 	.word	0x0c117a72

0c10ae88 <adc_on>:
 c10ae88:	e1a0c00d 	mov	ip, sp
 c10ae8c:	e92dd800 	push	{fp, ip, lr, pc}
 c10ae90:	e24cb004 	sub	fp, ip, #4
 c10ae94:	e3a0000c 	mov	r0, #12
 c10ae98:	ebffef5e 	bl	c106c18 <power_on>
 c10ae9c:	e3a03775 	mov	r3, #30670848	; 0x1d40000
 c10aea0:	e3a02775 	mov	r2, #30670848	; 0x1d40000
 c10aea4:	e5922000 	ldr	r2, [r2]
 c10aea8:	e3c22020 	bic	r2, r2, #32
 c10aeac:	e5832000 	str	r2, [r3]
 c10aeb0:	e3a0000a 	mov	r0, #10
 c10aeb4:	ebfff91c 	bl	c10932c <sw_delay_ms>
 c10aeb8:	e59f3010 	ldr	r3, [pc, #16]	; c10aed0 <adc_on+0x48>
 c10aebc:	e3a02001 	mov	r2, #1
 c10aec0:	e5c32000 	strb	r2, [r3]
 c10aec4:	e24bd00c 	sub	sp, fp, #12
 c10aec8:	e89d6800 	ldm	sp, {fp, sp, lr}
 c10aecc:	e12fff1e 	bx	lr
 c10aed0:	0c117a74 	.word	0x0c117a74

0c10aed4 <adc_off>:
 c10aed4:	e1a0c00d 	mov	ip, sp
 c10aed8:	e92dd800 	push	{fp, ip, lr, pc}
 c10aedc:	e24cb004 	sub	fp, ip, #4
 c10aee0:	e3a03775 	mov	r3, #30670848	; 0x1d40000
 c10aee4:	e3a02775 	mov	r2, #30670848	; 0x1d40000
 c10aee8:	e5922000 	ldr	r2, [r2]
 c10aeec:	e3822020 	orr	r2, r2, #32
 c10aef0:	e5832000 	str	r2, [r3]
 c10aef4:	e3a0000c 	mov	r0, #12
 c10aef8:	ebffef7e 	bl	c106cf8 <power_off>
 c10aefc:	e59f3010 	ldr	r3, [pc, #16]	; c10af14 <adc_off+0x40>
 c10af00:	e3a02000 	mov	r2, #0
 c10af04:	e5c32000 	strb	r2, [r3]
 c10af08:	e24bd00c 	sub	sp, fp, #12
 c10af0c:	e89d6800 	ldm	sp, {fp, sp, lr}
 c10af10:	e12fff1e 	bx	lr
 c10af14:	0c117a74 	.word	0x0c117a74

0c10af18 <adc_status>:
 c10af18:	e1a0c00d 	mov	ip, sp
 c10af1c:	e92dd800 	push	{fp, ip, lr, pc}
 c10af20:	e24cb004 	sub	fp, ip, #4
 c10af24:	e59f3010 	ldr	r3, [pc, #16]	; c10af3c <adc_status+0x24>
 c10af28:	e5d33000 	ldrb	r3, [r3]
 c10af2c:	e1a00003 	mov	r0, r3
 c10af30:	e24bd00c 	sub	sp, fp, #12
 c10af34:	e89d6800 	ldm	sp, {fp, sp, lr}
 c10af38:	e12fff1e 	bx	lr
 c10af3c:	0c117a74 	.word	0x0c117a74

0c10af40 <adc_open>:
 c10af40:	e1a0c00d 	mov	ip, sp
 c10af44:	e92dd800 	push	{fp, ip, lr, pc}
 c10af48:	e24cb004 	sub	fp, ip, #4
 c10af4c:	e24dd008 	sub	sp, sp, #8
 c10af50:	e50b0010 	str	r0, [fp, #-16]
 c10af54:	e59f3030 	ldr	r3, [pc, #48]	; c10af8c <adc_open+0x4c>
 c10af58:	e51b2010 	ldr	r2, [fp, #-16]
 c10af5c:	e5832000 	str	r2, [r3]
 c10af60:	e59f3028 	ldr	r3, [pc, #40]	; c10af90 <adc_open+0x50>
 c10af64:	e3a02001 	mov	r2, #1
 c10af68:	e5832000 	str	r2, [r3]
 c10af6c:	e59f3020 	ldr	r3, [pc, #32]	; c10af94 <adc_open+0x54>
 c10af70:	e59f201c 	ldr	r2, [pc, #28]	; c10af94 <adc_open+0x54>
 c10af74:	e5922000 	ldr	r2, [r2]
 c10af78:	e3c22341 	bic	r2, r2, #67108865	; 0x4000001
 c10af7c:	e5832000 	str	r2, [r3]
 c10af80:	e24bd00c 	sub	sp, fp, #12
 c10af84:	e89d6800 	ldm	sp, {fp, sp, lr}
 c10af88:	e12fff1e 	bx	lr
 c10af8c:	0c7fff20 	.word	0x0c7fff20
 c10af90:	01e00024 	.word	0x01e00024
 c10af94:	01e0000c 	.word	0x01e0000c

0c10af98 <adc_close>:
 c10af98:	e1a0c00d 	mov	ip, sp
 c10af9c:	e92dd800 	push	{fp, ip, lr, pc}
 c10afa0:	e24cb004 	sub	fp, ip, #4
 c10afa4:	e59f3024 	ldr	r3, [pc, #36]	; c10afd0 <adc_close+0x38>
 c10afa8:	e59f2020 	ldr	r2, [pc, #32]	; c10afd0 <adc_close+0x38>
 c10afac:	e5922000 	ldr	r2, [r2]
 c10afb0:	e3822001 	orr	r2, r2, #1
 c10afb4:	e5832000 	str	r2, [r3]
 c10afb8:	e59f3014 	ldr	r3, [pc, #20]	; c10afd4 <adc_close+0x3c>
 c10afbc:	e59f2014 	ldr	r2, [pc, #20]	; c10afd8 <adc_close+0x40>
 c10afc0:	e5832000 	str	r2, [r3]
 c10afc4:	e24bd00c 	sub	sp, fp, #12
 c10afc8:	e89d6800 	ldm	sp, {fp, sp, lr}
 c10afcc:	e12fff1e 	bx	lr
 c10afd0:	01e0000c 	.word	0x01e0000c
 c10afd4:	0c7fff20 	.word	0x0c7fff20
 c10afd8:	0c1082c8 	.word	0x0c1082c8

0c10afdc <adc_init>:
 c10afdc:	e1a0c00d 	mov	ip, sp
 c10afe0:	e92dd800 	push	{fp, ip, lr, pc}
 c10afe4:	e24cb004 	sub	fp, ip, #4
 c10afe8:	e59f3028 	ldr	r3, [pc, #40]	; c10b018 <adc_init+0x3c>
 c10afec:	e59f2024 	ldr	r2, [pc, #36]	; c10b018 <adc_init+0x3c>
 c10aff0:	e5922000 	ldr	r2, [r2]
 c10aff4:	e3822d42 	orr	r2, r2, #4224	; 0x1080
 c10aff8:	e5832000 	str	r2, [r3]
 c10affc:	e59f3018 	ldr	r3, [pc, #24]	; c10b01c <adc_init+0x40>
 c10b000:	e3a02013 	mov	r2, #19
 c10b004:	e5832000 	str	r2, [r3]
 c10b008:	ebffffb1 	bl	c10aed4 <adc_off>
 c10b00c:	e24bd00c 	sub	sp, fp, #12
 c10b010:	e89d6800 	ldm	sp, {fp, sp, lr}
 c10b014:	e12fff1e 	bx	lr
 c10b018:	01d80004 	.word	0x01d80004
 c10b01c:	01d40004 	.word	0x01d40004

0c10b020 <adc_getSample>:
 c10b020:	e1a0c00d 	mov	ip, sp
 c10b024:	e92dd800 	push	{fp, ip, lr, pc}
 c10b028:	e24cb004 	sub	fp, ip, #4
 c10b02c:	e24dd010 	sub	sp, sp, #16
 c10b030:	e1a03000 	mov	r3, r0
 c10b034:	e54b3015 	strb	r3, [fp, #-21]	; 0xffffffeb
 c10b038:	e3a03775 	mov	r3, #30670848	; 0x1d40000
 c10b03c:	e55b2015 	ldrb	r2, [fp, #-21]	; 0xffffffeb
 c10b040:	e1a02102 	lsl	r2, r2, #2
 c10b044:	e5832000 	str	r2, [r3]
 c10b048:	e3a0000a 	mov	r0, #10
 c10b04c:	ebfff8b6 	bl	c10932c <sw_delay_ms>
 c10b050:	e3a03000 	mov	r3, #0
 c10b054:	e54b3011 	strb	r3, [fp, #-17]	; 0xffffffef
 c10b058:	e3a03000 	mov	r3, #0
 c10b05c:	e50b3010 	str	r3, [fp, #-16]
 c10b060:	ea00001b 	b	c10b0d4 <adc_getSample+0xb4>
 c10b064:	e3a03775 	mov	r3, #30670848	; 0x1d40000
 c10b068:	e3a02775 	mov	r2, #30670848	; 0x1d40000
 c10b06c:	e5922000 	ldr	r2, [r2]
 c10b070:	e3822001 	orr	r2, r2, #1
 c10b074:	e5832000 	str	r2, [r3]
 c10b078:	e1a00000 	nop			; (mov r0, r0)
 c10b07c:	e3a03775 	mov	r3, #30670848	; 0x1d40000
 c10b080:	e5933000 	ldr	r3, [r3]
 c10b084:	e2033001 	and	r3, r3, #1
 c10b088:	e20330ff 	and	r3, r3, #255	; 0xff
 c10b08c:	e3530000 	cmp	r3, #0
 c10b090:	1afffff9 	bne	c10b07c <adc_getSample+0x5c>
 c10b094:	e1a00000 	nop			; (mov r0, r0)
 c10b098:	e3a03775 	mov	r3, #30670848	; 0x1d40000
 c10b09c:	e5933000 	ldr	r3, [r3]
 c10b0a0:	e2033040 	and	r3, r3, #64	; 0x40
 c10b0a4:	e3530000 	cmp	r3, #0
 c10b0a8:	0afffffa 	beq	c10b098 <adc_getSample+0x78>
 c10b0ac:	e59f3054 	ldr	r3, [pc, #84]	; c10b108 <adc_getSample+0xe8>
 c10b0b0:	e5933000 	ldr	r3, [r3]
 c10b0b4:	e1a03b03 	lsl	r3, r3, #22
 c10b0b8:	e1a03b23 	lsr	r3, r3, #22
 c10b0bc:	e51b2010 	ldr	r2, [fp, #-16]
 c10b0c0:	e0823003 	add	r3, r2, r3
 c10b0c4:	e50b3010 	str	r3, [fp, #-16]
 c10b0c8:	e55b3011 	ldrb	r3, [fp, #-17]	; 0xffffffef
 c10b0cc:	e2833001 	add	r3, r3, #1
 c10b0d0:	e54b3011 	strb	r3, [fp, #-17]	; 0xffffffef
 c10b0d4:	e55b3011 	ldrb	r3, [fp, #-17]	; 0xffffffef
 c10b0d8:	e3530004 	cmp	r3, #4
 c10b0dc:	9affffe0 	bls	c10b064 <adc_getSample+0x44>
 c10b0e0:	e51b2010 	ldr	r2, [fp, #-16]
 c10b0e4:	e59f3020 	ldr	r3, [pc, #32]	; c10b10c <adc_getSample+0xec>
 c10b0e8:	e0831392 	umull	r1, r3, r2, r3
 c10b0ec:	e1a03123 	lsr	r3, r3, #2
 c10b0f0:	e1a03803 	lsl	r3, r3, #16
 c10b0f4:	e1a03823 	lsr	r3, r3, #16
 c10b0f8:	e1a00003 	mov	r0, r3
 c10b0fc:	e24bd00c 	sub	sp, fp, #12
 c10b100:	e89d6800 	ldm	sp, {fp, sp, lr}
 c10b104:	e12fff1e 	bx	lr
 c10b108:	01d40008 	.word	0x01d40008
 c10b10c:	cccccccd 	.word	0xcccccccd

0c10b110 <bdma0_init>:
 c10b110:	e1a0c00d 	mov	ip, sp
 c10b114:	e92dd800 	push	{fp, ip, lr, pc}
 c10b118:	e24cb004 	sub	fp, ip, #4
 c10b11c:	e3a00007 	mov	r0, #7
 c10b120:	ebffeebc 	bl	c106c18 <power_on>
 c10b124:	e3a0377e 	mov	r3, #33030144	; 0x1f80000
 c10b128:	e3a02000 	mov	r2, #0
 c10b12c:	e5832000 	str	r2, [r3]
 c10b130:	e59f3028 	ldr	r3, [pc, #40]	; c10b160 <bdma0_init+0x50>
 c10b134:	e3a02000 	mov	r2, #0
 c10b138:	e5832000 	str	r2, [r3]
 c10b13c:	e59f3020 	ldr	r3, [pc, #32]	; c10b164 <bdma0_init+0x54>
 c10b140:	e3a02000 	mov	r2, #0
 c10b144:	e5832000 	str	r2, [r3]
 c10b148:	e59f3018 	ldr	r3, [pc, #24]	; c10b168 <bdma0_init+0x58>
 c10b14c:	e3a02000 	mov	r2, #0
 c10b150:	e5832000 	str	r2, [r3]
 c10b154:	e24bd00c 	sub	sp, fp, #12
 c10b158:	e89d6800 	ldm	sp, {fp, sp, lr}
 c10b15c:	e12fff1e 	bx	lr
 c10b160:	01f80004 	.word	0x01f80004
 c10b164:	01f80008 	.word	0x01f80008
 c10b168:	01f8000c 	.word	0x01f8000c

0c10b16c <bdma0_open>:
 c10b16c:	e1a0c00d 	mov	ip, sp
 c10b170:	e92dd800 	push	{fp, ip, lr, pc}
 c10b174:	e24cb004 	sub	fp, ip, #4
 c10b178:	e24dd008 	sub	sp, sp, #8
 c10b17c:	e50b0010 	str	r0, [fp, #-16]
 c10b180:	e59f3034 	ldr	r3, [pc, #52]	; c10b1bc <bdma0_open+0x50>
 c10b184:	e51b2010 	ldr	r2, [fp, #-16]
 c10b188:	e5832000 	str	r2, [r3]
 c10b18c:	e59f302c 	ldr	r3, [pc, #44]	; c10b1c0 <bdma0_open+0x54>
 c10b190:	e3a02802 	mov	r2, #131072	; 0x20000
 c10b194:	e5832000 	str	r2, [r3]
 c10b198:	e59f2024 	ldr	r2, [pc, #36]	; c10b1c4 <bdma0_open+0x58>
 c10b19c:	e59f3020 	ldr	r3, [pc, #32]	; c10b1c4 <bdma0_open+0x58>
 c10b1a0:	e5933000 	ldr	r3, [r3]
 c10b1a4:	e3c33301 	bic	r3, r3, #67108864	; 0x4000000
 c10b1a8:	e3c33802 	bic	r3, r3, #131072	; 0x20000
 c10b1ac:	e5823000 	str	r3, [r2]
 c10b1b0:	e24bd00c 	sub	sp, fp, #12
 c10b1b4:	e89d6800 	ldm	sp, {fp, sp, lr}
 c10b1b8:	e12fff1e 	bx	lr
 c10b1bc:	0c7fff64 	.word	0x0c7fff64
 c10b1c0:	01e00024 	.word	0x01e00024
 c10b1c4:	01e0000c 	.word	0x01e0000c

0c10b1c8 <bdma0_close>:
 c10b1c8:	e1a0c00d 	mov	ip, sp
 c10b1cc:	e92dd800 	push	{fp, ip, lr, pc}
 c10b1d0:	e24cb004 	sub	fp, ip, #4
 c10b1d4:	e59f3024 	ldr	r3, [pc, #36]	; c10b200 <bdma0_close+0x38>
 c10b1d8:	e59f2020 	ldr	r2, [pc, #32]	; c10b200 <bdma0_close+0x38>
 c10b1dc:	e5922000 	ldr	r2, [r2]
 c10b1e0:	e3822802 	orr	r2, r2, #131072	; 0x20000
 c10b1e4:	e5832000 	str	r2, [r3]
 c10b1e8:	e59f3014 	ldr	r3, [pc, #20]	; c10b204 <bdma0_close+0x3c>
 c10b1ec:	e59f2014 	ldr	r2, [pc, #20]	; c10b208 <bdma0_close+0x40>
 c10b1f0:	e5832000 	str	r2, [r3]
 c10b1f4:	e24bd00c 	sub	sp, fp, #12
 c10b1f8:	e89d6800 	ldm	sp, {fp, sp, lr}
 c10b1fc:	e12fff1e 	bx	lr
 c10b200:	01e0000c 	.word	0x01e0000c
 c10b204:	0c7fff60 	.word	0x0c7fff60
 c10b208:	0c108790 	.word	0x0c108790

0c10b20c <L3_init>:
 c10b20c:	e1a0c00d 	mov	ip, sp
 c10b210:	e92dd800 	push	{fp, ip, lr, pc}
 c10b214:	e24cb004 	sub	fp, ip, #4
 c10b218:	e24dd008 	sub	sp, sp, #8
 c10b21c:	e3a00002 	mov	r0, #2
 c10b220:	ebffed71 	bl	c1067ec <led_status>
 c10b224:	e1a03000 	mov	r3, r0
 c10b228:	e3530000 	cmp	r3, #0
 c10b22c:	13a03000 	movne	r3, #0
 c10b230:	03a03001 	moveq	r3, #1
 c10b234:	e54b300d 	strb	r3, [fp, #-13]
 c10b238:	e3a00001 	mov	r0, #1
 c10b23c:	ebffed6a 	bl	c1067ec <led_status>
 c10b240:	e1a03000 	mov	r3, r0
 c10b244:	e3530000 	cmp	r3, #0
 c10b248:	13a03000 	movne	r3, #0
 c10b24c:	03a03001 	moveq	r3, #1
 c10b250:	e54b300e 	strb	r3, [fp, #-14]
 c10b254:	e59f3060 	ldr	r3, [pc, #96]	; c10b2bc <L3_init+0xb0>
 c10b258:	e59f205c 	ldr	r2, [pc, #92]	; c10b2bc <L3_init+0xb0>
 c10b25c:	e5922000 	ldr	r2, [r2]
 c10b260:	e3822d12 	orr	r2, r2, #1152	; 0x480
 c10b264:	e5832000 	str	r2, [r3]
 c10b268:	e59f3050 	ldr	r3, [pc, #80]	; c10b2c0 <L3_init+0xb4>
 c10b26c:	e59f204c 	ldr	r2, [pc, #76]	; c10b2c0 <L3_init+0xb4>
 c10b270:	e5922000 	ldr	r2, [r2]
 c10b274:	e3c22c02 	bic	r2, r2, #512	; 0x200
 c10b278:	e5832000 	str	r2, [r3]
 c10b27c:	e59f3040 	ldr	r3, [pc, #64]	; c10b2c4 <L3_init+0xb8>
 c10b280:	e59f203c 	ldr	r2, [pc, #60]	; c10b2c4 <L3_init+0xb8>
 c10b284:	e5922000 	ldr	r2, [r2]
 c10b288:	e3c22030 	bic	r2, r2, #48	; 0x30
 c10b28c:	e5832000 	str	r2, [r3]
 c10b290:	e59f3030 	ldr	r3, [pc, #48]	; c10b2c8 <L3_init+0xbc>
 c10b294:	e55b200d 	ldrb	r2, [fp, #-13]
 c10b298:	e1a01502 	lsl	r1, r2, #10
 c10b29c:	e55b200e 	ldrb	r2, [fp, #-14]
 c10b2a0:	e1a02482 	lsl	r2, r2, #9
 c10b2a4:	e1812002 	orr	r2, r1, r2
 c10b2a8:	e3822030 	orr	r2, r2, #48	; 0x30
 c10b2ac:	e5832000 	str	r2, [r3]
 c10b2b0:	e24bd00c 	sub	sp, fp, #12
 c10b2b4:	e89d6800 	ldm	sp, {fp, sp, lr}
 c10b2b8:	e12fff1e 	bx	lr
 c10b2bc:	01d80004 	.word	0x01d80004
 c10b2c0:	01d20000 	.word	0x01d20000
 c10b2c4:	01d20008 	.word	0x01d20008
 c10b2c8:	01d2000c 	.word	0x01d2000c

0c10b2cc <L3_putByte>:
 c10b2cc:	e1a0c00d 	mov	ip, sp
 c10b2d0:	e92dd800 	push	{fp, ip, lr, pc}
 c10b2d4:	e24cb004 	sub	fp, ip, #4
 c10b2d8:	e24dd010 	sub	sp, sp, #16
 c10b2dc:	e1a02000 	mov	r2, r0
 c10b2e0:	e1a03001 	mov	r3, r1
 c10b2e4:	e54b2015 	strb	r2, [fp, #-21]	; 0xffffffeb
 c10b2e8:	e54b3016 	strb	r3, [fp, #-22]	; 0xffffffea
 c10b2ec:	e3a00002 	mov	r0, #2
 c10b2f0:	ebffed3d 	bl	c1067ec <led_status>
 c10b2f4:	e1a03000 	mov	r3, r0
 c10b2f8:	e3530000 	cmp	r3, #0
 c10b2fc:	13a03000 	movne	r3, #0
 c10b300:	03a03001 	moveq	r3, #1
 c10b304:	e54b3011 	strb	r3, [fp, #-17]	; 0xffffffef
 c10b308:	e3a00001 	mov	r0, #1
 c10b30c:	ebffed36 	bl	c1067ec <led_status>
 c10b310:	e1a03000 	mov	r3, r0
 c10b314:	e3530000 	cmp	r3, #0
 c10b318:	13a03000 	movne	r3, #0
 c10b31c:	03a03001 	moveq	r3, #1
 c10b320:	e54b3012 	strb	r3, [fp, #-18]	; 0xffffffee
 c10b324:	e59f314c 	ldr	r3, [pc, #332]	; c10b478 <L3_putByte+0x1ac>
 c10b328:	e55b2011 	ldrb	r2, [fp, #-17]	; 0xffffffef
 c10b32c:	e1a01502 	lsl	r1, r2, #10
 c10b330:	e55b2012 	ldrb	r2, [fp, #-18]	; 0xffffffee
 c10b334:	e1a02482 	lsl	r2, r2, #9
 c10b338:	e1812002 	orr	r2, r1, r2
 c10b33c:	e3821020 	orr	r1, r2, #32
 c10b340:	e55b2016 	ldrb	r2, [fp, #-22]	; 0xffffffea
 c10b344:	e1a02202 	lsl	r2, r2, #4
 c10b348:	e1812002 	orr	r2, r1, r2
 c10b34c:	e5832000 	str	r2, [r3]
 c10b350:	e3a03000 	mov	r3, #0
 c10b354:	e54b300e 	strb	r3, [fp, #-14]
 c10b358:	ea000002 	b	c10b368 <L3_putByte+0x9c>
 c10b35c:	e55b300e 	ldrb	r3, [fp, #-14]
 c10b360:	e2833001 	add	r3, r3, #1
 c10b364:	e54b300e 	strb	r3, [fp, #-14]
 c10b368:	e15b30de 	ldrsb	r3, [fp, #-14]
 c10b36c:	e3530003 	cmp	r3, #3
 c10b370:	dafffff9 	ble	c10b35c <L3_putByte+0x90>
 c10b374:	e3a03000 	mov	r3, #0
 c10b378:	e54b300d 	strb	r3, [fp, #-13]
 c10b37c:	ea00002f 	b	c10b440 <L3_putByte+0x174>
 c10b380:	e59f30f0 	ldr	r3, [pc, #240]	; c10b478 <L3_putByte+0x1ac>
 c10b384:	e55b2011 	ldrb	r2, [fp, #-17]	; 0xffffffef
 c10b388:	e1a01502 	lsl	r1, r2, #10
 c10b38c:	e55b2012 	ldrb	r2, [fp, #-18]	; 0xffffffee
 c10b390:	e1a02482 	lsl	r2, r2, #9
 c10b394:	e1811002 	orr	r1, r1, r2
 c10b398:	e55b2016 	ldrb	r2, [fp, #-22]	; 0xffffffea
 c10b39c:	e1a02202 	lsl	r2, r2, #4
 c10b3a0:	e1812002 	orr	r2, r1, r2
 c10b3a4:	e5832000 	str	r2, [r3]
 c10b3a8:	e59f30cc 	ldr	r3, [pc, #204]	; c10b47c <L3_putByte+0x1b0>
 c10b3ac:	e55b1015 	ldrb	r1, [fp, #-21]	; 0xffffffeb
 c10b3b0:	e55b200d 	ldrb	r2, [fp, #-13]
 c10b3b4:	e1a02251 	asr	r2, r1, r2
 c10b3b8:	e1a02482 	lsl	r2, r2, #9
 c10b3bc:	e5832000 	str	r2, [r3]
 c10b3c0:	e3a03000 	mov	r3, #0
 c10b3c4:	e54b300f 	strb	r3, [fp, #-15]
 c10b3c8:	ea000002 	b	c10b3d8 <L3_putByte+0x10c>
 c10b3cc:	e55b300f 	ldrb	r3, [fp, #-15]
 c10b3d0:	e2833001 	add	r3, r3, #1
 c10b3d4:	e54b300f 	strb	r3, [fp, #-15]
 c10b3d8:	e15b30df 	ldrsb	r3, [fp, #-15]
 c10b3dc:	e3530003 	cmp	r3, #3
 c10b3e0:	dafffff9 	ble	c10b3cc <L3_putByte+0x100>
 c10b3e4:	e59f308c 	ldr	r3, [pc, #140]	; c10b478 <L3_putByte+0x1ac>
 c10b3e8:	e55b2011 	ldrb	r2, [fp, #-17]	; 0xffffffef
 c10b3ec:	e1a01502 	lsl	r1, r2, #10
 c10b3f0:	e55b2012 	ldrb	r2, [fp, #-18]	; 0xffffffee
 c10b3f4:	e1a02482 	lsl	r2, r2, #9
 c10b3f8:	e1812002 	orr	r2, r1, r2
 c10b3fc:	e3821020 	orr	r1, r2, #32
 c10b400:	e55b2016 	ldrb	r2, [fp, #-22]	; 0xffffffea
 c10b404:	e1a02202 	lsl	r2, r2, #4
 c10b408:	e1812002 	orr	r2, r1, r2
 c10b40c:	e5832000 	str	r2, [r3]
 c10b410:	e3a03000 	mov	r3, #0
 c10b414:	e54b3010 	strb	r3, [fp, #-16]
 c10b418:	ea000002 	b	c10b428 <L3_putByte+0x15c>
 c10b41c:	e55b3010 	ldrb	r3, [fp, #-16]
 c10b420:	e2833001 	add	r3, r3, #1
 c10b424:	e54b3010 	strb	r3, [fp, #-16]
 c10b428:	e15b31d0 	ldrsb	r3, [fp, #-16]
 c10b42c:	e3530003 	cmp	r3, #3
 c10b430:	dafffff9 	ble	c10b41c <L3_putByte+0x150>
 c10b434:	e55b300d 	ldrb	r3, [fp, #-13]
 c10b438:	e2833001 	add	r3, r3, #1
 c10b43c:	e54b300d 	strb	r3, [fp, #-13]
 c10b440:	e55b300d 	ldrb	r3, [fp, #-13]
 c10b444:	e3530007 	cmp	r3, #7
 c10b448:	9affffcc 	bls	c10b380 <L3_putByte+0xb4>
 c10b44c:	e59f3024 	ldr	r3, [pc, #36]	; c10b478 <L3_putByte+0x1ac>
 c10b450:	e55b2011 	ldrb	r2, [fp, #-17]	; 0xffffffef
 c10b454:	e1a01502 	lsl	r1, r2, #10
 c10b458:	e55b2012 	ldrb	r2, [fp, #-18]	; 0xffffffee
 c10b45c:	e1a02482 	lsl	r2, r2, #9
 c10b460:	e1812002 	orr	r2, r1, r2
 c10b464:	e3822030 	orr	r2, r2, #48	; 0x30
 c10b468:	e5832000 	str	r2, [r3]
 c10b46c:	e24bd00c 	sub	sp, fp, #12
 c10b470:	e89d6800 	ldm	sp, {fp, sp, lr}
 c10b474:	e12fff1e 	bx	lr
 c10b478:	01d2000c 	.word	0x01d2000c
 c10b47c:	01d20004 	.word	0x01d20004

0c10b480 <__aeabi_uidiv>:
 c10b480:	e2512001 	subs	r2, r1, #1
 c10b484:	012fff1e 	bxeq	lr
 c10b488:	3a000036 	bcc	c10b568 <__aeabi_uidiv+0xe8>
 c10b48c:	e1500001 	cmp	r0, r1
 c10b490:	9a000022 	bls	c10b520 <__aeabi_uidiv+0xa0>
 c10b494:	e1110002 	tst	r1, r2
 c10b498:	0a000023 	beq	c10b52c <__aeabi_uidiv+0xac>
 c10b49c:	e311020e 	tst	r1, #-536870912	; 0xe0000000
 c10b4a0:	01a01181 	lsleq	r1, r1, #3
 c10b4a4:	03a03008 	moveq	r3, #8
 c10b4a8:	13a03001 	movne	r3, #1
 c10b4ac:	e3510201 	cmp	r1, #268435456	; 0x10000000
 c10b4b0:	31510000 	cmpcc	r1, r0
 c10b4b4:	31a01201 	lslcc	r1, r1, #4
 c10b4b8:	31a03203 	lslcc	r3, r3, #4
 c10b4bc:	3afffffa 	bcc	c10b4ac <__aeabi_uidiv+0x2c>
 c10b4c0:	e3510102 	cmp	r1, #-2147483648	; 0x80000000
 c10b4c4:	31510000 	cmpcc	r1, r0
 c10b4c8:	31a01081 	lslcc	r1, r1, #1
 c10b4cc:	31a03083 	lslcc	r3, r3, #1
 c10b4d0:	3afffffa 	bcc	c10b4c0 <__aeabi_uidiv+0x40>
 c10b4d4:	e3a02000 	mov	r2, #0
 c10b4d8:	e1500001 	cmp	r0, r1
 c10b4dc:	20400001 	subcs	r0, r0, r1
 c10b4e0:	21822003 	orrcs	r2, r2, r3
 c10b4e4:	e15000a1 	cmp	r0, r1, lsr #1
 c10b4e8:	204000a1 	subcs	r0, r0, r1, lsr #1
 c10b4ec:	218220a3 	orrcs	r2, r2, r3, lsr #1
 c10b4f0:	e1500121 	cmp	r0, r1, lsr #2
 c10b4f4:	20400121 	subcs	r0, r0, r1, lsr #2
 c10b4f8:	21822123 	orrcs	r2, r2, r3, lsr #2
 c10b4fc:	e15001a1 	cmp	r0, r1, lsr #3
 c10b500:	204001a1 	subcs	r0, r0, r1, lsr #3
 c10b504:	218221a3 	orrcs	r2, r2, r3, lsr #3
 c10b508:	e3500000 	cmp	r0, #0
 c10b50c:	11b03223 	lsrsne	r3, r3, #4
 c10b510:	11a01221 	lsrne	r1, r1, #4
 c10b514:	1affffef 	bne	c10b4d8 <__aeabi_uidiv+0x58>
 c10b518:	e1a00002 	mov	r0, r2
 c10b51c:	e12fff1e 	bx	lr
 c10b520:	03a00001 	moveq	r0, #1
 c10b524:	13a00000 	movne	r0, #0
 c10b528:	e12fff1e 	bx	lr
 c10b52c:	e3510801 	cmp	r1, #65536	; 0x10000
 c10b530:	21a01821 	lsrcs	r1, r1, #16
 c10b534:	23a02010 	movcs	r2, #16
 c10b538:	33a02000 	movcc	r2, #0
 c10b53c:	e3510c01 	cmp	r1, #256	; 0x100
 c10b540:	21a01421 	lsrcs	r1, r1, #8
 c10b544:	22822008 	addcs	r2, r2, #8
 c10b548:	e3510010 	cmp	r1, #16
 c10b54c:	21a01221 	lsrcs	r1, r1, #4
 c10b550:	22822004 	addcs	r2, r2, #4
 c10b554:	e3510004 	cmp	r1, #4
 c10b558:	82822003 	addhi	r2, r2, #3
 c10b55c:	908220a1 	addls	r2, r2, r1, lsr #1
 c10b560:	e1a00230 	lsr	r0, r0, r2
 c10b564:	e12fff1e 	bx	lr
 c10b568:	e3500000 	cmp	r0, #0
 c10b56c:	13e00000 	mvnne	r0, #0
 c10b570:	ea000059 	b	c10b6dc <__aeabi_idiv0>

0c10b574 <__aeabi_uidivmod>:
 c10b574:	e3510000 	cmp	r1, #0
 c10b578:	0afffffa 	beq	c10b568 <__aeabi_uidiv+0xe8>
 c10b57c:	e92d4003 	push	{r0, r1, lr}
 c10b580:	ebffffbe 	bl	c10b480 <__aeabi_uidiv>
 c10b584:	e8bd4006 	pop	{r1, r2, lr}
 c10b588:	e0030092 	mul	r3, r2, r0
 c10b58c:	e0411003 	sub	r1, r1, r3
 c10b590:	e12fff1e 	bx	lr

0c10b594 <__aeabi_idiv>:
 c10b594:	e3510000 	cmp	r1, #0
 c10b598:	0a000043 	beq	c10b6ac <.divsi3_skip_div0_test+0x110>

0c10b59c <.divsi3_skip_div0_test>:
 c10b59c:	e020c001 	eor	ip, r0, r1
 c10b5a0:	42611000 	rsbmi	r1, r1, #0
 c10b5a4:	e2512001 	subs	r2, r1, #1
 c10b5a8:	0a000027 	beq	c10b64c <.divsi3_skip_div0_test+0xb0>
 c10b5ac:	e1b03000 	movs	r3, r0
 c10b5b0:	42603000 	rsbmi	r3, r0, #0
 c10b5b4:	e1530001 	cmp	r3, r1
 c10b5b8:	9a000026 	bls	c10b658 <.divsi3_skip_div0_test+0xbc>
 c10b5bc:	e1110002 	tst	r1, r2
 c10b5c0:	0a000028 	beq	c10b668 <.divsi3_skip_div0_test+0xcc>
 c10b5c4:	e311020e 	tst	r1, #-536870912	; 0xe0000000
 c10b5c8:	01a01181 	lsleq	r1, r1, #3
 c10b5cc:	03a02008 	moveq	r2, #8
 c10b5d0:	13a02001 	movne	r2, #1
 c10b5d4:	e3510201 	cmp	r1, #268435456	; 0x10000000
 c10b5d8:	31510003 	cmpcc	r1, r3
 c10b5dc:	31a01201 	lslcc	r1, r1, #4
 c10b5e0:	31a02202 	lslcc	r2, r2, #4
 c10b5e4:	3afffffa 	bcc	c10b5d4 <.divsi3_skip_div0_test+0x38>
 c10b5e8:	e3510102 	cmp	r1, #-2147483648	; 0x80000000
 c10b5ec:	31510003 	cmpcc	r1, r3
 c10b5f0:	31a01081 	lslcc	r1, r1, #1
 c10b5f4:	31a02082 	lslcc	r2, r2, #1
 c10b5f8:	3afffffa 	bcc	c10b5e8 <.divsi3_skip_div0_test+0x4c>
 c10b5fc:	e3a00000 	mov	r0, #0
 c10b600:	e1530001 	cmp	r3, r1
 c10b604:	20433001 	subcs	r3, r3, r1
 c10b608:	21800002 	orrcs	r0, r0, r2
 c10b60c:	e15300a1 	cmp	r3, r1, lsr #1
 c10b610:	204330a1 	subcs	r3, r3, r1, lsr #1
 c10b614:	218000a2 	orrcs	r0, r0, r2, lsr #1
 c10b618:	e1530121 	cmp	r3, r1, lsr #2
 c10b61c:	20433121 	subcs	r3, r3, r1, lsr #2
 c10b620:	21800122 	orrcs	r0, r0, r2, lsr #2
 c10b624:	e15301a1 	cmp	r3, r1, lsr #3
 c10b628:	204331a1 	subcs	r3, r3, r1, lsr #3
 c10b62c:	218001a2 	orrcs	r0, r0, r2, lsr #3
 c10b630:	e3530000 	cmp	r3, #0
 c10b634:	11b02222 	lsrsne	r2, r2, #4
 c10b638:	11a01221 	lsrne	r1, r1, #4
 c10b63c:	1affffef 	bne	c10b600 <.divsi3_skip_div0_test+0x64>
 c10b640:	e35c0000 	cmp	ip, #0
 c10b644:	42600000 	rsbmi	r0, r0, #0
 c10b648:	e12fff1e 	bx	lr
 c10b64c:	e13c0000 	teq	ip, r0
 c10b650:	42600000 	rsbmi	r0, r0, #0
 c10b654:	e12fff1e 	bx	lr
 c10b658:	33a00000 	movcc	r0, #0
 c10b65c:	01a00fcc 	asreq	r0, ip, #31
 c10b660:	03800001 	orreq	r0, r0, #1
 c10b664:	e12fff1e 	bx	lr
 c10b668:	e3510801 	cmp	r1, #65536	; 0x10000
 c10b66c:	21a01821 	lsrcs	r1, r1, #16
 c10b670:	23a02010 	movcs	r2, #16
 c10b674:	33a02000 	movcc	r2, #0
 c10b678:	e3510c01 	cmp	r1, #256	; 0x100
 c10b67c:	21a01421 	lsrcs	r1, r1, #8
 c10b680:	22822008 	addcs	r2, r2, #8
 c10b684:	e3510010 	cmp	r1, #16
 c10b688:	21a01221 	lsrcs	r1, r1, #4
 c10b68c:	22822004 	addcs	r2, r2, #4
 c10b690:	e3510004 	cmp	r1, #4
 c10b694:	82822003 	addhi	r2, r2, #3
 c10b698:	908220a1 	addls	r2, r2, r1, lsr #1
 c10b69c:	e35c0000 	cmp	ip, #0
 c10b6a0:	e1a00233 	lsr	r0, r3, r2
 c10b6a4:	42600000 	rsbmi	r0, r0, #0
 c10b6a8:	e12fff1e 	bx	lr
 c10b6ac:	e3500000 	cmp	r0, #0
 c10b6b0:	c3e00102 	mvngt	r0, #-2147483648	; 0x80000000
 c10b6b4:	b3a00102 	movlt	r0, #-2147483648	; 0x80000000
 c10b6b8:	ea000007 	b	c10b6dc <__aeabi_idiv0>

0c10b6bc <__aeabi_idivmod>:
 c10b6bc:	e3510000 	cmp	r1, #0
 c10b6c0:	0afffff9 	beq	c10b6ac <.divsi3_skip_div0_test+0x110>
 c10b6c4:	e92d4003 	push	{r0, r1, lr}
 c10b6c8:	ebffffb3 	bl	c10b59c <.divsi3_skip_div0_test>
 c10b6cc:	e8bd4006 	pop	{r1, r2, lr}
 c10b6d0:	e0030092 	mul	r3, r2, r0
 c10b6d4:	e0411003 	sub	r1, r1, r3
 c10b6d8:	e12fff1e 	bx	lr

0c10b6dc <__aeabi_idiv0>:
 c10b6dc:	e12fff1e 	bx	lr

0c10b6e0 <__aeabi_uldivmod>:
 c10b6e0:	e3530000 	cmp	r3, #0
 c10b6e4:	03520000 	cmpeq	r2, #0
 c10b6e8:	1a000004 	bne	c10b700 <__aeabi_uldivmod+0x20>
 c10b6ec:	e3510000 	cmp	r1, #0
 c10b6f0:	03500000 	cmpeq	r0, #0
 c10b6f4:	13e01000 	mvnne	r1, #0
 c10b6f8:	13e00000 	mvnne	r0, #0
 c10b6fc:	eafffff6 	b	c10b6dc <__aeabi_idiv0>
 c10b700:	e24dd008 	sub	sp, sp, #8
 c10b704:	e92d6000 	push	{sp, lr}
 c10b708:	eb000013 	bl	c10b75c <__gnu_uldivmod_helper>
 c10b70c:	e59de004 	ldr	lr, [sp, #4]
 c10b710:	e28dd008 	add	sp, sp, #8
 c10b714:	e8bd000c 	pop	{r2, r3}
 c10b718:	e12fff1e 	bx	lr

0c10b71c <__gnu_ldivmod_helper>:
 c10b71c:	e92d40f8 	push	{r3, r4, r5, r6, r7, lr}
 c10b720:	e1a04002 	mov	r4, r2
 c10b724:	e1a07003 	mov	r7, r3
 c10b728:	e1a05000 	mov	r5, r0
 c10b72c:	e1a06001 	mov	r6, r1
 c10b730:	eb000019 	bl	c10b79c <__divdi3>
 c10b734:	e0070790 	mul	r7, r0, r7
 c10b738:	e0832490 	umull	r2, r3, r0, r4
 c10b73c:	e0247491 	mla	r4, r1, r4, r7
 c10b740:	e0843003 	add	r3, r4, r3
 c10b744:	e0555002 	subs	r5, r5, r2
 c10b748:	e0c66003 	sbc	r6, r6, r3
 c10b74c:	e59d3018 	ldr	r3, [sp, #24]
 c10b750:	e8830060 	stm	r3, {r5, r6}
 c10b754:	e8bd40f8 	pop	{r3, r4, r5, r6, r7, lr}
 c10b758:	e12fff1e 	bx	lr

0c10b75c <__gnu_uldivmod_helper>:
 c10b75c:	e92d40f8 	push	{r3, r4, r5, r6, r7, lr}
 c10b760:	e1a04002 	mov	r4, r2
 c10b764:	e1a07003 	mov	r7, r3
 c10b768:	e1a05000 	mov	r5, r0
 c10b76c:	e1a06001 	mov	r6, r1
 c10b770:	eb000133 	bl	c10bc44 <__udivdi3>
 c10b774:	e0070790 	mul	r7, r0, r7
 c10b778:	e0832490 	umull	r2, r3, r0, r4
 c10b77c:	e0247491 	mla	r4, r1, r4, r7
 c10b780:	e0843003 	add	r3, r4, r3
 c10b784:	e0555002 	subs	r5, r5, r2
 c10b788:	e0c66003 	sbc	r6, r6, r3
 c10b78c:	e59d3018 	ldr	r3, [sp, #24]
 c10b790:	e8830060 	stm	r3, {r5, r6}
 c10b794:	e8bd40f8 	pop	{r3, r4, r5, r6, r7, lr}
 c10b798:	e12fff1e 	bx	lr

0c10b79c <__divdi3>:
 c10b79c:	e92d4ff0 	push	{r4, r5, r6, r7, r8, r9, sl, fp, lr}
 c10b7a0:	e3510000 	cmp	r1, #0
 c10b7a4:	e24dd014 	sub	sp, sp, #20
 c10b7a8:	e1a0c003 	mov	ip, r3
 c10b7ac:	a3a07000 	movge	r7, #0
 c10b7b0:	ba000094 	blt	c10ba08 <__divdi3+0x26c>
 c10b7b4:	e35c0000 	cmp	ip, #0
 c10b7b8:	ba00008e 	blt	c10b9f8 <__divdi3+0x25c>
 c10b7bc:	e253a000 	subs	sl, r3, #0
 c10b7c0:	e1a0b000 	mov	fp, r0
 c10b7c4:	e1a08001 	mov	r8, r1
 c10b7c8:	e1a09002 	mov	r9, r2
 c10b7cc:	e1a04002 	mov	r4, r2
 c10b7d0:	e1a05000 	mov	r5, r0
 c10b7d4:	e1a06001 	mov	r6, r1
 c10b7d8:	1a00003e 	bne	c10b8d8 <__divdi3+0x13c>
 c10b7dc:	e1520001 	cmp	r2, r1
 c10b7e0:	9a00004c 	bls	c10b918 <__divdi3+0x17c>
 c10b7e4:	e1a00002 	mov	r0, r2
 c10b7e8:	eb000222 	bl	c10c078 <__clzsi2>
 c10b7ec:	e3500000 	cmp	r0, #0
 c10b7f0:	12603020 	rsbne	r3, r0, #32
 c10b7f4:	11a0333b 	lsrne	r3, fp, r3
 c10b7f8:	11a04019 	lslne	r4, r9, r0
 c10b7fc:	11836018 	orrne	r6, r3, r8, lsl r0
 c10b800:	e1a09824 	lsr	r9, r4, #16
 c10b804:	11a0501b 	lslne	r5, fp, r0
 c10b808:	e1a01009 	mov	r1, r9
 c10b80c:	e1a00006 	mov	r0, r6
 c10b810:	ebffff1a 	bl	c10b480 <__aeabi_uidiv>
 c10b814:	e1a01009 	mov	r1, r9
 c10b818:	e1a0a000 	mov	sl, r0
 c10b81c:	e1a00006 	mov	r0, r6
 c10b820:	ebffff53 	bl	c10b574 <__aeabi_uidivmod>
 c10b824:	e1a08804 	lsl	r8, r4, #16
 c10b828:	e1a08828 	lsr	r8, r8, #16
 c10b82c:	e0030a98 	mul	r3, r8, sl
 c10b830:	e1a0b825 	lsr	fp, r5, #16
 c10b834:	e18bb801 	orr	fp, fp, r1, lsl #16
 c10b838:	e153000b 	cmp	r3, fp
 c10b83c:	9a000005 	bls	c10b858 <__divdi3+0xbc>
 c10b840:	e09bb004 	adds	fp, fp, r4
 c10b844:	e24aa001 	sub	sl, sl, #1
 c10b848:	2a000002 	bcs	c10b858 <__divdi3+0xbc>
 c10b84c:	e153000b 	cmp	r3, fp
 c10b850:	824aa001 	subhi	sl, sl, #1
 c10b854:	808bb004 	addhi	fp, fp, r4
 c10b858:	e063b00b 	rsb	fp, r3, fp
 c10b85c:	e1a01009 	mov	r1, r9
 c10b860:	e1a0000b 	mov	r0, fp
 c10b864:	ebffff05 	bl	c10b480 <__aeabi_uidiv>
 c10b868:	e1a01009 	mov	r1, r9
 c10b86c:	e1a06000 	mov	r6, r0
 c10b870:	e1a0000b 	mov	r0, fp
 c10b874:	ebffff3e 	bl	c10b574 <__aeabi_uidivmod>
 c10b878:	e0080896 	mul	r8, r6, r8
 c10b87c:	e1a00805 	lsl	r0, r5, #16
 c10b880:	e1a05820 	lsr	r5, r0, #16
 c10b884:	e1855801 	orr	r5, r5, r1, lsl #16
 c10b888:	e1580005 	cmp	r8, r5
 c10b88c:	9a000004 	bls	c10b8a4 <__divdi3+0x108>
 c10b890:	e0955004 	adds	r5, r5, r4
 c10b894:	e2466001 	sub	r6, r6, #1
 c10b898:	2a000001 	bcs	c10b8a4 <__divdi3+0x108>
 c10b89c:	e1580005 	cmp	r8, r5
 c10b8a0:	82466001 	subhi	r6, r6, #1
 c10b8a4:	e186680a 	orr	r6, r6, sl, lsl #16
 c10b8a8:	e3a09000 	mov	r9, #0
 c10b8ac:	e3570000 	cmp	r7, #0
 c10b8b0:	e1a03006 	mov	r3, r6
 c10b8b4:	e1a04009 	mov	r4, r9
 c10b8b8:	0a000001 	beq	c10b8c4 <__divdi3+0x128>
 c10b8bc:	e2733000 	rsbs	r3, r3, #0
 c10b8c0:	e2e44000 	rsc	r4, r4, #0
 c10b8c4:	e1a00003 	mov	r0, r3
 c10b8c8:	e1a01004 	mov	r1, r4
 c10b8cc:	e28dd014 	add	sp, sp, #20
 c10b8d0:	e8bd4ff0 	pop	{r4, r5, r6, r7, r8, r9, sl, fp, lr}
 c10b8d4:	e12fff1e 	bx	lr
 c10b8d8:	e15a0001 	cmp	sl, r1
 c10b8dc:	83a09000 	movhi	r9, #0
 c10b8e0:	81a06009 	movhi	r6, r9
 c10b8e4:	8afffff0 	bhi	c10b8ac <__divdi3+0x110>
 c10b8e8:	e1a00003 	mov	r0, r3
 c10b8ec:	eb0001e1 	bl	c10c078 <__clzsi2>
 c10b8f0:	e2504000 	subs	r4, r0, #0
 c10b8f4:	1a00007a 	bne	c10bae4 <__divdi3+0x348>
 c10b8f8:	e15a0008 	cmp	sl, r8
 c10b8fc:	2159000b 	cmpcs	r9, fp
 c10b900:	83a09000 	movhi	r9, #0
 c10b904:	93a09001 	movls	r9, #1
 c10b908:	93a06001 	movls	r6, #1
 c10b90c:	91a09004 	movls	r9, r4
 c10b910:	81a06009 	movhi	r6, r9
 c10b914:	eaffffe4 	b	c10b8ac <__divdi3+0x110>
 c10b918:	e3520000 	cmp	r2, #0
 c10b91c:	1a000003 	bne	c10b930 <__divdi3+0x194>
 c10b920:	e3a00001 	mov	r0, #1
 c10b924:	e1a01002 	mov	r1, r2
 c10b928:	ebfffed4 	bl	c10b480 <__aeabi_uidiv>
 c10b92c:	e1a04000 	mov	r4, r0
 c10b930:	e1a00004 	mov	r0, r4
 c10b934:	eb0001cf 	bl	c10c078 <__clzsi2>
 c10b938:	e2503000 	subs	r3, r0, #0
 c10b93c:	1a000035 	bne	c10ba18 <__divdi3+0x27c>
 c10b940:	e3a01001 	mov	r1, #1
 c10b944:	e1a09804 	lsl	r9, r4, #16
 c10b948:	e58d1008 	str	r1, [sp, #8]
 c10b94c:	e0646006 	rsb	r6, r4, r6
 c10b950:	e1a08824 	lsr	r8, r4, #16
 c10b954:	e1a09829 	lsr	r9, r9, #16
 c10b958:	e1a01008 	mov	r1, r8
 c10b95c:	e1a00006 	mov	r0, r6
 c10b960:	ebfffec6 	bl	c10b480 <__aeabi_uidiv>
 c10b964:	e1a01008 	mov	r1, r8
 c10b968:	e1a0a000 	mov	sl, r0
 c10b96c:	e1a00006 	mov	r0, r6
 c10b970:	ebfffeff 	bl	c10b574 <__aeabi_uidivmod>
 c10b974:	e0030a99 	mul	r3, r9, sl
 c10b978:	e1a0c825 	lsr	ip, r5, #16
 c10b97c:	e18cb801 	orr	fp, ip, r1, lsl #16
 c10b980:	e153000b 	cmp	r3, fp
 c10b984:	9a000005 	bls	c10b9a0 <__divdi3+0x204>
 c10b988:	e09bb004 	adds	fp, fp, r4
 c10b98c:	e24aa001 	sub	sl, sl, #1
 c10b990:	2a000002 	bcs	c10b9a0 <__divdi3+0x204>
 c10b994:	e153000b 	cmp	r3, fp
 c10b998:	824aa001 	subhi	sl, sl, #1
 c10b99c:	808bb004 	addhi	fp, fp, r4
 c10b9a0:	e063b00b 	rsb	fp, r3, fp
 c10b9a4:	e1a01008 	mov	r1, r8
 c10b9a8:	e1a0000b 	mov	r0, fp
 c10b9ac:	ebfffeb3 	bl	c10b480 <__aeabi_uidiv>
 c10b9b0:	e1a01008 	mov	r1, r8
 c10b9b4:	e1a06000 	mov	r6, r0
 c10b9b8:	e1a0000b 	mov	r0, fp
 c10b9bc:	ebfffeec 	bl	c10b574 <__aeabi_uidivmod>
 c10b9c0:	e0090996 	mul	r9, r6, r9
 c10b9c4:	e1a00805 	lsl	r0, r5, #16
 c10b9c8:	e1a05820 	lsr	r5, r0, #16
 c10b9cc:	e1855801 	orr	r5, r5, r1, lsl #16
 c10b9d0:	e1590005 	cmp	r9, r5
 c10b9d4:	9a000004 	bls	c10b9ec <__divdi3+0x250>
 c10b9d8:	e0955004 	adds	r5, r5, r4
 c10b9dc:	e2466001 	sub	r6, r6, #1
 c10b9e0:	2a000001 	bcs	c10b9ec <__divdi3+0x250>
 c10b9e4:	e1590005 	cmp	r9, r5
 c10b9e8:	82466001 	subhi	r6, r6, #1
 c10b9ec:	e186680a 	orr	r6, r6, sl, lsl #16
 c10b9f0:	e59d9008 	ldr	r9, [sp, #8]
 c10b9f4:	eaffffac 	b	c10b8ac <__divdi3+0x110>
 c10b9f8:	e1e07007 	mvn	r7, r7
 c10b9fc:	e2722000 	rsbs	r2, r2, #0
 c10ba00:	e2e33000 	rsc	r3, r3, #0
 c10ba04:	eaffff6c 	b	c10b7bc <__divdi3+0x20>
 c10ba08:	e2700000 	rsbs	r0, r0, #0
 c10ba0c:	e2e11000 	rsc	r1, r1, #0
 c10ba10:	e3e07000 	mvn	r7, #0
 c10ba14:	eaffff66 	b	c10b7b4 <__divdi3+0x18>
 c10ba18:	e2638020 	rsb	r8, r3, #32
 c10ba1c:	e1a0b835 	lsr	fp, r5, r8
 c10ba20:	e1a04314 	lsl	r4, r4, r3
 c10ba24:	e1a0a836 	lsr	sl, r6, r8
 c10ba28:	e18be316 	orr	lr, fp, r6, lsl r3
 c10ba2c:	e1a08824 	lsr	r8, r4, #16
 c10ba30:	e1a0c804 	lsl	ip, r4, #16
 c10ba34:	e1a01008 	mov	r1, r8
 c10ba38:	e1a0000a 	mov	r0, sl
 c10ba3c:	e1a0982c 	lsr	r9, ip, #16
 c10ba40:	e1a05315 	lsl	r5, r5, r3
 c10ba44:	e58de008 	str	lr, [sp, #8]
 c10ba48:	ebfffe8c 	bl	c10b480 <__aeabi_uidiv>
 c10ba4c:	e1a01008 	mov	r1, r8
 c10ba50:	e1a0b000 	mov	fp, r0
 c10ba54:	e1a0000a 	mov	r0, sl
 c10ba58:	ebfffec5 	bl	c10b574 <__aeabi_uidivmod>
 c10ba5c:	e0030b99 	mul	r3, r9, fp
 c10ba60:	e59d2008 	ldr	r2, [sp, #8]
 c10ba64:	e1a06822 	lsr	r6, r2, #16
 c10ba68:	e1866801 	orr	r6, r6, r1, lsl #16
 c10ba6c:	e1530006 	cmp	r3, r6
 c10ba70:	9a000002 	bls	c10ba80 <__divdi3+0x2e4>
 c10ba74:	e0966004 	adds	r6, r6, r4
 c10ba78:	e24bb001 	sub	fp, fp, #1
 c10ba7c:	3a00006c 	bcc	c10bc34 <__divdi3+0x498>
 c10ba80:	e0636006 	rsb	r6, r3, r6
 c10ba84:	e1a01008 	mov	r1, r8
 c10ba88:	e1a00006 	mov	r0, r6
 c10ba8c:	ebfffe7b 	bl	c10b480 <__aeabi_uidiv>
 c10ba90:	e1a01008 	mov	r1, r8
 c10ba94:	e1a0a000 	mov	sl, r0
 c10ba98:	e1a00006 	mov	r0, r6
 c10ba9c:	ebfffeb4 	bl	c10b574 <__aeabi_uidivmod>
 c10baa0:	e0030a99 	mul	r3, r9, sl
 c10baa4:	e59d2008 	ldr	r2, [sp, #8]
 c10baa8:	e1a06802 	lsl	r6, r2, #16
 c10baac:	e1a00826 	lsr	r0, r6, #16
 c10bab0:	e1806801 	orr	r6, r0, r1, lsl #16
 c10bab4:	e1530006 	cmp	r3, r6
 c10bab8:	9a000005 	bls	c10bad4 <__divdi3+0x338>
 c10babc:	e0966004 	adds	r6, r6, r4
 c10bac0:	e24aa001 	sub	sl, sl, #1
 c10bac4:	2a000002 	bcs	c10bad4 <__divdi3+0x338>
 c10bac8:	e1530006 	cmp	r3, r6
 c10bacc:	824aa001 	subhi	sl, sl, #1
 c10bad0:	80866004 	addhi	r6, r6, r4
 c10bad4:	e0636006 	rsb	r6, r3, r6
 c10bad8:	e18a380b 	orr	r3, sl, fp, lsl #16
 c10badc:	e58d3008 	str	r3, [sp, #8]
 c10bae0:	eaffff9c 	b	c10b958 <__divdi3+0x1bc>
 c10bae4:	e2641020 	rsb	r1, r4, #32
 c10bae8:	e1a00139 	lsr	r0, r9, r1
 c10baec:	e1a0213b 	lsr	r2, fp, r1
 c10baf0:	e180a41a 	orr	sl, r0, sl, lsl r4
 c10baf4:	e1a06138 	lsr	r6, r8, r1
 c10baf8:	e1828418 	orr	r8, r2, r8, lsl r4
 c10bafc:	e1a0380a 	lsl	r3, sl, #16
 c10bb00:	e1a0b82a 	lsr	fp, sl, #16
 c10bb04:	e1a0e823 	lsr	lr, r3, #16
 c10bb08:	e1a0100b 	mov	r1, fp
 c10bb0c:	e1a00006 	mov	r0, r6
 c10bb10:	e58d8008 	str	r8, [sp, #8]
 c10bb14:	e58de00c 	str	lr, [sp, #12]
 c10bb18:	ebfffe58 	bl	c10b480 <__aeabi_uidiv>
 c10bb1c:	e1a0100b 	mov	r1, fp
 c10bb20:	e1a08000 	mov	r8, r0
 c10bb24:	e1a00006 	mov	r0, r6
 c10bb28:	ebfffe91 	bl	c10b574 <__aeabi_uidivmod>
 c10bb2c:	e59dc00c 	ldr	ip, [sp, #12]
 c10bb30:	e002089c 	mul	r2, ip, r8
 c10bb34:	e59d3008 	ldr	r3, [sp, #8]
 c10bb38:	e1a06823 	lsr	r6, r3, #16
 c10bb3c:	e1861801 	orr	r1, r6, r1, lsl #16
 c10bb40:	e1520001 	cmp	r2, r1
 c10bb44:	e1a03419 	lsl	r3, r9, r4
 c10bb48:	9a000002 	bls	c10bb58 <__divdi3+0x3bc>
 c10bb4c:	e091100a 	adds	r1, r1, sl
 c10bb50:	e2488001 	sub	r8, r8, #1
 c10bb54:	3a000032 	bcc	c10bc24 <__divdi3+0x488>
 c10bb58:	e0629001 	rsb	r9, r2, r1
 c10bb5c:	e1a00009 	mov	r0, r9
 c10bb60:	e1a0100b 	mov	r1, fp
 c10bb64:	e58d3004 	str	r3, [sp, #4]
 c10bb68:	ebfffe44 	bl	c10b480 <__aeabi_uidiv>
 c10bb6c:	e1a0100b 	mov	r1, fp
 c10bb70:	e1a06000 	mov	r6, r0
 c10bb74:	e1a00009 	mov	r0, r9
 c10bb78:	ebfffe7d 	bl	c10b574 <__aeabi_uidivmod>
 c10bb7c:	e59d000c 	ldr	r0, [sp, #12]
 c10bb80:	e0020690 	mul	r2, r0, r6
 c10bb84:	e59d3008 	ldr	r3, [sp, #8]
 c10bb88:	e1a0c803 	lsl	ip, r3, #16
 c10bb8c:	e1a0982c 	lsr	r9, ip, #16
 c10bb90:	e1890801 	orr	r0, r9, r1, lsl #16
 c10bb94:	e1520000 	cmp	r2, r0
 c10bb98:	e59d3004 	ldr	r3, [sp, #4]
 c10bb9c:	9a000002 	bls	c10bbac <__divdi3+0x410>
 c10bba0:	e090000a 	adds	r0, r0, sl
 c10bba4:	e2466001 	sub	r6, r6, #1
 c10bba8:	3a000019 	bcc	c10bc14 <__divdi3+0x478>
 c10bbac:	e062e000 	rsb	lr, r2, r0
 c10bbb0:	e1866808 	orr	r6, r6, r8, lsl #16
 c10bbb4:	e1a02826 	lsr	r2, r6, #16
 c10bbb8:	e1a01823 	lsr	r1, r3, #16
 c10bbbc:	e1c6c802 	bic	ip, r6, r2, lsl #16
 c10bbc0:	e1c39801 	bic	r9, r3, r1, lsl #16
 c10bbc4:	e003099c 	mul	r3, ip, r9
 c10bbc8:	e0090992 	mul	r9, r2, r9
 c10bbcc:	e00c0c91 	mul	ip, r1, ip
 c10bbd0:	e0010192 	mul	r1, r2, r1
 c10bbd4:	e099c00c 	adds	ip, r9, ip
 c10bbd8:	22811801 	addcs	r1, r1, #65536	; 0x10000
 c10bbdc:	e093380c 	adds	r3, r3, ip, lsl #16
 c10bbe0:	e0a1182c 	adc	r1, r1, ip, lsr #16
 c10bbe4:	e15e0001 	cmp	lr, r1
 c10bbe8:	3a000006 	bcc	c10bc08 <__divdi3+0x46c>
 c10bbec:	13a02000 	movne	r2, #0
 c10bbf0:	03a02001 	moveq	r2, #1
 c10bbf4:	e1530415 	cmp	r3, r5, lsl r4
 c10bbf8:	93a09000 	movls	r9, #0
 c10bbfc:	82029001 	andhi	r9, r2, #1
 c10bc00:	e3590000 	cmp	r9, #0
 c10bc04:	0affff28 	beq	c10b8ac <__divdi3+0x110>
 c10bc08:	e2466001 	sub	r6, r6, #1
 c10bc0c:	e3a09000 	mov	r9, #0
 c10bc10:	eaffff25 	b	c10b8ac <__divdi3+0x110>
 c10bc14:	e1520000 	cmp	r2, r0
 c10bc18:	82466001 	subhi	r6, r6, #1
 c10bc1c:	8080000a 	addhi	r0, r0, sl
 c10bc20:	eaffffe1 	b	c10bbac <__divdi3+0x410>
 c10bc24:	e1520001 	cmp	r2, r1
 c10bc28:	82488001 	subhi	r8, r8, #1
 c10bc2c:	8081100a 	addhi	r1, r1, sl
 c10bc30:	eaffffc8 	b	c10bb58 <__divdi3+0x3bc>
 c10bc34:	e1530006 	cmp	r3, r6
 c10bc38:	824bb001 	subhi	fp, fp, #1
 c10bc3c:	80866004 	addhi	r6, r6, r4
 c10bc40:	eaffff8e 	b	c10ba80 <__divdi3+0x2e4>

0c10bc44 <__udivdi3>:
 c10bc44:	e92d4ff0 	push	{r4, r5, r6, r7, r8, r9, sl, fp, lr}
 c10bc48:	e2538000 	subs	r8, r3, #0
 c10bc4c:	e24dd00c 	sub	sp, sp, #12
 c10bc50:	e1a05000 	mov	r5, r0
 c10bc54:	e1a04001 	mov	r4, r1
 c10bc58:	e1a06002 	mov	r6, r2
 c10bc5c:	e1a0a002 	mov	sl, r2
 c10bc60:	e1a0b000 	mov	fp, r0
 c10bc64:	e1a07001 	mov	r7, r1
 c10bc68:	1a000037 	bne	c10bd4c <__udivdi3+0x108>
 c10bc6c:	e1520001 	cmp	r2, r1
 c10bc70:	9a000045 	bls	c10bd8c <__udivdi3+0x148>
 c10bc74:	e1a00002 	mov	r0, r2
 c10bc78:	eb0000fe 	bl	c10c078 <__clzsi2>
 c10bc7c:	e3500000 	cmp	r0, #0
 c10bc80:	12603020 	rsbne	r3, r0, #32
 c10bc84:	11a03335 	lsrne	r3, r5, r3
 c10bc88:	11a0a016 	lslne	sl, r6, r0
 c10bc8c:	11837014 	orrne	r7, r3, r4, lsl r0
 c10bc90:	e1a0482a 	lsr	r4, sl, #16
 c10bc94:	11a0b015 	lslne	fp, r5, r0
 c10bc98:	e1a01004 	mov	r1, r4
 c10bc9c:	e1a00007 	mov	r0, r7
 c10bca0:	ebfffdf6 	bl	c10b480 <__aeabi_uidiv>
 c10bca4:	e1a01004 	mov	r1, r4
 c10bca8:	e1a08000 	mov	r8, r0
 c10bcac:	e1a00007 	mov	r0, r7
 c10bcb0:	ebfffe2f 	bl	c10b574 <__aeabi_uidivmod>
 c10bcb4:	e1a0680a 	lsl	r6, sl, #16
 c10bcb8:	e1a06826 	lsr	r6, r6, #16
 c10bcbc:	e0030896 	mul	r3, r6, r8
 c10bcc0:	e1a0782b 	lsr	r7, fp, #16
 c10bcc4:	e1877801 	orr	r7, r7, r1, lsl #16
 c10bcc8:	e1530007 	cmp	r3, r7
 c10bccc:	9a000005 	bls	c10bce8 <__udivdi3+0xa4>
 c10bcd0:	e097700a 	adds	r7, r7, sl
 c10bcd4:	e2488001 	sub	r8, r8, #1
 c10bcd8:	2a000002 	bcs	c10bce8 <__udivdi3+0xa4>
 c10bcdc:	e1530007 	cmp	r3, r7
 c10bce0:	82488001 	subhi	r8, r8, #1
 c10bce4:	8087700a 	addhi	r7, r7, sl
 c10bce8:	e0637007 	rsb	r7, r3, r7
 c10bcec:	e1a01004 	mov	r1, r4
 c10bcf0:	e1a00007 	mov	r0, r7
 c10bcf4:	ebfffde1 	bl	c10b480 <__aeabi_uidiv>
 c10bcf8:	e1a01004 	mov	r1, r4
 c10bcfc:	e1a05000 	mov	r5, r0
 c10bd00:	e1a00007 	mov	r0, r7
 c10bd04:	ebfffe1a 	bl	c10b574 <__aeabi_uidivmod>
 c10bd08:	e0060695 	mul	r6, r5, r6
 c10bd0c:	e1a0080b 	lsl	r0, fp, #16
 c10bd10:	e1a0b820 	lsr	fp, r0, #16
 c10bd14:	e18bb801 	orr	fp, fp, r1, lsl #16
 c10bd18:	e156000b 	cmp	r6, fp
 c10bd1c:	9a000004 	bls	c10bd34 <__udivdi3+0xf0>
 c10bd20:	e09bb00a 	adds	fp, fp, sl
 c10bd24:	e2455001 	sub	r5, r5, #1
 c10bd28:	2a000001 	bcs	c10bd34 <__udivdi3+0xf0>
 c10bd2c:	e156000b 	cmp	r6, fp
 c10bd30:	82455001 	subhi	r5, r5, #1
 c10bd34:	e1858808 	orr	r8, r5, r8, lsl #16
 c10bd38:	e3a01000 	mov	r1, #0
 c10bd3c:	e1a00008 	mov	r0, r8
 c10bd40:	e28dd00c 	add	sp, sp, #12
 c10bd44:	e8bd4ff0 	pop	{r4, r5, r6, r7, r8, r9, sl, fp, lr}
 c10bd48:	e12fff1e 	bx	lr
 c10bd4c:	e1580001 	cmp	r8, r1
 c10bd50:	83a01000 	movhi	r1, #0
 c10bd54:	81a08001 	movhi	r8, r1
 c10bd58:	8afffff7 	bhi	c10bd3c <__udivdi3+0xf8>
 c10bd5c:	e1a00008 	mov	r0, r8
 c10bd60:	eb0000c4 	bl	c10c078 <__clzsi2>
 c10bd64:	e2507000 	subs	r7, r0, #0
 c10bd68:	1a00003e 	bne	c10be68 <__udivdi3+0x224>
 c10bd6c:	e1580004 	cmp	r8, r4
 c10bd70:	21560005 	cmpcs	r6, r5
 c10bd74:	83a01000 	movhi	r1, #0
 c10bd78:	93a01001 	movls	r1, #1
 c10bd7c:	93a08001 	movls	r8, #1
 c10bd80:	91a01007 	movls	r1, r7
 c10bd84:	81a08001 	movhi	r8, r1
 c10bd88:	eaffffeb 	b	c10bd3c <__udivdi3+0xf8>
 c10bd8c:	e3520000 	cmp	r2, #0
 c10bd90:	1a000003 	bne	c10bda4 <__udivdi3+0x160>
 c10bd94:	e3a00001 	mov	r0, #1
 c10bd98:	e1a01002 	mov	r1, r2
 c10bd9c:	ebfffdb7 	bl	c10b480 <__aeabi_uidiv>
 c10bda0:	e1a0a000 	mov	sl, r0
 c10bda4:	e1a0000a 	mov	r0, sl
 c10bda8:	eb0000b2 	bl	c10c078 <__clzsi2>
 c10bdac:	e2503000 	subs	r3, r0, #0
 c10bdb0:	1a000075 	bne	c10bf8c <__udivdi3+0x348>
 c10bdb4:	e1a0180a 	lsl	r1, sl, #16
 c10bdb8:	e06a4004 	rsb	r4, sl, r4
 c10bdbc:	e1a0982a 	lsr	r9, sl, #16
 c10bdc0:	e1a06821 	lsr	r6, r1, #16
 c10bdc4:	e3a07001 	mov	r7, #1
 c10bdc8:	e1a01009 	mov	r1, r9
 c10bdcc:	e1a00004 	mov	r0, r4
 c10bdd0:	ebfffdaa 	bl	c10b480 <__aeabi_uidiv>
 c10bdd4:	e1a01009 	mov	r1, r9
 c10bdd8:	e1a05000 	mov	r5, r0
 c10bddc:	e1a00004 	mov	r0, r4
 c10bde0:	ebfffde3 	bl	c10b574 <__aeabi_uidivmod>
 c10bde4:	e0030596 	mul	r3, r6, r5
 c10bde8:	e1a0282b 	lsr	r2, fp, #16
 c10bdec:	e1824801 	orr	r4, r2, r1, lsl #16
 c10bdf0:	e1530004 	cmp	r3, r4
 c10bdf4:	9a000005 	bls	c10be10 <__udivdi3+0x1cc>
 c10bdf8:	e094400a 	adds	r4, r4, sl
 c10bdfc:	e2455001 	sub	r5, r5, #1
 c10be00:	2a000002 	bcs	c10be10 <__udivdi3+0x1cc>
 c10be04:	e1530004 	cmp	r3, r4
 c10be08:	82455001 	subhi	r5, r5, #1
 c10be0c:	8084400a 	addhi	r4, r4, sl
 c10be10:	e0634004 	rsb	r4, r3, r4
 c10be14:	e1a01009 	mov	r1, r9
 c10be18:	e1a00004 	mov	r0, r4
 c10be1c:	ebfffd97 	bl	c10b480 <__aeabi_uidiv>
 c10be20:	e1a01009 	mov	r1, r9
 c10be24:	e1a08000 	mov	r8, r0
 c10be28:	e1a00004 	mov	r0, r4
 c10be2c:	ebfffdd0 	bl	c10b574 <__aeabi_uidivmod>
 c10be30:	e0060698 	mul	r6, r8, r6
 c10be34:	e1a0b80b 	lsl	fp, fp, #16
 c10be38:	e1a0382b 	lsr	r3, fp, #16
 c10be3c:	e183b801 	orr	fp, r3, r1, lsl #16
 c10be40:	e156000b 	cmp	r6, fp
 c10be44:	9a000004 	bls	c10be5c <__udivdi3+0x218>
 c10be48:	e09bb00a 	adds	fp, fp, sl
 c10be4c:	e2488001 	sub	r8, r8, #1
 c10be50:	2a000001 	bcs	c10be5c <__udivdi3+0x218>
 c10be54:	e156000b 	cmp	r6, fp
 c10be58:	82488001 	subhi	r8, r8, #1
 c10be5c:	e1888805 	orr	r8, r8, r5, lsl #16
 c10be60:	e1a01007 	mov	r1, r7
 c10be64:	eaffffb4 	b	c10bd3c <__udivdi3+0xf8>
 c10be68:	e267a020 	rsb	sl, r7, #32
 c10be6c:	e1a01a36 	lsr	r1, r6, sl
 c10be70:	e1a02a35 	lsr	r2, r5, sl
 c10be74:	e1818718 	orr	r8, r1, r8, lsl r7
 c10be78:	e1a0ba34 	lsr	fp, r4, sl
 c10be7c:	e1829714 	orr	r9, r2, r4, lsl r7
 c10be80:	e1a0a828 	lsr	sl, r8, #16
 c10be84:	e1a0e808 	lsl	lr, r8, #16
 c10be88:	e1a0100a 	mov	r1, sl
 c10be8c:	e1a0000b 	mov	r0, fp
 c10be90:	e1a0482e 	lsr	r4, lr, #16
 c10be94:	e58d9004 	str	r9, [sp, #4]
 c10be98:	ebfffd78 	bl	c10b480 <__aeabi_uidiv>
 c10be9c:	e1a0100a 	mov	r1, sl
 c10bea0:	e1a09000 	mov	r9, r0
 c10bea4:	e1a0000b 	mov	r0, fp
 c10bea8:	ebfffdb1 	bl	c10b574 <__aeabi_uidivmod>
 c10beac:	e0020994 	mul	r2, r4, r9
 c10beb0:	e59d0004 	ldr	r0, [sp, #4]
 c10beb4:	e1a0c820 	lsr	ip, r0, #16
 c10beb8:	e18cb801 	orr	fp, ip, r1, lsl #16
 c10bebc:	e152000b 	cmp	r2, fp
 c10bec0:	e1a03716 	lsl	r3, r6, r7
 c10bec4:	9a000002 	bls	c10bed4 <__udivdi3+0x290>
 c10bec8:	e09bb008 	adds	fp, fp, r8
 c10becc:	e2499001 	sub	r9, r9, #1
 c10bed0:	3a000060 	bcc	c10c058 <__udivdi3+0x414>
 c10bed4:	e062b00b 	rsb	fp, r2, fp
 c10bed8:	e1a0100a 	mov	r1, sl
 c10bedc:	e1a0000b 	mov	r0, fp
 c10bee0:	e58d3000 	str	r3, [sp]
 c10bee4:	ebfffd65 	bl	c10b480 <__aeabi_uidiv>
 c10bee8:	e1a0100a 	mov	r1, sl
 c10beec:	e1a06000 	mov	r6, r0
 c10bef0:	e1a0000b 	mov	r0, fp
 c10bef4:	ebfffd9e 	bl	c10b574 <__aeabi_uidivmod>
 c10bef8:	e0040496 	mul	r4, r6, r4
 c10befc:	e59d0004 	ldr	r0, [sp, #4]
 c10bf00:	e1a0c800 	lsl	ip, r0, #16
 c10bf04:	e1a0382c 	lsr	r3, ip, #16
 c10bf08:	e1832801 	orr	r2, r3, r1, lsl #16
 c10bf0c:	e1540002 	cmp	r4, r2
 c10bf10:	e59d3000 	ldr	r3, [sp]
 c10bf14:	9a000002 	bls	c10bf24 <__udivdi3+0x2e0>
 c10bf18:	e0922008 	adds	r2, r2, r8
 c10bf1c:	e2466001 	sub	r6, r6, #1
 c10bf20:	3a000048 	bcc	c10c048 <__udivdi3+0x404>
 c10bf24:	e0644002 	rsb	r4, r4, r2
 c10bf28:	e1868809 	orr	r8, r6, r9, lsl #16
 c10bf2c:	e1a02828 	lsr	r2, r8, #16
 c10bf30:	e1a0e823 	lsr	lr, r3, #16
 c10bf34:	e1c80802 	bic	r0, r8, r2, lsl #16
 c10bf38:	e1c3680e 	bic	r6, r3, lr, lsl #16
 c10bf3c:	e0030690 	mul	r3, r0, r6
 c10bf40:	e0060692 	mul	r6, r2, r6
 c10bf44:	e000009e 	mul	r0, lr, r0
 c10bf48:	e00e0e92 	mul	lr, r2, lr
 c10bf4c:	e0960000 	adds	r0, r6, r0
 c10bf50:	228ee801 	addcs	lr, lr, #65536	; 0x10000
 c10bf54:	e0933800 	adds	r3, r3, r0, lsl #16
 c10bf58:	e0aee820 	adc	lr, lr, r0, lsr #16
 c10bf5c:	e154000e 	cmp	r4, lr
 c10bf60:	3a000006 	bcc	c10bf80 <__udivdi3+0x33c>
 c10bf64:	13a02000 	movne	r2, #0
 c10bf68:	03a02001 	moveq	r2, #1
 c10bf6c:	e1530715 	cmp	r3, r5, lsl r7
 c10bf70:	93a01000 	movls	r1, #0
 c10bf74:	82021001 	andhi	r1, r2, #1
 c10bf78:	e3510000 	cmp	r1, #0
 c10bf7c:	0affff6e 	beq	c10bd3c <__udivdi3+0xf8>
 c10bf80:	e2488001 	sub	r8, r8, #1
 c10bf84:	e3a01000 	mov	r1, #0
 c10bf88:	eaffff6b 	b	c10bd3c <__udivdi3+0xf8>
 c10bf8c:	e2639020 	rsb	r9, r3, #32
 c10bf90:	e1a0a31a 	lsl	sl, sl, r3
 c10bf94:	e1a07934 	lsr	r7, r4, r9
 c10bf98:	e1a08935 	lsr	r8, r5, r9
 c10bf9c:	e1a0982a 	lsr	r9, sl, #16
 c10bfa0:	e1a0280a 	lsl	r2, sl, #16
 c10bfa4:	e1a01009 	mov	r1, r9
 c10bfa8:	e1a00007 	mov	r0, r7
 c10bfac:	e1888314 	orr	r8, r8, r4, lsl r3
 c10bfb0:	e1a0b315 	lsl	fp, r5, r3
 c10bfb4:	e1a06822 	lsr	r6, r2, #16
 c10bfb8:	ebfffd30 	bl	c10b480 <__aeabi_uidiv>
 c10bfbc:	e1a01009 	mov	r1, r9
 c10bfc0:	e1a05000 	mov	r5, r0
 c10bfc4:	e1a00007 	mov	r0, r7
 c10bfc8:	ebfffd69 	bl	c10b574 <__aeabi_uidivmod>
 c10bfcc:	e0030596 	mul	r3, r6, r5
 c10bfd0:	e1a04828 	lsr	r4, r8, #16
 c10bfd4:	e1844801 	orr	r4, r4, r1, lsl #16
 c10bfd8:	e1530004 	cmp	r3, r4
 c10bfdc:	9a000002 	bls	c10bfec <__udivdi3+0x3a8>
 c10bfe0:	e094400a 	adds	r4, r4, sl
 c10bfe4:	e2455001 	sub	r5, r5, #1
 c10bfe8:	3a00001e 	bcc	c10c068 <__udivdi3+0x424>
 c10bfec:	e0634004 	rsb	r4, r3, r4
 c10bff0:	e1a01009 	mov	r1, r9
 c10bff4:	e1a00004 	mov	r0, r4
 c10bff8:	ebfffd20 	bl	c10b480 <__aeabi_uidiv>
 c10bffc:	e1a01009 	mov	r1, r9
 c10c000:	e1a07000 	mov	r7, r0
 c10c004:	e1a00004 	mov	r0, r4
 c10c008:	ebfffd59 	bl	c10b574 <__aeabi_uidivmod>
 c10c00c:	e0030796 	mul	r3, r6, r7
 c10c010:	e1a00808 	lsl	r0, r8, #16
 c10c014:	e1a0c820 	lsr	ip, r0, #16
 c10c018:	e18c4801 	orr	r4, ip, r1, lsl #16
 c10c01c:	e1530004 	cmp	r3, r4
 c10c020:	9a000005 	bls	c10c03c <__udivdi3+0x3f8>
 c10c024:	e094400a 	adds	r4, r4, sl
 c10c028:	e2477001 	sub	r7, r7, #1
 c10c02c:	2a000002 	bcs	c10c03c <__udivdi3+0x3f8>
 c10c030:	e1530004 	cmp	r3, r4
 c10c034:	82477001 	subhi	r7, r7, #1
 c10c038:	8084400a 	addhi	r4, r4, sl
 c10c03c:	e0634004 	rsb	r4, r3, r4
 c10c040:	e1877805 	orr	r7, r7, r5, lsl #16
 c10c044:	eaffff5f 	b	c10bdc8 <__udivdi3+0x184>
 c10c048:	e1540002 	cmp	r4, r2
 c10c04c:	82466001 	subhi	r6, r6, #1
 c10c050:	80822008 	addhi	r2, r2, r8
 c10c054:	eaffffb2 	b	c10bf24 <__udivdi3+0x2e0>
 c10c058:	e152000b 	cmp	r2, fp
 c10c05c:	82499001 	subhi	r9, r9, #1
 c10c060:	808bb008 	addhi	fp, fp, r8
 c10c064:	eaffff9a 	b	c10bed4 <__udivdi3+0x290>
 c10c068:	e1530004 	cmp	r3, r4
 c10c06c:	82455001 	subhi	r5, r5, #1
 c10c070:	8084400a 	addhi	r4, r4, sl
 c10c074:	eaffffdc 	b	c10bfec <__udivdi3+0x3a8>

0c10c078 <__clzsi2>:
 c10c078:	e3a0101c 	mov	r1, #28
 c10c07c:	e3500801 	cmp	r0, #65536	; 0x10000
 c10c080:	21a00820 	lsrcs	r0, r0, #16
 c10c084:	22411010 	subcs	r1, r1, #16
 c10c088:	e3500c01 	cmp	r0, #256	; 0x100
 c10c08c:	21a00420 	lsrcs	r0, r0, #8
 c10c090:	22411008 	subcs	r1, r1, #8
 c10c094:	e3500010 	cmp	r0, #16
 c10c098:	21a00220 	lsrcs	r0, r0, #4
 c10c09c:	22411004 	subcs	r1, r1, #4
 c10c0a0:	e28f2008 	add	r2, pc, #8
 c10c0a4:	e7d20000 	ldrb	r0, [r2, r0]
 c10c0a8:	e0800001 	add	r0, r0, r1
 c10c0ac:	e12fff1e 	bx	lr
 c10c0b0:	02020304 	.word	0x02020304
 c10c0b4:	01010101 	.word	0x01010101
	...
